cd:_glClearStencil
ETi:_UInt16_System_IConvertible_ToChar_m2096055221_AdjustorThunk
Pmi:_Array_TrueForAll_TisRuntimeObject_m1084992726_gshared
agd:__ZN5physx2Gu19gjkLocalPenetrationINS0_8CapsuleVENS0_17ShrunkConvexHullVEEEjRKT_RKT0_RKNS_6shdfnd3aos6FloatVERNSB_5Vec3VESG_SG_RSC_PhSI_Rhb
SXk:_PlayableOutputHandle_get_Null_m1200584339
UAk:__ZN6il2cpp2vm5Array13GetByteLengthEP11Il2CppArray
UOj:_KeyBuilder_get_Rng_m3373220441
jbm:__ZL102Image_t2670269651_CustomAttributesCacheGenerator_Image_t2670269651____eventAlphaThreshold_PropertyInfoP21CustomAttributesCache
Ihf:__ZN15DownloadHandler7OnAbortEv
H0a:__Z30GetIntermediateRendererManagerv
nuj:_U3CCreateWhereIteratorU3Ec__Iterator1D_1_System_Collections_Generic_IEnumeratorU3CTSourceU3E_get_Current_m1909387290_gshared
Us:__ZN10StateRange8TransferI14SafeBinaryReadEEvRT_
lQe:__ZN13SplatDatabase25RecalculateBasemapIfDirtyEv
eIa:__Z21SourceMipLevelForBlitiiii
u5a:__ZN31CanvasBatchIntermediateRenderer15AddAsRenderNodeER15RenderNodeQueueRK20DeprecatedSourceData
VQi:_TimeSpan_get_Hours_m550761902
M6l:__ZL95CanvasRenderer_t2598313366_CustomAttributesCacheGenerator_CanvasRenderer_SetMaterial_m824577244P21CustomAttributesCache
s5l:__ZL72GUISkin_t1244372282_CustomAttributesCacheGenerator_m_verticalSliderThumbP21CustomAttributesCache
kVh:_Capture_get_Index_m745081289
LYl:__ZL63PlayableOutputHandle_t4208053793_CustomAttributesCacheGeneratorP21CustomAttributesCache
HJf:_CanvasScaler_get_defaultSpriteDPI_m871626936
tgm:__ZL80AeroplaneController_t857819489_CustomAttributesCacheGenerator_m_BankedTurnEffectP21CustomAttributesCache
Pdf:__ZN11UnityEngine7Connect14AppUpdateEventD0Ev
K5l:__ZL57ParticleSystem_t1800779281_CustomAttributesCacheGeneratorP21CustomAttributesCache
CBl:__ZL66RuntimeArray_CustomAttributesCacheGenerator_Array_Sort_m3287581440P21CustomAttributesCache
U6d:__ZNK5physx2Sc5Scene24getContactModifyCallbackEv
y4:__ZdlPv
YTk:_LayerMask_op_Implicit_m90232283
cw:__ZN11UnityEngine9Animation28GenericAnimationBindingCacheD2Ev
_9d:__ZN5physx2Sq10AABBPruner10addObjectsEPjPKNS_9PxBounds3EPKNS0_13PrunerPayloadEj
gFj:_X509Store_LoadCrl_m1881903843
Ygj:_Array_Sort_TisUICharInfo_t75501106_TisUICharInfo_t75501106_m722747892_gshared
qig:_CaseInsensitiveComparer__ctor_m2101975011
w9k:__Z67RuntimeInvoker_Byte_t1134296376_Int32_t2950945753_Int32_t2950945753PFvvEPK10MethodInfoPvPS4_
$7k:__Z53RuntimeInvoker_UInt32_t2560061978_Decimal_t2948259380PFvvEPK10MethodInfoPvPS4_
cc:invoke_viiiifiiiiif
lac:__Z18RestoreRenderStateR20CameraRenderOldStateR17ShaderPassContext
HMb:__Z18Transfer_BlittableI18StreamedBinaryReadILb1EELb1E5RectTIfEEvRK29SerializationCommandArgumentsR31RuntimeSerializationCommandInfo
zIb:__Z18Transfer_BlittableI24GenerateTypeTreeTransferLb0E11ColorRGBA32EvRK29SerializationCommandArgumentsR31RuntimeSerializationCommandInfo
sRb:__Z25scripting_class_from_name17ScriptingImagePtrPKcS1_
Npi:_Array_InternalArray__IndexOf_TisKeyValuePair_2_t3699644050_m1021241249_gshared
vlk:__ZN14dense_hash_mapI10KeyWrapperINSt3__24pairIPK12PropertyInfoP11Il2CppClassEEEj17ReflectionMapHashIS8_ENS9_14EqualsComparerINS1_8equal_toIS8_EEEENS1_9allocatorINS2_IKS9_jEEEEE15set_deleted_keyERSH_
TSb:__Z29scripting_class_enum_basetype17ScriptingClassPtr
npd:__ZN5physx6shdfnd8PoolBaseINS_2Sc10NPhaseCore16ClothListElementENS0_19ReflectionAllocatorIS4_EEE17releaseEmptySlabsEv
HRh:_OidCollection_get_SyncRoot_m3531934854
m5:__ZNK12BaseRenderer18GetRenderNodeCountEv
Wfc:__ZN13TrailRenderer21PrepareDispatchUpdateER13RendererScene10MemLabelId
WZf:_PropertyBuilder_get_CanWrite_m2657562188
mye:__ZN5physx2Gu15EdgeListBuilderC2Ev
u6g:_InternalEnumerator_1_get_Current_m1477715453_gshared
jFi:_Enumerator__ctor_m2827156589_AdjustorThunk
Wzb:__ZNK20LocalFileSystemPosix6ParentERK13FileEntryDataRN4core12basic_stringIcNS3_20StringStorageDefaultIcEEEE
k$k:_RectTransform_GetWorldCorners_m3553547973
Lze:__ZN5physx7Cooking20loadTriangleMeshDescERKNS_18PxTriangleMeshDescERNS_19TriangleMeshBuilderE
B9i:_Collection_1_System_Collections_IList_Remove_m1476284619_gshared
xFh:_ContractionComparer__ctor_m3439667810
fDg:_MonoType_IsPrimitiveImpl_m2401722705
_ai:_SHA1CryptoServiceProvider__ctor_m4195188793
qsd:__ZN5physx9NpFactory21releaseConnectorArrayEPNS_16NpConnectorArrayE
fQk:_CSSMeasureFunc_BeginInvoke_m3802154595
DOf:_Graphic_get_defaultGraphicMaterial_m3107284931
$ce:__ZNK5physx2Gu29EPASupportMapPairRelativeImplINS0_9TriangleVENS0_4BoxVEE6getDirEv
Mhc:__Z13RegisterClassI12InputManagerEvv
SVa:__ZN17PersistentManager22CheckInstanceIDsLoadedEPii
oEg:_NumberFormatter_NumberToString_m264078176
Nli:_Array_InternalArray__ICollection_Remove_TisLink_t3209266973_m897088622_gshared
N3k:_Vector2_get_up_m2647420593
KFa:__ZN7ApiGLES17CopyBufferSubDataEjjlll
Usi:_Array_InternalArray__ICollection_CopyTo_TisUInt64_t4134040092_m691431926_gshared
f9i:__ZN23InterfaceActionInvoker2Ii22OrderBlock_t1585977831E6InvokeEjP11Il2CppClassP12Il2CppObjectiS0_
KPh:_IPAddress_ToString_m1181734207
BMi:_StringBuilder_Append_m1965104174
TJc:__ZN5Unity9rapidjson15GenericDocumentINS0_4UTF8IcEE13JSONAllocatorS4_E11ParseStreamILj1ES3_NS0_25GenericInsituStringStreamIS3_EEEERS5_RT1_
w2j:__ZNSt3__26vectorIPK10Il2CppTypeNS_9allocatorIS3_EEE7reserveEj
gzi:_EqualityComparer_1__cctor_m3766928733_gshared
s2b:__ZN25CameraStackRenderingState20GetOrCreateBuiltinRTE24BuiltinRenderTextureTypeii17DepthBufferFormat19RenderTextureFormatj22RenderTextureReadWrite14VRTextureUsagei
vxj:_UnityAction_1_Invoke_m610765085_gshared
oX:__ZN11AudioModule26SetDefaultMicrophoneDriverEPv
GRd:__ZNK5physx15NpActorTemplateINS_15PxParticleFluidEE22getClientBehaviorFlagsEv
FKg:_Kernel_modInverse_m652700340
xkb:__ZNK14Texture2DArray26CanReuploadDataToGfxDeviceEv
H6b:__ZN17PrePassRenderLoop14RenderBasePassEP13RenderTextureRK14LightingLayersR13dynamic_arrayI16RenderObjectDataLj4EERbR10MinMaxAABB
G_a:__ZN17GlobalGameManager23VirtualRedirectTransferER17RemapPPtrTransfer
a$e:_sfnt_stream_close
vHc:__ZN5IMGUI18RepaintModalWindowER8GUIState
hNh:_HybridDictionary_get_IsSynchronized_m2987560362
vvi:_Dictionary_2__ctor_m3638779579_gshared
Mda:__ZNK15dense_hashtableINSt3__24pairIKN9ShaderLab7Program23ShaderKeywordSetAndHashEPKNS2_10SubProgramEEES4_NS3_24ShaderKeywordHashFunctorEN14dense_hash_mapIS4_S8_SA_NS0_8equal_toIS4_EE13stl_allocatorIS9_L18MemLabelIdentifier67ELi16EEE9SelectKeyESD_SG_E23find_position_with_hashERS5_j
A6h:_CompareInfo_Finalize_m404687489
gjb:__Z23SetSpriteMeshIndexCountP14SharedMeshDataj
xOi:_UTF8Decoder_GetChars_m1236346907
K1k:_TouchScreenKeyboard_Open_m231964201
hbb:__ZN7Texture13SetFilterModeEi
VYk:_Quaternion_GetHashCode_m2636680144_AdjustorThunk
MWb:__ZNSt3__26vectorINS_4pairIiN17InstancingBatcher12PropertyTypeEEE13stl_allocatorIS4_L18MemLabelIdentifier1ELi16EEE21__push_back_slow_pathIKS4_EEvRT_
D3l:__ZL99AudioSource_t3935305588_CustomAttributesCacheGenerator_AudioSource_t3935305588____clip_PropertyInfoP21CustomAttributesCache
tCk:__ZN6il2cpp8metadata13GenericMethod9GetMethodEPK19Il2CppGenericMethod
Br:__ZNSt3__26vectorIN4core12basic_stringIcNS1_20StringStorageDefaultIcEEEENS_9allocatorIS5_EEE7reserveEj
UTf:_Default_SelectProperty_m1220817815
Voh:_RemotingConfiguration_IsRemotelyActivatedClientType_m4117048589
m$k:_Transform_TransformPoint_m226827784
Rzj:_ListPool_1_Get_m738675669_gshared
Dza:__ZN13GfxDeviceGLES11SetViewportERK5RectTIiE
l6c:__Z19UpdateSingleRow2TplIL27ParticleSystemCurveEvalMode3ELS0_2EEvfRK11MinMaxCurveS3_RK23ParticleSystemParticlesPfbiii
uRe:__ZN21TreeBinaryTreeBuilder18CalculatePosBoundsERKNSt3__26vectorI12TreeInstanceNS0_9allocatorIS2_EEEERK13dynamic_arrayIjLj4EERK8Vector3fSE_
KDc:__Z24Time_Get_Custom_PropTimev
Ub:invoke_vifiiii
ve:_emscripten_glDepthRange
oVg:_SslStreamBase_BeginNegotiateHandshake_m4180435790
_ad:__ZN5physx2Gu24contactConvexHeightfieldERKNS0_13GeometryUnionES3_RKNS_11PxTransformES6_RKfRNS0_5CacheERNS0_13ContactBufferE
Ttd:__ZN5physx6shdfnd5ArrayIPvNS0_19ReflectionAllocatorINS_2Cm5BlockIS2_Lj8EEEEEE15growAndPushBackERKS2_
Acc:__ZNSt3__26vectorINS_4pairIN4core12basic_stringIcNS2_20StringStorageDefaultIcEEEES6_EE13stl_allocatorIS7_L18MemLabelIdentifier38ELi16EEE12__move_rangeEPS7_SC_SC_
Nsa:__Z14resize_trimmedINSt3__26vectorIN9ShaderLab20SerializedSubProgram12UAVParameterENS0_9allocatorIS4_EEEEEvRT_j
lKc:__ZN5Unity9rapidjson13GenericReaderINS0_4UTF8IcEES3_13JSONAllocatorE11ParseObjectILj1ENS0_25GenericInsituStringStreamIS3_EENS0_15GenericDocumentIS3_S4_S4_EEEEvRT0_RT1_
Wrc:__Z10DestripifyPKjjRNSt3__26vectorIj13stl_allocatorIjL18MemLabelIdentifier1ELi16EEEE
OHf:_StandaloneInputModule_GetRawMoveVector_m2737091079
wuc:__ZN13BuildSettings34ConvertScenePathToDisplayScenePathERKN4core12basic_stringIcNS0_20StringStorageDefaultIcEEEE
xzf:__ZN5physx2Sn21RepXVisitorReaderBaseINS_21PxVehicleDriveSimDataEE15complexPropertyINS_22PxRepXPropertyAccessorILj665ES2_RKNS_19PxVehicleClutchDataES6_EEKNS_32PxVehicleClutchDataGeneratedInfoEEEvPjRKT_RT0_
HVg:_SslStreamBase_EndWrite_m4073224031
jba:__ZNSt3__218__insertion_sort_3IRNS_6__lessI14ObjectLoadDataS2_EEPS2_EEvT0_S6_T_
P3l:__ZL92Event_t2956885303_CustomAttributesCacheGenerator_Event_Internal_GetMousePosition_m1101229675P21CustomAttributesCache
uYi:_List_1_System_Collections_ICollection_get_SyncRoot_m1244917400_gshared
AHa:__ZN4crndL20crnd_default_reallocEPvjPjbS0_
bwl:__Z54RuntimeInvoker_CustomAttributeNamedArgument_t287865710PFvvEPK10MethodInfoPvPS4_
dsm:__ZNSt3__212basic_stringIcNS_11char_traitsIcEENS_9allocatorIcEEEC2ERKS5_
bie:__ZN5physx24PxsComputeAABBLocalSpaceERKNS_18PxcAABBDataDynamicERNS_9PxBounds3E
Yjb:__ZN18SpriteAtlasManager19AddRequestingSpriteE4PPtrI6SpriteE
esc:__ZN16PackedQuatVector9PackQuatsEP11Quaternionfi
vDc:__Z33Texture_CUSTOM_Internal_GetHeightP12Il2CppObject
woc:__Z20IsValidRealtimeLightRK15SharedLightData9LightTypej
o4l:__ZL102GUIStyle_t3956901511_CustomAttributesCacheGenerator_GUIStyle_INTERNAL_CALL_GetRectOffsetPtr_m152975056P21CustomAttributesCache
g_h:_DateTime__ParseDateSeparator_m1803046501
uoc:__Z23AddIntermediateRendererP20IntermediateRendererRKi
VU:__ZNK4PPtrI9AudioClipEptEv
Beh:_ValueCollection_System_Collections_ICollection_get_SyncRoot_m3381653267_gshared
dBg:_UnmanagedMemoryStream_Write_m930787521
q9b:__ZN23ScriptableRenderContextC2Ev
zz:__ZN7mecanim9animation18ClipMuscleConstant8TransferI24GenerateTypeTreeTransferEEvRT_
iQf:_GridLayoutGroup_get_spacing_m2409263614
T0a:__ZN4PPtrI13RenderTextureE8TransferI18StreamedBinaryReadILb0EEEEvRT_
udh:_Enumerator_MoveNext_m3051926902_gshared
mIi:_List_1_CheckIndex_m581273900_gshared
W0e:_UNITY_FT_Stream_GetChar
ENj:_GUIStyle_get_fixedWidth_m2576616348
gAj:_ObjectPool_1_get_countAll_m819305395_gshared
gNb:__Z18Transfer_BlittableI18StreamedBinaryReadILb1EELb1EdEvRK29SerializationCommandArgumentsR31RuntimeSerializationCommandInfo
T_i:_List_1_ToArray_m190175978_gshared
Cae:__ZN5physx6shdfnd8internal8HashBaseINS0_4PairIKNS_2Sq13PrunerPayloadEjEES5_NS0_4HashIS5_EENS1_11HashMapBaseIS5_jS9_NS0_9AllocatorEE6GetKeyESB_Lb1EE5eraseERS6_
$Sb:__Z26BuildSerializationCacheFor17ScriptingClassPtrRb
RDf:_EventSystem_get_firstSelectedGameObject_m1576206896
KNa:__ZN7ApiGLES15BlitFramebufferEN2gl6HandleILNS0_10ObjectTypeE9EEENS0_15FramebufferReadES3_S3_iiiiiiiiNS0_15FramebufferTypeE
uue:__ZN5physx13GuMeshFactory16createConvexMeshERNS_13PxInputStreamE
aFe:__ZN5physx6shdfnd8internal8HashBaseINS0_4PairIKPKcjEES5_NS0_4HashIS5_EENS1_11HashMapBaseIS5_jS9_NS_7profile26WrapperReflectionAllocatorIjEEE6GetKeyESD_Lb1EE6createERS6_Rb
cXj:__ZL25UnresolvedVirtualCall_241P12Il2CppObjecti19Vector4_t3319028937PK10MethodInfo
_il:__Z112RuntimeInvoker_RuntimeObject_RuntimeObject_RuntimeObject_RuntimeObject_RuntimeObject_RuntimeObject_RuntimeObjectPFvvEPK10MethodInfoPvPS4_
y1c:__ZN15CollisionModule5ResetEv
J5g:_InternalEnumerator_1_System_Collections_IEnumerator_get_Current_m3553395619_AdjustorThunk
cEl:__ZL70AssemblyVersionCompatibility_t766556580_CustomAttributesCacheGeneratorP21CustomAttributesCache
f9l:__ZL64StandaloneInputModule_t2760469101_CustomAttributesCacheGeneratorP21CustomAttributesCache
bag:_Array_SetValue_m3998268557
Mjh:_ServerContextTerminatorSink__ctor_m2519287841
EKf:_ColorBlock_set_highlightedColor_m2089444414_AdjustorThunk
Vrl:__Z59RuntimeInvoker_Boolean_t97287965_X509ChainStatus_t133602714PFvvEPK10MethodInfoPvPS4_
Y_k:_RectTransform_INTERNAL_set_anchoredPosition_m939517950
$Rg:_Context_EndSwitchingSecurityParameters_m4148956166
_Xe:_otv_PairPos_validate
YNl:__ZL63ThreadStateException_t3003788475_CustomAttributesCacheGeneratorP21CustomAttributesCache
uE:__ZN7mecanim9animation14CopyHumanPosesEPKNS0_18AnimationNodeStateEPS1_RKNS_6bitsetILj83EEE
lbk:__ZN6il2cpp6icalls8mscorlib6SystemL8IsStaticEPK12PropertyInfo
qUb:__Z9InitInputv
Hkk:__ZN30dense_hashtable_const_iteratorINSt3__24pairIK10KeyWrapperIPK22Il2CppGenericParameterEPK24MonoGenericParameterInfoEES6_N6il2cpp5utils11PointerHashIS4_EEN14dense_hash_mapIS6_SA_SF_NS6_14EqualsComparerINS0_8equal_toIS5_EEEENS0_9allocatorISB_EEE9SelectKeyESK_SM_E30advance_past_empty_and_deletedEv
xJb:__Z29Transfer_Blittable_ArrayFieldI24GenerateTypeTreeTransfer11ColorRGBA32EvRT_R9ArrayInfoRK23StaticTransferFieldInfo
Wvf:__ZN5physx18addTorqueCurvePairEPNS_19PxVehicleEngineDataEff
sue:__ZNK5physx13GuMeshFactory15getConvexMeshesEPPNS_12PxConvexMeshEjj
Sgk:__ZN6il2cpp2gc19AppendOnlyGCHashMapINSt3__24pairIPK10MethodInfoP11Il2CppClassEEP22Il2CppReflectionMethod17ReflectionMapHashIS9_ENS2_8equal_toIS9_EEE3AddERKS9_SB_
$Ab:__ZN16MemoryFileSystem6DeleteER13FileEntryDatab
rcl:__Z81RuntimeInvoker_Void_t1185182177_RuntimeObject_Int64_t3736567304_Int32_t2950945753PFvvEPK10MethodInfoPvPS4_
xJi:_List_1_set_Item_m1979164443_gshared
wIa:__ZL21BlitScaleStbImageImplRK14ImageReferenceRS_NS_10ColorSpaceE
VId:__ZN5physx10NpMaterial17setStaticFrictionEf
eWc:__Z9UpdateTplIL27ParticleSystemCurveEvalMode0EEvRK11MinMaxCurveS3_S3_R23ParticleSystemParticlesjjRKN4math8float3x3ERKNS6_7_float4E
W1d:__ZNK5physx7NpScene18getStaticStructureEv
pLl:__ZL56HashAlgorithm_t1432317219_CustomAttributesCacheGeneratorP21CustomAttributesCache
s1d:__ZNK5physx7NpScene19getFilterShaderDataEv
fth:_InputField_get_keyboardType_m1248105267
qEb:__Z29Transfer_Blittable_ArrayFieldI14SafeBinaryReadyEvRT_R9ArrayInfoRK23StaticTransferFieldInfo
$U:__ZN20SoundChannelInstance15setChannelGroupEPN4FMOD12ChannelGroupE
EFj:_Match__ctor_m2425511580
MKh:_KeyPairPersistence_Remove_m1876145547
wof:__ZN5physx3Pvd17PvdPropertyFilterINS_2Sn17RepXVisitorReaderINS_22PxVehicleWheelsSimDataEEEE27handleExtendedIndexPropertyILj618ES4_NS_6PxVec3EKjNS_18PxUnknownClassInfoEEEvjRKNS_29PxExtendedIndexedPropertyInfoIXT_ET0_T2_T1_EERKT3_
YDd:__ZN5physx2Sc19ShapeInstancePairLL26onPoseChangedWhileSleepingEv
MUl:__ZL84Behaviour_t1437897464_CustomAttributesCacheGenerator_Behaviour_set_enabled_m20417929P21CustomAttributesCache
P1c:__ZN12LightsModule13AwakeFromLoadEP14ParticleSystemRK27ParticleSystemReadOnlyState
jce:__ZN5physx22PxcSweepCapsuleCapsuleERKNS_11PxsCCDShapeES2_PKNS_12PxsRigidBodyES5_RKNS_11PxTransformES8_S8_S8_fRNS_6PxVec3ESA_RNS_10PxcNpCacheERNS_18PxcNpThreadContextEf
Qc:invoke_vifffii
SPb:__Z35Transfer_Blittable_FixedBufferFieldI18StreamedBinaryReadILb0EEaEvRK29SerializationCommandArgumentsR31RuntimeSerializationCommandInfo
lsk:__ZN6il2cpp2vm9Exception27RaiseNullReferenceExceptionEv
bld:__ZNK5physx3Cct17CapsuleController21getHalfHeightInternalEv
JYa:__ZNK25MultiBlocksMemoryFileData5CloneEv
Y_g:_InternalEnumerator_1_System_Collections_IEnumerator_Reset_m3873091784_AdjustorThunk
$Hk:_GC_add_ext_descriptor
hfk:__ZNK15dense_hashtableINSt3__24pairIK10KeyWrapperINS1_IPK14Il2CppAssemblyP11Il2CppClassEEEjEES9_17ReflectionMapHashIS8_EN14dense_hash_mapIS9_jSD_NS9_14EqualsComparerINS0_8equal_toIS8_EEEENS0_9allocatorISB_EEE9SelectKeyESI_SK_E23find_position_with_hashERSA_j
mkd:__ZN5physx21PxQueryFilterCallbackD2Ev
Sij:_LayoutGroup_SetProperty_TisSingle_t1397266774_m793506911_gshared
bJk:__ZN6il2cpp2os14WindowsRuntime22GetRestrictedErrorInfoEv
FGg:_CryptoConfig_CreateFromName_m1538277313
Ysf:__ZNK5physx30PxVehicleTireDataGeneratedInfo23visitInstancePropertiesINS_18RepXPropertyFilterINS_2Sn17RepXVisitorWriterINS_17PxVehicleTireDataEEEEEEEjT_j
l5i:_Queue_1__ctor_m263978079_gshared
OXa:__ZN17ArchiveFileSystem11CreateAsDirER13FileEntryData
yrd:__ZL30GeomOverlapCallback_CapsuleBoxRKN5physx10PxGeometryERKNS_11PxTransformES2_S5_PNS_2Gu12TriggerCacheE
jum:dynCall_iiiiiiiiiiii
a3h:_DllNotFoundException__ctor_m3079838043
aLe:__Z38Rigidbody_CUSTOM_INTERNAL_get_velocityP12Il2CppObjectP8Vector3f
qth:_InputField_set_caretPositionInternal_m3823580651
STa:__ZN22VertexDeclarationCacheD0Ev
TCh:_Selectable_set_interactable_m3105888815
G5a:__ZL26KeywordSetToStringDontSortRKNSt3__26vectorIN4core12basic_stringIcNS1_20StringStorageDefaultIcEEEENS_9allocatorIS5_EEEERS5_
oKa:__ZN6prcoreL17RemapGenericFloatI16TexFormatRGFloat17TexFormatRGBAHalfEEvPKNS_9InnerInfoE
iP:__ZN12AudioManager22CreateFMODSoundFromWWWEP10IWWWStream15FMOD_SOUND_TYPE17FMOD_SOUND_FORMATjjbbP10SampleClip
jlc:__ZNK32RendererMaterialAnimationBinding15GenerateBindingERKN4core12basic_stringIcNS0_20StringStorageDefaultIcEEEEbRN11UnityEngine9Animation14GenericBindingE
X2f:_TargetException__ctor_m4172127019
PZi:_List_1_CheckCollection_m274117203_gshared
v7l:__ZL70EventSystem_t1003666588_CustomAttributesCacheGenerator_m_FirstSelectedP21CustomAttributesCache
F7:__ZN8Remapper23GetOrGenerateInstanceIDERK26SerializedObjectIdentifier
Qy:__ZN17AnimationCurveTplI8Vector3fEC2ERKS1_
qLf:_ColorTween_get_startColor_m3792586410_AdjustorThunk
VXa:__ZN17FileSystemHandler10AtomicMoveER13FileEntryDataS1_
jb:invoke_iiiiiifffiiifii
Y0l:__ZL106Physics_t2310948930_CustomAttributesCacheGenerator_Physics_Raycast_m3101461809____queryTriggerInteraction5P21CustomAttributesCache
o9k:__Z85RuntimeInvoker_Void_t1185182177_Int32_t2950945753_Int32_t2950945753_Int32_t2950945753PFvvEPK10MethodInfoPvPS4_
dqh:_BinaryFormatter_get_SurrogateSelector_m2111882017
cUh:_X509Chain__ctor_m2878811474
F6f:_X509CertificateCollection__ctor_m3365535796
MRf:_CustomInfo__ctor_m426096741
hEf:_EventSystem_ToString_m3779610692
rjb:__ZN6Sprite8TransferI24GenerateTypeTreeTransferEEvRT_
FZg:_InternalEnumerator_1_get_Current_m2223614542_AdjustorThunk
JEc:__Z48Register_UnityEngine_Transform_SetAsFirstSiblingv
R0g:_InternalEnumerator_1_System_Collections_IEnumerator_get_Current_m694606607_gshared
ujb:__ZN7SubMesh8TransferI24GenerateTypeTreeTransferEEvRT_
nBd:__ZNK5physx19NpArticulationJoint28getTwistLimitContactDistanceEv
QJj:_Literal_IsComplex_m4067122560
mck:_NativeTypeAttribute__ctor_m133676646
_9c:__ZN5physx3Cct10Controller6setPosERKNS_14PxExtendedVec3E
QXb:__ZN19GfxThreadableDevice20SetShadersThreadableEPP10GpuProgramPPK20GpuProgramParametersPKPKh
pcj:_Collection_1_System_Collections_IList_Contains_m296643274_gshared
fcd:__ZN5physx2GuL14testFaceNormalERKNS0_13PolygonalDataES3_PNS0_12SupportLocalES5_RKNS_6shdfnd3aos15PsMatTransformVESA_RKNS7_6FloatVERSB_RjRNS7_5Vec3VENS0_13FeatureStatusERSI_
gvg:_DirectoryInfo__ctor_m126519516
v$f:_MethodBase_GetMethodFromIntPtr_m3014201362
H9i:__ZN21InterfaceFuncInvoker1I19Color32_t2600501292iE6InvokeEjP11Il2CppClassP12Il2CppObjecti
L3g:_InternalEnumerator_1_get_Current_m2315302778_AdjustorThunk
UIj:_Reference_get_CapturingGroup_m3861468528
iA:__ZN7mecanim5human9HumanGoal8TransferI18StreamedBinaryReadILb0EEEEvRT_
X8k:__Z40RuntimeInvoker_TypeAttributes_t113483779PFvvEPK10MethodInfoPvPS4_
vvc:__ZN9Transform23SetSiblingIndexInternalEib
yjm:_MobileInput__ctor_m1458281675
B_i:_List_1_Clear_m1143167521_gshared
Z_f:_AddEventAdapter__ctor_m2428277574
Erd:__ZL32GeomOverlapCallback_ConvexConvexRKN5physx10PxGeometryERKNS_11PxTransformES2_S5_PNS_2Gu12TriggerCacheE
mej:_Collection_1_SetItem_m794903769_gshared
ylg:_Enumerator_MoveNext_m635366482
U6f:_X509Extension_Equals_m1222951829
OC:__ZN7mecanim5human12HumanPoseSubERNS0_9HumanPoseERKS1_S4_
Lxl:__Z37RuntimeInvoker_Enumerator_t1789501480PFvvEPK10MethodInfoPvPS4_
rwk:__ZN6il2cpp8metadata15GenericMetadata15GetGenericClassEiPK17Il2CppGenericInst
yfg:_Char_GetTypeCode_m2433327340_AdjustorThunk
RCb:__Z18Transfer_BlittableI14SafeBinaryReadLb0E10Matrix4x4fEvRK29SerializationCommandArgumentsR31RuntimeSerializationCommandInfo
qSb:__Z24GetFixedBehaviourManagerv
nAl:__ZL69IntPtr_t_CustomAttributesCacheGenerator_IntPtr_op_Equality_m408849716P21CustomAttributesCache
hak:__ZN6il2cpp2vm10ThreadPool4WaitEP17Il2CppAsyncResultPPv
RMh:_PKCS12_Encrypt_m2617413749
qpm:_vfprintf
UHc:__ZN10GUIManager12AddGUIScriptER8ListNodeI13MonoBehaviourE
W3h:_NumberFormatInfo_get_PositiveInfinitySymbol_m1141345134
Nlg:_Stack_Clear_m2010200235
Zcb:__ZL13SortTexByNameRKNSt3__24pairIN9ShaderLab16FastPropertyNameEN18UnityPropertySheet11UnityTexEnvEEES7_
EUe:_cf2_getVStore
ZFf:_PointerEventData_set_pointerPressRaycast_m1363193059
o0b:__ZN20DynamicPropertySheetD0Ev
n5f:_SafeHandle_Dispose_m4229010569
Ecc:__ZN14SafeBinaryRead17RegisterConverterEPKcS1_PFbPvRS_E
f_l:__ZL77RuntimePlatform_t4159857903_CustomAttributesCacheGenerator_OSXDashboardPlayerP21CustomAttributesCache
_ha:__ZN35RegisterRuntimeInitializeAndCleanup8RegisterEPFvPvES2_iS0_
XWd:__ZNK5physx19NpRigidBodyTemplateINS_14PxRigidDynamicEE17getRigidBodyFlagsEv
AXf:_FieldBuilder_SetValue_m828035213
Zs:__ZN7mecanim6memory16ChainedAllocator7ReserveEj
Xti:_Array_InternalArray__Insert_TisSingle_t1397266774_m3161726127_gshared
sqj:_ReadOnlyCollection_1_System_Collections_IList_get_IsFixedSize_m733459177_gshared
O8a:__ZN20SphericalHarmonicsL215AddAmbientLightERK10ColorRGBAf
KAl:__ZL72Enum_t4135868527_CustomAttributesCacheGenerator_Enum_ToObject_m121962870P21CustomAttributesCache
XIi:__ZN23InterfaceActionInvoker2IP24ObjectU5BU5D_t2843939325iE6InvokeEjP11Il2CppClassP12Il2CppObjectS1_i
V7c:__ZN14ParticleSystem23UpdateLateTransformDataEv
nce:__ZN5physx25PxcSweepConvexHeightfieldERKNS_11PxsCCDShapeES2_PKNS_12PxsRigidBodyES5_RKNS_11PxTransformES8_S8_S8_fRNS_6PxVec3ESA_RNS_10PxcNpCacheERNS_18PxcNpThreadContextEf
NEc:__Z21Object_CUSTOM_DestroyP12Il2CppObjectf
v_l:__ZL99SetupCoroutine_t2062820429_CustomAttributesCacheGenerator_SetupCoroutine_InvokeMoveNext_m3199342729P21CustomAttributesCache
qya:__ZN8Material26ResetAllCachedMaterialDataEP6Shader
jgl:__Z63RuntimeInvoker_Void_t1185182177_RuntimeObject_Int16_t2552820387PFvvEPK10MethodInfoPvPS4_
g1e:_UNITY_TT_Get_MM_Var
orh:_ObjectManager_AddFixup_m2154325362
L7g:_Comparer_1__cctor_m3761458313_gshared
__h:_DateTimeOffset_CompareTo_m1350732322_AdjustorThunk
aa:invoke_diddi
f9e:__ZNK2UI6Canvas13GetRenderModeEv
URk:_PersistentCall__ctor_m1217622171
Soi:_Array_compare_TisCustomAttributeTypedArgument_t2723150157_m1384644047_gshared
$qm:_unlink
wt:__Z32TransferEnumWithNameForceIntSizeI14SafeBinaryRead28TransitionInterruptionSourceEvRT_RT0_PKc17TransferMetaFlags
aCb:__Z18Transfer_BlittableI14SafeBinaryReadLb0EiEvRK29SerializationCommandArgumentsR31RuntimeSerializationCommandInfo
V8j:__ZN6il2cpp2vm13MetadataCache30GetPropertyDefinitionFromIndexEi
aPj:_SymmetricTransform_Transform_m1683494363
$Vd:__ZN5physx14NpRigidDynamic7releaseEv
Rff:__ZN22BaseUnityConnectClient17InitializeSessionERKN4core12basic_stringIcNS0_20StringStorageDefaultIcEEEES6_N19CloudServiceHandler13InitModeFlagsE
Uml:__Z74RuntimeInvoker_RuntimeObject_Int32_t2950945753_RuntimeObject_RuntimeObjectPFvvEPK10MethodInfoPvPS4_
D8d:__ZN5physx6shdfnd8PoolBaseINS_21PxsBodyTransformVault13PxsBody2WorldENS0_19ReflectionAllocatorIS3_EEE15disposeElementsEv
J3i:_List_1_get_Item_m200663048_gshared
Fnh:_ReturnMessage_get_Exception_m3375728265
ku:__ZN15SerializeTraitsI9OffsetPtrIN7mecanim9animation23BlendDirectDataConstantEEE8TransferI24GenerateTypeTreeTransferEEvRS4_RT_
QAm:_emscripten_glDeleteBuffers__wrapper
K7k:__Z52RuntimeInvoker_Boolean_t97287965_Decimal_t2948259380PFvvEPK10MethodInfoPvPS4_
W0g:_InternalEnumerator_1_MoveNext_m3664960764_AdjustorThunk
vxc:__ZN13MonoBehaviour34StopCoroutineFromEnumeratorManagedE18ScriptingObjectPtr
Ack:_WheelCollider_GetWorldPose_m1498503109
hYi:_List_1__ctor_m1345008423_gshared
e$e:_gray_raster_reset
hid:__ZN5physx2Gu30computeCapsule_TriangleMeshMTDERKNS_22PxTriangleMeshGeometryERKNS_11PxTransformERNS0_8CapsuleVEffbRNS_10PxSweepHitE
rub:__ZN30RuntimeInitializeOnLoadManager8TransferI18StreamedBinaryReadILb0EEEEvRT_
k_h:_DateTimeOffset__ctor_m2084804982
vZe:_UNITY_tt_face_load_pclt
OBb:__ZN9profiling17ScriptingProfiler31UpdateRegisteredScriptingEventsEv
Qwc:__ZL34GetComponentsImplementationRecurseILb1ELi0ELi2EEbR10GameObjectbRK17CompareParametersRK39GetComponentsImplementation_ReturnValue
Xse:__ZN5physx2Sc14ConstraintCore10breakApartEv
$Pa:__ZN20ComputeShaderVariantD2Ev
qUk:_Material_GetTexture_m3545614349
Q$d:__ZThn8_N5physx2Sc19ShapeInstancePairLL10onActivateEj
a7k:__Z64RuntimeInvoker_RuntimeObject_Int32_t2950945753_Int16_t2552820387PFvvEPK10MethodInfoPvPS4_
U0c:__ZN16CustomDataModule8TransferI19StreamedBinaryWriteILb0EEEEvRT_
iJh:_ASN1_get_Length_m1923878580
cAi:_EqualityComparer_1__cctor_m4244842342_gshared
L$b:__ZNK6Camera18WorldToScreenPointERK8Vector3fPb
tie:__ZN5physx2Cm12DelegateTaskINS_10PxsContextEXadL_ZNS2_28mergeCMDiscreteUpdateResultsEPNS_10PxBaseTaskEEEE11runInternalEv
u0k:_SendMouseEvents_DoSendMouseEvents_m2140870850
gze:__ZN5physx19TriangleMeshBuilder10importMeshERKNS_18PxTriangleMeshDescERKNS_15PxCookingParamsEb
Njm:_CrossPlatformInputManager_SetAxis_m1144576044
TMa:__Z18IsCompressedFormat14GraphicsFormat
hD:__ZN7mecanim9animation19AdjustPoseForMotionERKNS0_14AvatarConstantERKNS0_14SkeletonTQSMapERKN4math4trsXERNS_10ValueArrayERNS_8skeleton13SkeletonPoseTIS8_EESG_
Frh:_SerializationEntry_get_Name_m1530029541_AdjustorThunk
dV:__ZN11AudioSource19ApplyMinMaxDistanceERKNS_14ParameterCacheE12SoundChannel
iRi:__Z33il2cpp_codegen_check_add_overflowxx
H6:__ZNSt3__227__insertion_sort_incompleteIRPFbRKN18AwakeFromLoadQueue4ItemES4_EPS2_EEbT0_S9_T_
Nml:__Z71RuntimeInvoker_Boolean_t97287965_AnimatorControllerPlayable_t1015767841PFvvEPK10MethodInfoPvPS4_
f0f:_TargetInvocationException__ctor_m3011316584
zug:_InvalidOperationException__ctor_m1685032583
V6j:__ZN14dense_hash_mapI10KeyWrapperIN6il2cpp5utils13dynamic_arrayIPK10Il2CppTypeLj4EEEEPFvvENS1_8metadata19Il2CppSignatureHashENS8_14EqualsComparerINSB_22Il2CppSignatureCompareEEENSt3__29allocatorINSG_4pairIKS8_SA_EEEEE15set_deleted_keyERSJ_
QRi:_TimeSpan_op_Subtraction_m3592306516
aCi:_EqualityComparer_1_System_Collections_IEqualityComparer_GetHashCode_m1517903420_gshared
aPd:__ZN5physx6shdfnd5ArrayINS_18PxClothFabricPhaseENS0_19ReflectionAllocatorIS2_EEE8recreateEj
Tgb:__ZN26EnlightenSystemInformation8TransferI14SafeBinaryReadEEvRT_
i1c:__ZN13InitialModule5ResetEv
wtb:__ZN24GenerateTypeTreeTransfer8TransferINSt3__26vectorIN15ResourceManager10DependencyE13stl_allocatorIS4_L18MemLabelIdentifier52ELi16EEEEEEvRT_PKc17TransferMetaFlags
cxf:__ZN5physx18RepXPropertyFilterINS_2Sn17RepXVisitorReaderINS_21PxVehicleDriveDynDataEEEEclILj656ES3_jjEEvRKNS_14PxPropertyInfoIXT_ET0_T1_T2_EEj
mRl:__ZL59StringComparison_t3657712135_CustomAttributesCacheGeneratorP21CustomAttributesCache
hZj:_CanvasRenderer_SplitUIVertexStreams_m2753637362
Lol:__Z119RuntimeInvoker_Void_t1185182177_RuntimeObject_Single_t1397266774_Single_t1397266774_SByte_t1669577662_Int32_t2950945753PFvvEPK10MethodInfoPvPS4_
ehf:__ZN11UnityEngine15PlatformWrapper20SetPlayerPrefsUInt64ERKN4core12basic_stringIcNS1_20StringStorageDefaultIcEEEEy
Tnb:__ZN12MeshRendererD0Ev
DY:__ZN12AudioManager35GetCurrentSpatializerDefinitionNameEv
lgd:__ZN5physx2Gu16sweepBoxTriangleERKNS_10PxTriangleERKNS_9PxBounds3ERKNS_6PxVec3ES9_RS7_SA_Rf
P1k:_TouchScreenKeyboard_get_active_m4267591905
dkk:__ZNK15dense_hashtableINSt3__24pairIK10KeyWrapperIPK14Il2CppAssemblyEPK22Il2CppMonoAssemblyNameEES6_N6il2cpp5utils11PointerHashIS4_EEN14dense_hash_mapIS6_SA_SF_NS6_14EqualsComparerINS0_8equal_toIS5_EEEENS0_9allocatorISB_EEE9SelectKeyESK_SM_E8min_sizeEjj
gi:_utime
Sze:__ZN5physx10writeChunkEaaaaRNS_14PxOutputStreamE
YIj:_BalancingGroup_Compile_m2575117193
$J:__Z28SetExposedSkeletonTransformsRKN7mecanim9animation14AvatarConstantERKN11UnityEngine9Animation30AnimatorGenericBindingConstantERKNS_8skeleton13SkeletonPoseTIN4math4trsXEEERKNSA_INSB_7affineXEEERNS5_21AvatarBindingConstantEy
mak:__ZN6il2cpp6icalls8mscorlib6System8MonoType18IsGenericParameterEPK10Il2CppType
oek:__ZNSt3__26vectorIN6il2cpp2vm17TypeNameParseInfoENS_9allocatorIS3_EEE8allocateEj
Bjh:_Context_NotifyDynamicSinks_m1841702879
zFj:_Mark_get_Index_m3048692661_AdjustorThunk
nBj:_TlsServerSettings_get_CertificateRequest_m842655670
Fn:FUNCTION_TABLE_viiiiif
Btf:__ZN5physx3Pvd17PvdPropertyFilterINS_2Sn17RepXVisitorWriterINS_23PxVehicleSuspensionDataEEEE14handleAccessorILj593ENS_22PxRepXPropertyAccessorILj593ES4_ffEEEEvRKT0_
p7g:_DefaultComparer_Compare_m3931992727_gshared
ro:FUNCTION_TABLE_viiiiii
l6g:_InternalEnumerator_1_System_Collections_IEnumerator_get_Current_m1847780851_AdjustorThunk
nsg:_Int32_System_IConvertible_ToType_m3009233912_AdjustorThunk
l_h:_DateTimeOffset__ctor_m74032857
PFd:__ZN5physx2Sc9RigidCore13onShapeChangeERNS0_9ShapeCoreENS_7PxFlagsINS0_21ShapeChangeNotifyFlag4EnumEjEENS4_INS_11PxShapeFlag4EnumEhEE
BL:__ZN7mecanim9animation22DestroyAvatarWorkspaceEPNS0_15AvatarWorkspaceERNS_6memory9AllocatorE
JSi:_Type_type_is_assignable_from_m76737532
myh:_MaskableGraphic_ParentMaskStateChanged_m1092090553
zTd:__ZN5physx6shdfnd5ArrayIPvNS0_15InlineAllocatorILj256ENS0_19ReflectionAllocatorINS_2Sc19ParticlePacketShapeEEEEEE15growAndPushBackERKS2_
See:__ZN5physx17solveContactBlockEPKNS_23PxcSolverConstraintDescEjRNS_16PxcSolverContextE
$ze:__ZN5physx6shdfnd10FoundationD2Ev
L6b:__ZN15LightmapSTCacheC2ER13BatchRendererR15RenderLoopStats
wdb:__ZN14PlayableOutput17SetSourcePlayableEP8Playable
jub:__ZNSt3__26vectorIN4core12basic_stringIcNS1_20StringStorageDefaultIcEEEE13stl_allocatorIS5_L18MemLabelIdentifier13ELi16EEE8__appendEj
tVk:_Mesh_Internal_Create_m2853543051
RK:__ZN7mecanim9animation29MotionOutputGetDeltaTransformEPKNS0_12MotionOutputE
TQl:__ZL64MissingFieldException_t1989070983_CustomAttributesCacheGeneratorP21CustomAttributesCache
RBj:_ValidationResult_get_ErrorCode_m1533688152
aEc:__Z43Transform_CUSTOM_INTERNAL_get_localRotationP12Il2CppObjectP11Quaternionf
_8d:__ZN5physx2Sc10NPhaseCoreD2Ev
Btd:__ZN5physx2Sc7BodySim18onConstraintDetachEv
G7l:__ZL77ExecuteEvents_t3484638744_CustomAttributesCacheGenerator_U3CU3Ef__mgU24cache3P21CustomAttributesCache
Qel:__Z50RuntimeInvoker_Int64_t3736567304_SByte_t1669577662PFvvEPK10MethodInfoPvPS4_
v4l:__ZL87GUIStyle_t3956901511_CustomAttributesCacheGenerator_GUIStyle_SetDefaultFont_m1581452579P21CustomAttributesCache
Zck:__ZN6il2cpp2os4File9SetLengthEPNS0_10FileHandleExPi
gmc:__ZZL23RegisterLightPropertiesR22GenericPropertyBindingEN20Wrapper_LightColorr013SetFloatValueEPvf
Zqh:_ObjectReader_ReadObjectGraph_m340866276
Ech:_Transform_1_EndInvoke_m2716226219_gshared
Li:_emscripten_glGetTexParameteriv
Hil:__Z240RuntimeInvoker_RuntimeObject_Int16_t2552820387_RuntimeObject_Int32_t2950945753_Int32_t2950945753_Int32_t2950945753_SByte_t1669577662_SByte_t1669577662_SByte_t1669577662_SByte_t1669577662_Int16_t2552820387_SByte_t1669577662_SByte_t1669577662PFvvEPK10MethodInfoPvPS4_
y1d:__ZN5physx7NpScene8simulateEfPNS_10PxBaseTaskEPvjb
rAm:_glGenTextures__wrapper
d0d:__ZThn8_N5physx2Sc24ElementInteractionMarker10onActivateEj
jNi:_UnicodeEncoding_GetHashCode_m354003420
ita:__ZN9ShaderLab20SerializedSubProgram14ConstantBufferaSERKS1_
Shc:__Z13RegisterClassI4MeshEvv
G2l:__ZL74SharedBetweenAnimatorsAttribute_t2857104338_CustomAttributesCacheGeneratorP21CustomAttributesCache
$4h:_Enum_Equals_m3617313991
Fkl:__Z98RuntimeInvoker_Boolean_t97287965_PlayableOutputHandle_t4208053793_PlayableOutputHandle_t4208053793PFvvEPK10MethodInfoPvPS4_
erl:__Z74RuntimeInvoker_Boolean_t97287965_LineTypeU26_t2430394419_Int32_t2950945753PFvvEPK10MethodInfoPvPS4_
Uab:__ZN8PlayableD0Ev
dh:emscriptenWebGLGetBufferBinding
NQ:__ZN12AudioManager8TransferI19StreamedBinaryWriteILb0EEEEvRT_
uNf:_Dropdown_Hide_m504034854
QYj:_CanvasGroup_IsRaycastLocationValid_m2128397950
uDh:_Slider_UpdateCachedReferences_m3259451627
vVg:_SslStreamBase_get_KeyExchangeStrength_m217695965
vFj:_LinkStack_Pop_m4048583474
mdl:__Z60RuntimeInvoker_Void_t1185182177_StreamingContext_t3711869237PFvvEPK10MethodInfoPvPS4_
YNb:__ZN18StreamedBinaryReadILb1EE21TransferSTLStyleArrayI13dynamic_arrayI11ColorRGBA32Lj4EEEEvRT_17TransferMetaFlags
apk:__ZN15dense_hashtableINSt3__24pairIK10KeyWrapperINS1_IP11Il2CppClassjEEES4_EES6_N6il2cpp8metadata14ArrayClassHashEN14dense_hash_mapIS6_S4_SB_NS6_14EqualsComparerINSA_17ArrayClassCompareEEENS0_9allocatorIS8_EEE9SelectKeyESF_SH_E6insertERKS8_
RNf:_U3CShowU3Ec__AnonStorey1_U3CU3Em__0_m2340880019
HCh:_Selectable_OnSetProperty_m1693943217
iIi:_List_1_GetIndex_m2300811709_gshared
ilc:__ZNK32RendererMaterialAnimationBinding12GetPPtrValueERKN11UnityEngine9Animation10BoundCurveE
bPb:__Z18Transfer_BlittableI18StreamedBinaryReadILb0EELb0E8Vector2fEvRK29SerializationCommandArgumentsR31RuntimeSerializationCommandInfo
DCd:__ZN5physx18NpArticulationLink10clearForceENS_11PxForceMode4EnumE
zji:_ASCIIEncoding_GetString_m58523364
Xcd:__ZN5physx2Gu30distanceSegmentTriangleSquaredERKNS_6PxVec3ES3_S3_S3_S3_PfS4_S4_
uaf:__ZN2UI11CanvasGroup12CleanupClassEv
LBj:_TlsStream_Flush_m3793197834
eJi:_List_1_GetIndex_m2832472557_gshared
Ezb:__ZN22LocalFileSystemHandler9MakeLocalER13FileEntryDatab
som:_U3CCountStartU3Ec__Iterator0_MoveNext_m1266638396
RDk:__ZN6il2cpp2vm8Profiler10AllocationEP12Il2CppObjectP11Il2CppClass
xKj:_Uri_IsHexEncoding_m3290929897
Nam:__ZL61Graphic_t1660335611_CustomAttributesCacheGenerator_m_MaterialP21CustomAttributesCache
D5e:__ZNSt3__23mapIN20TextRenderingPrivate7FontRefENS1_6OSFontENS_4lessIS2_EENS_9allocatorINS_4pairIKS2_S3_EEEEEixERS8_
Nbh:_ShimEnumerator_get_Value_m153531060_gshared
_pa:__Z13FormatOrderedPKcz
Ibk:__ZN6il2cpp2vm8basepathEPKc
cNd:__ZNK5physx15NpActorTemplateINS_7PxClothEE12getAggregateEv
hTh:_X509Chain_GetAuthorityKeyIdentifier_m614536199
b3e:__ZN14SafeBinaryRead21TransferSTLStyleArrayI10vector_mapINSt3__24pairIttEEfN20TextRenderingPrivate8FontImpl14KerningCompareENS2_9allocatorINS3_IS4_fEEEEEEEvRT_17TransferMetaFlags
OQg:_TlsServerFinished__ctor_m1445633918
$$a:__ZN13dynamic_arrayI17SortingLayerEntryLj4EE6insertEPS0_jRKS0_
bAj:_ListPool_1_Get_m3176656818_gshared
$Kh:_PKCS1_RSASP1_m3912327535
w6b:__ZN25DeferredRenderLoopScratchD0Ev
kF:__ZN27AnimationLayerMixerPlayable14SetInputWeightEif
AAf:__ZN5physx3Pvd17PvdPropertyFilterINS_2Sn17RepXVisitorWriterINS_27PxVehicleDifferential4WDataEEEE14handleAccessorILj544ENS_22PxRepXPropertyAccessorILj544ES4_ffEEEEvRKT0_
f3k:_UnityException__ctor_m1456865679
KC:__ZN7mecanim9animation17EvaluateHumanPoseERKNS0_18ClipMuscleConstantERKNS0_15ClipMuscleInputEPKfRKNS0_12MotionOutputERNS_5human9HumanPoseE
bLh:_PKCS1_Encrypt_v15_m1016948107
sbe:__ZNK5physx2Cm12DelegateTaskINS_13PxsCCDContextEXadL_ZNS2_14postCCDAdvanceEPNS_10PxBaseTaskEEEE7getNameEv
eNe:__ZN4PPtrI11TerrainDataE8TransferI18StreamedBinaryReadILb0EEEEvRT_
o8l:__ZL92PointerEventData_t3807901092_CustomAttributesCacheGenerator_U3CscrollDeltaU3Ek__BackingFieldP21CustomAttributesCache
ssa:__ZN15dense_hashtableINSt3__24pairIKiN4core17string_with_labelILi1EEEEEi18SInt32HashFunctionN14dense_hash_mapIiS5_S7_NS0_8equal_toIiEE13stl_allocatorIS6_L18MemLabelIdentifier1ELi16EEE9SelectKeyESA_SD_E9copy_fromERKSG_j
sUf:_CustomAttributeNamedArgument_GetHashCode_m2317130892
Tsb:__ZN15ResourceManagerD0Ev
aAi:_EqualityComparer_1_get_Default_m990790318_gshared
wzh:_GetRayIntersectionAllCallback__ctor_m391992746
Zda:__ZN22CreateGpuProgramOutputD2Ev
bmd:__ZNK5physx3Cct15ObstacleContext14getNbObstaclesEv
i$j:_ControllerColliderHit_t240592346_marshal_pinvoke_cleanup
uKb:__Z18Transfer_BlittableI19StreamedBinaryWriteILb0EELb1EsEvRK29SerializationCommandArgumentsR31RuntimeSerializationCommandInfo
E6c:__Z17UpdateSprites2TplIL27ParticleSystemCurveEvalMode2ELS0_3EEvfRK11MinMaxCurveS3_RK23ParticleSystemParticlesPf
oLl:__ZL52HMACSHA512_t923916539_CustomAttributesCacheGeneratorP21CustomAttributesCache
Swe:__ZN5physx6shdfnd8PoolBaseINS_11NpAggregateENS0_19ReflectionAllocatorIS2_EEE12allocateSlabEv
KVd:__ZN5physx16NpParticleSystem23setParticleReadDataFlagENS_22PxParticleReadDataFlag4EnumEb
It:__ZN7mecanim9animation23BlendDirectDataConstant8TransferI14SafeBinaryReadEEvRT_
abi:_SHA1CryptoServiceProvider_Finalize_m1793183797
eQl:__ZL78Convert_t2465617642_CustomAttributesCacheGenerator_Convert_ToUInt64_m409548990P21CustomAttributesCache
HDi:_HashSet_1_System_Collections_Generic_ICollectionU3CTU3E_CopyTo_m408073502_gshared
tUd:__ZN5physx7NpScene26removeFromParticleBaseListERNS_14PxParticleBaseE
hUd:__ZN5physx23NpParticleFluidReadData18getDataAccessFlagsEv
Pyb:__ZN12HandlerChain4OpenER13FileEntryData14FilePermission16FileAutoBehavior
Pul:__Z72RuntimeInvoker_Void_t1185182177_Int32_t2950945753_RaycastHit_t1056001966PFvvEPK10MethodInfoPvPS4_
GPl:__ZL79Convert_t2465617642_CustomAttributesCacheGenerator_Convert_ToUInt16_m1147931813P21CustomAttributesCache
Wgk:__ZN15dense_hashtableINSt3__24pairIK10KeyWrapperINS1_IPK10MethodInfoP11Il2CppClassEEEjEES9_17ReflectionMapHashIS8_EN14dense_hash_mapIS9_jSD_NS9_14EqualsComparerINS0_8equal_toIS8_EEEENS0_9allocatorISB_EEE9SelectKeyESI_SK_E6insertERKSB_
ctf:__ZN5physx3Pvd17PvdPropertyFilterINS_2Sn17RepXVisitorWriterINS_17PxVehicleTireDataEEEE27extendedDualIndexedPropertyILj605ES4_jjfEEvjRKNS_33PxExtendedDualIndexedPropertyInfoIXT_ET0_T1_T2_T3_EEjj
$9f:_Array_SetValue_m394135409
Daa:__ZN14FileCacherReadD2Ev
Rvb:__ZN13RendererScene23UpdatePreviousFrameDataEii
qkf:__ZN5physx22PxVehicleWheelsSimData26setTireForceAppPointOffsetEjRKNS_6PxVec3E
wii:_String_Remove_m562998446
jzc:__Z50Register_UnityEngine_CullingGroup_FinalizerFailurev
dNl:__ZL94UTF32Encoding_t312252005_CustomAttributesCacheGenerator_UTF32Encoding_GetByteCount_m3787179419P21CustomAttributesCache
Ikj:_Mesh_GetAllocArrayFromChannel_TisVector2_t2156229523_m1057679375_gshared
e_c:__Z32TransferEnumWithNameForceIntSizeI14SafeBinaryReadN8UVModule4ModeEEvRT_RT0_PKc17TransferMetaFlags
zwb:__ZN27UnloadUnusedAssetsOperationD0Ev
bG:__ZN26AnimatorControllerPlayable6MemoryD2Ev
csm:__ZNKSt3__221__basic_string_commonILb1EE20__throw_out_of_rangeEv
Sbe:__ZN5physx10PxsCCDPair12updateShapesEv
eij:_Dictionary_2_Do_ICollectionCopyTo_TisBoolean_t97287965_m3600337818_gshared
idk:_UpdatedEventHandler_Invoke_m1320302085
wuk:__ZNK15dense_hashtableINSt3__24pairIK10KeyWrapperIP14Il2CppIUnknownEjEES5_N6il2cpp5utils11PointerHashIS3_EEN14dense_hash_mapIS5_jSB_NS5_14EqualsComparerINS0_8equal_toIS4_EEEENS0_9allocatorIS7_EEE9SelectKeyESG_SI_E12test_deletedERK24dense_hashtable_iteratorIS7_S5_SB_SK_SG_SI_E
AO:__ZN9AudioClip23VirtualRedirectTransferER18StreamedBinaryReadILb0EE
Vkm:_StandaloneInput_SetButtonUp_m191088641
i3i:_List_1_AddEnumerable_m2724989594_gshared
wwa:__ZNSt3__26vectorIPN9ShaderLab9SubShaderENS_9allocatorIS3_EEE21__push_back_slow_pathIKS3_EEvRT_
k4i:_List_1_Contains_m2043463915_gshared
iQd:__ZN5physx2Sc9ClothCore22removeCollisionCapsuleEj
Mnl:__Z82RuntimeInvoker_Vector2_t2156229523_Vector2_t2156229523_RuntimeObject_RuntimeObjectPFvvEPK10MethodInfoPvPS4_
BRa:__ZN18GlslGpuProgramGLESC2ERK13dynamic_arrayIhLj1EER22CreateGpuProgramOutput
QFc:__Z70Register_UnityEngine_Playables_PlayableHandle_GetPlayableType_Injectedv
yWb:__ZNK4PPtrI23ShaderVariantCollectionEcvPS0_Ev
Jud:__ZN5physx16PxsIslandManager25setArticulationLinkHandleEjPvRKNS_20PxsIslandManagerHookIjLj4294967295EEE
lk:_glCopyTexSubImage2D
qlc:__ZNK24RendererAnimationBinding13GetFloatValueERKN11UnityEngine9Animation10BoundCurveE
nVc:__ZNK21RotationBySpeedModule6UpdateERK27ParticleSystemReadOnlyStateRK19ParticleSystemStateR23ParticleSystemParticlesRKN4math7_float4Ejj
p1:__ZNK15DownloadHandler14HasPendingDataEv
fPh:_HttpWebRequest_get_Address_m1609525404
k3k:_UnitySynchronizationContext_ExecuteTasks_m1310741010
I9h:_RIPEMD160Managed_CompressFinal_m497690796
Ubc:__ZN18ScreenManagerWebGL13SetShowCursorEb
tZg:_InternalEnumerator_1_MoveNext_m1773160976_gshared
RXb:__ZN13DrawImmediateC2ER9GfxDevice
Bpm:_frexp
xaf:__ZN2UI13CanvasManager14GetRenderOrderEPKNS_6CanvasE
yEd:__ZN5physx6shdfnd5ArrayIPNS_3Scb5ShapeENS0_15InlineAllocatorILj16ENS0_19ReflectionAllocatorIS4_EEEEE15growAndPushBackERKS4_
NCb:__Z18Transfer_BlittableI14SafeBinaryReadLb0E5RectTIfEEvRK29SerializationCommandArgumentsR31RuntimeSerializationCommandInfo
Ktg:_NumberFormatter_NumberToString_m2562899600
LTd:__ZNK5physx2Sc18ParticleSystemCore15getParticleMassEv
qci:_SymmetricAlgorithm_get_FeedbackSize_m3666584308
gYe:_otv_u_C_x_Ox
qEa:__ZN14GfxContextGLES14GetFramebufferEv
fBm:_emscripten_glGenVertexArrays__wrapper
UWi:_Version_Clone_m1749041863
Tbh:_ShimEnumerator_get_Key_m4155849607_gshared
$Ia:__ZN6prcoreL21CreateRemapAnyBlitterE13TextureFormatS0_
TNg:_RSAManaged_ExportParameters_m1754454264
Vtc:__ZN17AnimationCurveTplIfE16StripInvalidKeysEv
Ycg:_Boolean_Equals_m535526264_AdjustorThunk
Ywl:__Z71RuntimeInvoker_KeyValuePair_2_t71524366_Int32_t2950945753_RuntimeObjectPFvvEPK10MethodInfoPvPS4_
yli:_Array_InternalArray__ICollection_Contains_TisTouch_t1921856868_m354355717_gshared
L1i:_List_1_TrimExcess_m3801445587_gshared
m9e:__ZNK2UI6Canvas17GetSortingLayerIDEv
Kcg:_Convert_ToUInt16_m3116648921
dwc:__ZL12HashLen0to16PKcj
lnk:_il2cpp_method_has_attribute
Ihc:__Z13RegisterClassI17GlobalGameManagerEvv
Rfa:__ZN8Renderer24SetupNewRendererForSceneEv
ESi:_Type_internal_from_name_m1721940673
Enk:_il2cpp_type_get_class_or_element_class
uhj:_Array_swap_TisCustomAttributeTypedArgument_t2723150157_TisCustomAttributeTypedArgument_t2723150157_m365781156_gshared
gmh:_RemotingServices_GetMethodBaseFromName_m3194612939
NOc:__Z35Transfer_Blittable_FixedBufferFieldI8JSONReadtEvRK29SerializationCommandArgumentsR31RuntimeSerializationCommandInfo
e2a:__ZN4PPtrI7TextureE8TransferI14SafeBinaryReadEEvRT_
nne:__ZN5physx2Sc8ClothSim16addCollisionMeshEPKNS0_8ShapeSimE
jpc:__ZN14PlayableOutput6HandleEv
Qib:__ZNK6Sprite22GetTypeVirtualInternalEv
Lsf:__ZN5physx6shdfnd5ArrayINS_12PxFilterDataENS0_15InlineAllocatorILj80ENS0_19ReflectionAllocatorIS2_EEEEE6resizeEjRKS2_
bCf:__ZN13RuntimeStaticINSt3__26vectorI23UnityVRDeviceDefinition13stl_allocatorIS2_L18MemLabelIdentifier90ELi16EEEELb0EE13StaticDestroyEPv
lo:FUNCTION_TABLE_iiiiiiiiiiiiii
qse:__ZN5physx6shdfnd5ArrayIPKNS_10PxsCCDBodyENS0_19ReflectionAllocatorIS4_EEE8recreateEj
sEd:__ZN5physx6shdfnd4sortINS_2Cm19PreallocatingRegionENS0_4LessIS3_EENS0_19ReflectionAllocatorIS3_EEEEvPT_jRKT0_RKT1_j
Bhf:__ZN19UnityConnectService18OnPlayerQuitStaticEPS_
bPi:_SynchronizationLockException__ctor_m3407855920
m7a:__ZN11Tetrahedron8TransferI24GenerateTypeTreeTransferEEvRT_
ZYe:_UNITY_tt_get_cmap_info
XUg:_SslClientStream_RaiseServerCertificateValidation_m3477149273
zJb:__Z29Transfer_Blittable_ArrayFieldI24GenerateTypeTreeTransfer5RectTIiEEvRT_R9ArrayInfoRK23StaticTransferFieldInfo
X7a:__ZN16ReflectionProbes8ScheduleEN18ReflectionProbeJob7JobTypeEP15ReflectionProbei
SQg:_ClientSessionInfo_KeepAlive_m1020179566
w9e:__ZN13dynamic_arrayIN2UI13UIInstructionELj4EE12emplace_backEv
B4i:_List_1_ToArray_m4056539300_gshared
Ptf:__ZN5physx2Sn21RepXVisitorReaderBaseINS_23PxVehicleDriveSimData4WEE8pushNameEPKc
nEl:__ZL51Calendar_t1661121569_CustomAttributesCacheGeneratorP21CustomAttributesCache
yWa:__Z18IsDirectoryCreatedRKN4core12basic_stringIcNS_20StringStorageDefaultIcEEEE
Cdi:_String_FormatHelper_m3913915042
TWd:__ZN5physx19NpRigidBodyTemplateINS_14PxRigidDynamicEE20setRigidDynamicFlagsENS_7PxFlagsINS_15PxRigidBodyFlag4EnumEhEE
l8e:__ZN2UI13CanvasManagerD2Ev
j8c:__ZZN14ParticleSystem15InitializeClassEvEN52PreLateUpdateParticleSystemBeginUpdateAllRegistrator7ForwardEv
e4j:__ZN15dense_hashtableINSt3__24pairIK10KeyWrapperIPKcEP11Il2CppClassEES5_N6il2cpp5utils11StringUtils12StringHasherIS4_EEN14dense_hash_mapIS5_S8_SE_NS5_14EqualsComparerINSB_13VmStringUtils21CaseSensitiveComparerEEENS0_9allocatorIS9_EEE9SelectKeyESJ_SL_E15set_deleted_keyERKS9_
qcj:__ZN21InterfaceFuncInvoker1Ib20UIVertex_t4057497605E6InvokeEjP11Il2CppClassP12Il2CppObjectS0_
_7f:_AttrListImpl_get_Names_m977594476
sKl:__ZL53IFormatter_t3549834567_CustomAttributesCacheGeneratorP21CustomAttributesCache
e5e:_UNITY_FT_GlyphLoader_Done
tMe:__ZN7Terrain10SmartResetEv
r4l:__ZL89GUIStyle_t3956901511_CustomAttributesCacheGenerator_GUIStyle_get_stretchWidth_m3556443132P21CustomAttributesCache
JNf:_U3CDelayedDestroyDropdownListU3Ec__Iterator0__ctor_m912479353
CVd:__ZN5physx22NpParticleBaseTemplateINS_16PxParticleSystemENS_16NpParticleSystemEE20setMaxMotionDistanceEf
Jkm:_MobileInput_SetAxisZero_m4114279636
W2h:_StackTrace_get_FrameCount_m344690939
sLe:__Z59Register_UnityEngine_Rigidbody_INTERNAL_get_angularVelocityv
Rwg:_FileStream_BeginRead_m2419864669
SAg:_UnexceptionalStreamWriter_Write_m363195622
zfe:__ZN5physx18ComputeSortedListsEPNS_2Cm10BitMapBaseINS_6shdfnd9AllocatorEEEjjPKjPPNS_8SapBox1DES7_PjSB_jRKNS_2Gu4AxesESB_RjSB_SG_RbSH_
j8b:__ZNK21IntermediateRenderers16GetBoundingBoxesEv
zEf:_EventTrigger_OnInitializePotentialDrag_m2172162368
kBf:__ZL28VehicleWheelRaycastPreFilterN5physx12PxFilterDataES0_PKvjRNS_7PxFlagsINS_9PxHitFlag4EnumEtEE
EA:__ZN15SerializeTraitsIN4math4trsXEE8TransferI19StreamedBinaryWriteILb0EEEEvRS1_RT_
Xof:__Z48setPxVehicleTireLoadFilterDataMMaxNormalisedLoadPN5physx27PxVehicleTireLoadFilterDataEf
$Pb:__Z35Transfer_Blittable_FixedBufferFieldI18StreamedBinaryReadILb0EEdEvRK29SerializationCommandArgumentsR31RuntimeSerializationCommandInfo
duh:_Selectable_OnPointerDown_m1086067264
j2e:_psh_globals_new
jNf:_Dropdown_SetupTemplate_m628218778
DOi:_Thread_GetCompressedStack_m2923422412
Ohg:_SynchronizedArrayListWrapper_CopyTo_m4207791406
wRh:_X509BasicConstraintsExtension_ToString_m1809935297
Pya:__ZN9GfxDevice20SetMaxBufferedFramesEi
Dzj:_TweenRunner_1_StartTween_m1055628540_gshared
Ofj:_Array_qsort_TisUIVertex_t4057497605_TisUIVertex_t4057497605_m678708019_gshared
Anj:_ReadOnlyCollection_1_System_Collections_IList_Remove_m4129318771_gshared
Eij:_GameObject_GetComponents_TisRuntimeObject_m1246177135_gshared
zT:__ZN24AudioScriptBufferManagerD2Ev
Cum:dynCall_vdd
uwf:__ZN5physx2Sn21RepXVisitorReaderBaseINS_16PxVehicleDriveNWEE8pushNameEPKc
Zdc:__Z23ConvertIntegerToTypePtrIsEbPvR14SafeBinaryRead
z2i:_List_1_Insert_m2958195960_gshared
NAf:__ZN5physx15computeTankDiffEffjPKbPfS2_S2_
Hzd:__ZNK5physx14NpArticulation17releaseDriveCacheERNS_24PxArticulationDriveCacheE
zgg:_ArrayListWrapper_get_Capacity_m51087796
Kvh:_LayoutElement_get_minHeight_m4160507569
ATe:__ZNSt3__26vectorI13dynamic_arrayI21TreePrototypeColliderLj4EE13stl_allocatorIS3_L18MemLabelIdentifier1ELi16EEE8__appendEjRKS3_
rzi:_EqualityComparer_1_System_Collections_IEqualityComparer_GetHashCode_m2230215241_gshared
$dm:__ZL60ContentSizeFitter_t3850442145_CustomAttributesCacheGeneratorP21CustomAttributesCache
Wjg:_Hashtable_Contains_m2145146412
jUl:__ZL64UnmarshalledAttribute_t1517743549_CustomAttributesCacheGeneratorP21CustomAttributesCache
wsc:__ZN4Mesh24UpdateSubMeshVertexRangeEi
LPd:__ZNK5physx2Sc9ClothCore25getSelfCollisionStiffnessEv
BTc:__Z13UpdateSizeTplIL27ParticleSystemCurveEvalMode3EEvRK11MinMaxCurveR23ParticleSystemParticlesbjj
ESk:_MaterialEffectPlayable_Equals_m3750885802
efk:__ZNK15dense_hashtableINSt3__24pairIK10KeyWrapperINS1_IPK14Il2CppAssemblyP11Il2CppClassEEEjEES9_17ReflectionMapHashIS8_EN14dense_hash_mapIS9_jSD_NS9_14EqualsComparerINS0_8equal_toIS8_EEEENS0_9allocatorISB_EEE9SelectKeyESI_SK_E12test_deletedEj
XKk:__ZN6il2cpp2os9FastMutex4LockEv
zqg:_Int32_FindCurrency_m3541026887
lXh:_Interval_CompareTo_m3282557545
gMk:__ZN6il2cpp8metadata19Il2CppSignatureHash4HashERKNS_5utils13dynamic_arrayIPK10Il2CppTypeLj4EEE
jCm:_pthread_cond_wait__wrapper
J5b:__ZNK14RenderSettings19GetFlatAmbientColorEv
BIa:__ZN6prcoreL10inner_flipILj4EEEvPhS1_j
Brb:__ZN18StreamedBinaryReadILb0EE21TransferSTLStyleArrayI10vector_mapIPKN5Unity4TypeE7Hash128NSt3__24lessIS6_EENS8_9allocatorINS8_4pairIS6_S7_EEEEEEEvRT_17TransferMetaFlags
hH:__ZNK27StateMachineBehaviourPlayer15IsSenderEnabledEv
vdm:__ZL58Text_t1901882714_CustomAttributesCacheGenerator_m_FontDataP21CustomAttributesCache
WXf:_GenericTypeParameterBuilder_IsPrimitiveImpl_m1952010459
fnj:_ReadOnlyCollection_1_CopyTo_m3474153465_gshared
UJg:_RijndaelManagedTransform_TransformBlock_m1610137419
CEc:__Z40Register_UnityEngine_Transform_SetParentv
qMl:__ZL94WindowsIdentity_t2948242406_CustomAttributesCacheGenerator_WindowsIdentity_Dispose_m3466258450P21CustomAttributesCache
Fkb:__ZN14Texture2DArray17UploadToGfxDeviceEv
ULj:_Event_set_displayIndex_m1342258734
uS:__Z14FMODMemoryFreePvjPKc
BZl:__ZL100RectTransform_t3704657025_CustomAttributesCacheGenerator_RectTransform_INTERNAL_get_rect_m3130887130P21CustomAttributesCache
MGi:_Enumerator__ctor_m2029608698_gshared
$pg:_Int16_System_IConvertible_ToType_m3672347013
NRk:_NetFxCoreExtensions_GetMethodInfo_m444570327
okh:_CrossContextDelegate__ctor_m2846080406
O3b:__Z14SetSHConstantsR13BatchRendererR17ShaderPassContextRK20SphericalHarmonicsL2b
Y_e:_tt_cmap0_validate
xeg:_Char_System_IConvertible_ToDecimal_m3534906463
jVe:_cf2_glyphpath_moveTo
u5d:__ZN5physx3Scb4Body9syncStateEv
g4k:_Vector3_get_magnitude_m27958459_AdjustorThunk
gie:__ZN5physx20SingleAABBUpdateTaskD0Ev
b1k:_StackTraceUtility_SetProjectFolder_m830524047
RDd:__ZN5physx12PxsRigidBody23updatePoseDependenciesVERNS_10PxsContextE
KD:__ZN7mecanim23TransformValueArrayLoopEiiiRKN4math4trsXES3_RNS_10ValueArrayEf
$wf:__ZN5physx18RepXPropertyFilterINS_2Sn17RepXVisitorReaderINS_21PxVehicleDriveDynDataEEEEclILj653ES3_bbEEvRKNS_14PxPropertyInfoIXT_ET0_T1_T2_EEj
Amm:_JetParticleEffect_Update_m1333449538
PHc:__ZN5IMGUI14GUIWindowStateD2Ev
cQg:_ClientContext_Clear_m1774063253
Msc:__ZN4Mesh17SetIndicesComplexEPKvjj16GfxPrimitiveTypeij
kpb:__Z32TransferEnumWithNameForceIntSizeI14SafeBinaryRead25ProceduralLoadingBehaviorEvRT_RT0_PKc17TransferMetaFlags
E5c:__Z20UpdateWholeSheet2TplIL27ParticleSystemCurveEvalMode1ELS0_0EEvfRK11MinMaxCurveS3_RK23ParticleSystemParticlesPf
CZh:_DateTime_AddSeconds_m332574389_AdjustorThunk
_2k:_RequestAtlasCallback_Invoke_m378128467
Fdg:_Byte_System_IConvertible_ToSByte_m1869482168
MNf:_U3CDelayedDestroyDropdownListU3Ec__Iterator0_MoveNext_m213723240
JVb:__Z21PlayerStartFirstSceneb
bK:__ZN7mecanim5human10RetargetToEPKNS0_5HumanEPKNS0_9HumanPoseES6_RKN4math4trsXEPS4_PNS_8skeleton13SkeletonPoseTIS8_EESF_
CD:__ZN7mecanim9animation8SeekClipERKNS0_12StreamedClipERNS0_18StreamedClipMemoryEf
kwf:__ZN5physx18RepXSerializerImplINS_16PxVehicleDriveNWEE11getTypeNameEv
nlf:__ZN5physx21PxConstraintConnectorD2Ev
XSk:_GameObject_Internal_AddComponentWithType_m3797731663
Um:_emscripten_glIsTexture
dz:__ZN24CompressedAnimationCurveaSERKS_
s4i:_List_1_CheckIndex_m3933537097_gshared
zl:_emscripten_glHint
WSc:__ZN15PolynomialCurve22IsValidPolynomialCurveERK17AnimationCurveTplIfE
YTj:__ZL24UnresolvedVirtualCall_73P12Il2CppObjectPK10MethodInfo
uPj:_Check_SourceAndPredicate_m2332465641
Mml:__Z67RuntimeInvoker_Boolean_t97287965_TextGenerationSettings_t1351628751PFvvEPK10MethodInfoPvPS4_
U0e:_ft_var_readpackeddeltas
Tei:_String_op_Inequality_m215368492
Qwi:_Dictionary_2_Clear_m1938428402_gshared
SOe:__ZN9Heightmap16CheckConsistencyEv
DMb:__Z35Transfer_Blittable_FixedBufferFieldI18StreamedBinaryReadILb1EEtEvRK29SerializationCommandArgumentsR31RuntimeSerializationCommandInfo
MUi:_UInt32_System_IConvertible_ToInt64_m2261037378
Xm:_SDL_UpperBlit
Zre:__ZN5physx2Cm12DelegateTaskINS_2Sc5SceneEXadL_ZNS3_13ccdBroadPhaseEPNS_10PxBaseTaskEEEED0Ev
T7a:__Z35GetTextureDecodeValuesWithIntensity16TextureUsageMode17TextureColorSpace10ColorSpacef
Lli:_Array_InternalArray__ICollection_Remove_TisChar_t3634460470_m4143749387_gshared
dYb:__ZN15dense_hashtableINSt3__24pairIK9TextureIDiEES2_14GfxGenericHashIS2_EN14GfxDoubleCacheIS2_iS6_NS0_8equal_toIS2_EEN31GfxDoubleCacheConcurrencyPolicy11LocklessGetE42GfxDoubleCacheDefaultEmptyDeletedGeneratorIS2_EE9SelectKeyES9_13stl_allocatorIS4_L18MemLabelIdentifier24ELi16EEE14squash_deletedEv
zLd:__ZNK5physx7NpShape16getContactOffsetEv
Tpf:__Z28getPxVehicleWheelDataMRadiusPKN5physx18PxVehicleWheelDataE
uhe:__ZN5physx14PxsAABBManager21processAggregatePairsEPKNS_19AggregateSortedDataE
jIe:_PxCreateCooking
WYh:_GregorianCalendar__ctor_m979779718
uUg:_SslClientStream__ctor_m2402546929
ySb:__ZN14SafeBinaryRead20OverrideRootTypeNameEPKc
KNh:_DictionaryNodeEnumerator_get_Entry_m2309234501
x0j:__ZNK10KeyWrapperIPK22Il2CppGenericParameterE14EqualsComparerINSt3__28equal_toIS2_EEEclERKS3_SA_
Haa:__ZN14FileCacherRead16UnlockCacheBlockEj
ZFi:_Enumerator_Dispose_m951715887_AdjustorThunk
E_g:_InternalEnumerator_1_System_Collections_IEnumerator_Reset_m521819017_AdjustorThunk
$vg:_IsolatedStorageException__ctor_m1022659452
NGd:__ZNK5physx12NpBatchQuery23getFilterShaderDataSizeEv
dja:__ZN10InstancingL21OnGraphicsCapsChangedEv
hGb:__Z18Transfer_BlittableI17RemapPPtrTransferLb1E8Vector3fEvRK29SerializationCommandArgumentsR31RuntimeSerializationCommandInfo
LHl:__ZL61ClassInterfaceType_t4029497327_CustomAttributesCacheGeneratorP21CustomAttributesCache
DQi:_WaitHandle_get_Handle_m3260446580
UGi:_Enumerator_VerifyState_m1745883925_AdjustorThunk
od:_emscripten_glUniform1f
Tkg:_SortedList__ctor_m1261191695
kGe:__ZN5physx7profile11EventBufferINS_24PxDefaultContextProviderENS_6shdfnd6MutexTINS0_26WrapperReflectionAllocatorIhEEEENS0_14ScopedLockImplIS7_EENS_24PxProfileNullEventFilterEE10doAddEventINS0_17RelativeStopEventEEEvhtRKT_
Q7k:__Z75RuntimeInvoker_Int32_t2950945753_DecimalU26_t3714369516_Int64U26_t200113976PFvvEPK10MethodInfoPvPS4_
J5e:__Z20ParseImageParametersR11UTF16StringRiRN20TextRenderingPrivate16TextFormatChangeE
Qdm:__ZL55CanvasScaler_t2767979955_CustomAttributesCacheGeneratorP21CustomAttributesCache
xdj:_Collection_1_RemoveItem_m2942561924_gshared
td:_emscripten_glUniform1i
XHb:__Z18Transfer_BlittableI24GenerateTypeTreeTransferLb1EN4math12int3_storageEEvRK29SerializationCommandArgumentsR31RuntimeSerializationCommandInfo
jK:__ZN12_GLOBAL__N_119PreProcessAnimationER35AnimationPlayableEvaluationConstantR17AnimationPlayable
_qe:__ZN5physx2Sc19ShapeInstancePairLL23postIslandGenSecondPassEv
nDe:__ZN14PhysicsManager23VirtualRedirectTransferER19StreamedBinaryWriteILb0EE
mua:__ZN9ShaderLab16SerializedTagMapaSERKS0_
L$:__ZN11UnityEngine15CloudWebService16SessionContainer20RestoreSessionHeaderERKN4core12basic_stringIcNS2_20StringStorageDefaultIcEEEES8_RNS0_13SessionHeaderE
tHe:__ZN5physx26PxPhysicsInsertionCallbackD2Ev
Vif:__ZN22UnityWebRequestManager13BackendRetainEv
kvc:__ZN8Material28ApplyMaterialPropertyDrawersEv
Jae:__ZN5physx2Sq16BucketPrunerCore12updateObjectERKNS_9PxBounds3ERKNS0_13PrunerPayloadE
lqe:__ZN5physx18PxsDynamicsContext23atomIntegrationParallelEfPKPNS_11PxsBodyCoreEPKPNS_12PxsRigidBodyEjPKNS_2Cm13SpatialVectorEPNS_13PxcSolverBodyEPNS_17PxcSolverBodyDataEPSA_RjSI_RNS_10PxBaseTaskE
Pah:_Enumerator_Dispose_m1360775770_AdjustorThunk
c1j:__ZN24dense_hashtable_iteratorINSt3__24pairIK10KeyWrapperIPK22Il2CppGenericParameterEP11Il2CppClassEES6_N6il2cpp5utils11PointerHashIS4_EEN14dense_hash_mapIS6_S9_SE_NS6_14EqualsComparerINS0_8equal_toIS5_EEEENS0_9allocatorISA_EEE9SelectKeyESJ_SL_E30advance_past_empty_and_deletedEv
pL:__ZN11UnityEngine9Animation27CreateAvatarBindingConstantER9TransformPKN7mecanim9animation14AvatarConstantERNS3_6memory9AllocatorE
HOh:_MonoTODOAttribute__ctor_m1298576268
Uxh:_MaskableGraphic_get_onCullStateChanged_m3331479633
Wbl:__Z151RuntimeInvoker_RuntimeObject_Int32_t2950945753_RuntimeObject_ObjectU5BU5DU26_t712384779_RuntimeObject_RuntimeObject_RuntimeObject_ObjectU26_t2146539884PFvvEPK10MethodInfoPvPS4_
Jxc:__ZN9BlobWriteC2ER13dynamic_arrayIhLj16EE24TransferInstructionFlags19BuildTargetPlatform
VJf:_CanvasUpdateRegistry__ctor_m2005397069
hBj:_TlsServerSettings_get_Certificates_m3981837031
V8:__ZN14MessageHandler3GetEv
l0f:_MonoMethodInfo_GetCallingConvention_m3156036493
lXg:_InternalEnumerator_1__ctor_m1359891754_AdjustorThunk
ywh:_LayoutGroup_SetLayoutInputForAxis_m2458344630
Hd:_emscripten_glAttachShader
Ucm:__ZL62Selectable_t3250028441_CustomAttributesCacheGenerator_m_ColorsP21CustomAttributesCache
DNe:__ZN12TreeDatabase8TransferI14SafeBinaryReadEEvRT_
D4:__Z40DebugStringToFilePostprocessedStacktraceRK21DebugStringToFileData
LRf:_Image__cctor_m1927508576
mPi:_SendOrPostCallback_EndInvoke_m2485163446
Eua:__ZNSt3__26vectorIN4core12basic_stringIcNS1_20StringStorageDefaultIcEEEENS_9allocatorIS5_EEE6assignIPS5_EENS_9enable_ifIXaasr21__is_forward_iteratorIT_EE5valuesr16is_constructibleIS5_NS_15iterator_traitsISC_E9referenceEEE5valueEvE4typeESC_SC_
Vnm:_WheelEffects_set_skidding_m3709810090
Ijd:__ZN5physx2Gu19GetRaycastFuncTableEv
p6g:_InternalEnumerator_1_get_Current_m3331252162_AdjustorThunk
Kzl:__ZL76String_t_CustomAttributesCacheGenerator_String_Concat_m1809518182____values0P21CustomAttributesCache
trf:__Z44getPxVehicleWheelsSimData_ThresholdLongSpeedPKN5physx22PxVehicleWheelsSimDataE
uCb:__Z18Transfer_BlittableI14SafeBinaryReadLb0E11QuaternionfEvRK29SerializationCommandArgumentsR31RuntimeSerializationCommandInfo
Sqe:__ZN5physx17EdgeChangeManager23cleanupBrokenEdgeEventsEPKNS_4EdgeE
JPb:__Z18Transfer_BlittableI18StreamedBinaryReadILb0EELb1E12PropertyNameEvRK29SerializationCommandArgumentsR31RuntimeSerializationCommandInfo
k4:_tlsf_walk_heap
Lbl:__Z49RuntimeInvoker_Void_t1185182177_OpCode_t123070264PFvvEPK10MethodInfoPvPS4_
Gpd:__ZN5physx2Sc35ParticleElementRbElementInteraction7destroyEbj
ppk:__ZNK15dense_hashtableINSt3__24pairIK10KeyWrapperIP11Il2CppClassES4_EES5_N6il2cpp8metadata16SZArrayClassHashEN14dense_hash_mapIS5_S4_SA_NS5_14EqualsComparerINS9_19SZArrayClassCompareEEENS0_9allocatorIS7_EEE9SelectKeyESE_SG_E10test_emptyERK24dense_hashtable_iteratorIS7_S5_SA_SI_SE_SG_E
Ybk:__ZN6il2cpp2vm7Runtime6InvokeEPK10MethodInfoPvPS5_PP15Il2CppException
gll:__Z69RuntimeInvoker_Void_t1185182177_Int32_t2950945753_HitInfo_t3229609740PFvvEPK10MethodInfoPvPS4_
v2l:__ZL59AnimatorClipInfo_t3156717155_CustomAttributesCacheGeneratorP21CustomAttributesCache
_og:_Convert_ToUInt32_m3592050311
zb:invoke_vif
tij:_Component_GetComponents_TisRuntimeObject_m2416546752_gshared
Ab:invoke_vid
x2g:_InternalEnumerator_1__ctor_m2202456613_AdjustorThunk
usm:__ZNSt3__212basic_stringIcNS_11char_traitsIcEENS_9allocatorIcEEE6insertEjPKc
Bb:invoke_vii
k$b:__ZNK12ImageFilters8DoRenderER17ShaderPassContextP13RenderTextureS3_RKNSt3__26vectorI11ImageFilterNS4_9allocatorIS6_EEEE
N3d:__ZN5physx13NpVolumeCacheD2Ev
jVa:__ZN12TLSAllocatorI14StackAllocatorE16ThreadInitializeEP13BaseAllocator
jdl:__Z82RuntimeInvoker_Boolean_t97287965_SByte_t1669577662_RuntimeObject_SByte_t1669577662PFvvEPK10MethodInfoPvPS4_
nza:__ZN9GfxDevice32UpdateStereoViewProjectionMatrixE21MonoOrStereoscopicEye
Nne:__ZThn8_N5physx2Sc35ParticleElementRbElementInteraction12onDeactivateEj
hOe:__Z14resize_trimmedINSt3__26vectorI14SplatPrototypeNS0_9allocatorIS2_EEEEEvRT_j
mbf:__Z41CanvasRenderer_CUSTOM_DisableRectClippingP12Il2CppObject
Bui:_Dictionary_2__ctor_m1324730059_gshared
OCg:_MonoType_GetConstructorImpl_m441167626
Ede:__ZN5physx16PxsThreadContextC2EPNS_10PxsContextE
rMf:_DefaultControls_CreateRawImage_m4219873755
W7i:_Collection_1_IsFixedSize_m3709118201_gshared
uZa:__ZN25SingleBlockMemoryFileDataD0Ev
qVa:__ZNSt3__26vectorI14ConstantStringNS_9allocatorIS1_EEE6assignINS_11__wrap_iterIPS1_EEEENS_9enable_ifIXaasr21__is_forward_iteratorIT_EE5valuesr16is_constructibleIS1_NS_15iterator_traitsISA_E9referenceEEE5valueEvE4typeESA_SA_
Jsj:_ReadOnlyCollection_1_CopyTo_m586367390_gshared
$9c:__ZN5physx3Cct10Controller4moveERNS0_11SweptVolumeERKNS_6PxVec3EffRKNS_19PxControllerFiltersEPKNS_17PxObstacleContextEb
G$:__ZN11UnityEngine15CloudWebService16SessionContainer21ConvertFromFolderTimeERKN4core12basic_stringIcNS2_20StringStorageDefaultIcEEEEPjPt
eXd:__ZN5physx14NpRigidDynamic17setAngularDampingEf
fEb:__ZNSt3__26vectorI8GUIStyle13stl_allocatorIS1_L18MemLabelIdentifier1ELi16EEE7reserveEj
Inj:_ReadOnlyCollection_1_Contains_m3869904379_gshared
frk:__ZN6il2cpp6icalls8mscorlib6System9Threading6Thread27GetSerializedCurrentCultureEP12Il2CppThread
fZ:__Z32AudioSource_Get_Custom_PropPitchP12Il2CppObject
CRg:_Context_set_ReadSequenceNumber_m2154909392
PJg:_RijndaelTransform_SubByte_m3037693507
Afc:__Z31CalculateHierarchyTransformType23TransformAccessReadOnly
eic:__Z13RegisterClassI11TimeManagerEvv
EHj:_ExpressionCollection_Add_m41125344
lS:__ZN4FMOD8ChannelI11setPositionEjj
Kqg:_NumberFormatter_FastIntegerToString_m390846811
ITk:_Input_INTERNAL_CALL_GetTouch_m3481893561
Kzf:__ZN5physx2Sn18writeAllPropertiesINS_18PxVehicleDriveTankEEEvPKT_RNS_9XmlWriterERNS_12MemoryBufferERNS_12PxCollectionE
mWd:__ZN5physx15NpActorTemplateINS_14PxRigidDynamicEE17setDominanceGroupEh
cGk:_GC_set_fl_marks
pwd:__ZN5physx6shdfnd8PoolBaseINS_2Sc12SimStateDataENS0_19ReflectionAllocatorIS3_EEE17releaseEmptySlabsEv
MQf:_Image__ctor_m2551076292
qza:__ZN9GfxDevice17SetStereoViewportE15StereoscopicEyeRK5RectTIiE
vpa:__ZN17BaseObjectManager13StaticDestroyEPv
UYj:_CanvasRenderer_INTERNAL_CALL_GetColor_m597074473
z4f:_ClassInterfaceAttribute__ctor_m637338123
XNi:_UTF7Decoder_GetChars_m3413809261
mWj:__ZL25UnresolvedVirtualCall_197P12Il2CppObjectsPK10MethodInfo
Qdd:__ZN5physx2Gu22closestPtPointTriangleEPNS_6shdfnd3aos5Vec3VES4_S4_Rj
LXl:__ZL81Shader_t4151988712_CustomAttributesCacheGenerator_Shader_PropertyToID_m1030499873P21CustomAttributesCache
SAl:__ZL70RuntimeArray_CustomAttributesCacheGenerator_Array_get_Rank_m3448755881P21CustomAttributesCache
kGd:__ZN5physx2Cm8PtrTableC2Ev
Cxg:_FileSystemInfo_get_FullName_m3468398407
t2k:_Vector3_get_forward_m3100859705
dR:__ZN4FMOD6Reverb13setPropertiesEPK22FMOD_REVERB_PROPERTIES
ZRd:__ZNK5physx22NpParticleBaseTemplateINS_15PxParticleFluidENS_15NpParticleFluidEE14getRestitutionEv
X0b:__ZN9DepthPass13PrepareSubsetEjRK10RenderNodeifRK17ShaderReplaceData
Oge:__ZN5physx16PxsBroadPhaseMBP6updateEjjRKNS_23PxcBroadPhaseUpdateDataEPNS_10PxBaseTaskE
_Jd:__ZN5physx9NpPhysics18createRigidDynamicERKNS_11PxTransformE
erd:__ZN5physx6shdfnd5ArrayIPvNS0_19ReflectionAllocatorINS_2Sc18TriggerInteractionEEEE15growAndPushBackERKS2_
rta:__ZN9ShaderLab20SerializedSubProgram16TextureParameter8TransferI14SafeBinaryReadEEvRT_
Y6k:__Z82RuntimeInvoker_Int32_t2950945753_RuntimeObject_Int32_t2950945753_Int32_t2950945753PFvvEPK10MethodInfoPvPS4_
btc:__Z35SetMeshComponentFromArrayFromScriptR4Mesh30InternalScriptingShaderChannel34InternalScriptingVertexChannelTypei17ScriptingArrayPtri
Iva:__ZN4PPtrI6ShaderE8TransferI19StreamedBinaryWriteILb0EEEEvRT_
uri:_Array_InternalArray__ICollection_Add_TisCustomAttributeNamedArgument_t287865710_m4157175270_gshared
ihd:__ZN5physx2Gu17intersectRayAABB2ERKNS_6shdfnd3aos5Vec3VES5_S5_S5_RKNS2_6FloatVERS6_S9_
ur:__ZN4core20StringStorageDefaultIcE6assignEPKcj
RVi:_UInt64_System_IConvertible_ToUInt64_m2135047981_AdjustorThunk
U5i:_Collection_1_System_Collections_IEnumerable_GetEnumerator_m1376351129_gshared
gLd:__ZNK5physx7NpShape17getSphereGeometryERNS_16PxSphereGeometryE
YKg:_BigInteger_ModPow_m3776562770
kjd:__ZL18intersectAnyVsMeshILi1EEbPKN5physx2Gu6SphereEPKNS1_7CapsuleEPKNS1_3BoxERKNS1_13RTreeMidphaseERKNS0_11PxTransformERKNS0_11PxMeshScaleEP14LimitedResults
Dxk:__ZN15dense_hashtableINSt3__24pairIK10KeyWrapperIP12Il2CppObjectEN6il2cpp2gc9CachedCCWEEES5_NS7_5utils11PointerHashIS3_EEN14dense_hash_mapIS5_S9_SD_NS5_14EqualsComparerINS0_8equal_toIS4_EEEENS0_9allocatorISA_EEE9SelectKeyESI_SK_E3endEv
Yug:_BinaryReader_ReadInt64_m939370142
rRk:_ArgumentCache_get_unityObjectArgumentAssemblyTypeName_m3450114170
Kmc:__ZN15SharedLightDataC2E10MemLabelId
$fg:_ArrayList_IndexOf_m305368842
b4i:_List_1_Add_m2996644200_gshared
xud:__ZN5physx6shdfnd5ArrayIPvNS0_15InlineAllocatorILj256ENS0_19ReflectionAllocatorINS_2Cm5BlockIhLj128EEEEEEEE15growAndPushBackERKS2_
Y9b:__ZN6Camera6SetFarEf
Sph:_FormatterConverter_ToBoolean_m1680758923
RJa:__ZN6prcoreL12RemapGenericI17TexFormatABGR888817TexFormatARGB8888EEvPKNS_9InnerInfoE
q_a:__ZN11GameManager17MainThreadCleanupEv
Klg:_Stack_get_Count_m2258661097
Clj:_ReadOnlyCollection_1__ctor_m1345363288_gshared
Ucf:__Z50Register_UnityEngine_UISystemProfilerApi_EndSamplev
Cfh:_Dictionary_2_System_Collections_ICollection_get_SyncRoot_m2020472285_gshared
hMj:_GUI_INTERNAL_CALL_DoLabel_m2007226197
K4g:_InternalEnumerator_1_System_Collections_IEnumerator_Reset_m1775752715_AdjustorThunk
iSe:__ZN12TreeRenderer21ComputeWindPropertiesEib
ALe:__Z52Register_UnityEngine_Rigidbody_INTERNAL_get_rotationv
oUl:__ZL91Application_t1852185770_CustomAttributesCacheGenerator_Application_get_isPlaying_m100394690P21CustomAttributesCache
dih:_ConfigHandler_OnProcessingInstruction_m4212209262
hSc:__ZN14ParticleSystem10ResetSeedsEv
Sqh:_SerializationCallbacks_GetSerializationCallbacks_m2939476649
KNd:__ZNK5physx7NpCloth24getParticleAccelerationsEPNS_6PxVec4E
Cjg:_Hashtable__cctor_m4112166779
D$e:_UNITY_tt_slot_init
eZb:__ZZ23InitPlayerLoopCallbacksvEN41PostLateUpdateUpdateResolutionRegistrator7ForwardEv
uRb:__Z25scripting_array_class_get17ScriptingClassPtrj
PMc:__ZL22Transfer_ManagedObjectI9JSONWriteLb1EEvRK29SerializationCommandArgumentsR31RuntimeSerializationCommandInfo
iO:__ZNK10SampleClip22GetTypeVirtualInternalEv
zAa:__ZN9GfxDevice20DestroyRenderSurfaceER12ObjectHandleI17RenderSurface_TagP17RenderSurfaceBaseE
Hlg:_Stack__ctor_m2602729586
k6k:__Z77RuntimeInvoker_Byte_t1134296376_RuntimeObject_Int32_t2950945753_RuntimeObjectPFvvEPK10MethodInfoPvPS4_
LOl:__ZL81Convert_t2465617642_CustomAttributesCacheGenerator_Convert_ToDateTime_m1031474510P21CustomAttributesCache
fsg:_Int32_System_IConvertible_ToInt32_m265310525_AdjustorThunk
GTa:__ZN9GfxDevice22UpdateComputeResourcesEjPK9TextureIDPK16TextureDimensionPKijPKjjPK15ComputeBufferIDS7_PK20ComputeBufferCounterjSC_S2_S5_S9_SF_
wba:__ZN12_GLOBAL__N_15qAsinEff
WQk:_Display__ctor_m3105658851
B8g:_Comparer_1__cctor_m3470905005_gshared
VZg:_InternalEnumerator_1_System_Collections_IEnumerator_get_Current_m2629988057_AdjustorThunk
kVa:__ZN12TLSAllocatorI14StackAllocatorE13ThreadCleanupEv
KO:__Z18GetAudioManagerPtrv
EWi:_ValueType_InternalEquals_m1384040357
y_g:_InternalEnumerator_1_Dispose_m2043273260_AdjustorThunk
LDk:__ZThn4_N6il2cpp2vm13ComObjectBase16MarshalInterfaceEP13Il2CppIStreamRK10Il2CppGuidPvjS7_j
tng:_Convert_ToDouble_m996590115
gUb:__Z27FindActiveTransformWithPathPKc
Mpj:_ReadOnlyCollection_1_System_Collections_IList_Remove_m4169110229_gshared
qUi:_UInt16_ToString_m3020002356
z$d:__ZN5physx16PxsIslandManager14setEdgeRigidCMERKNS_20PxsIslandManagerHookIjLj4294967295EEEPNS_17PxsContactManagerE
Wwh:_LayoutRebuilder_LayoutComplete_m68578143
qck:_RequiredByNativeCodeAttribute__ctor_m119855101
p0a:__ZN12BaseRendererD0Ev
Qdc:__Z29StdTemplateConversionFunctionIbyEbPvR14SafeBinaryRead
C9a:__ZN7Texture5ResetEv
szd:__ZN5physx14NpArticulation25setStabilizationThresholdEf
L4k:_WaitForSeconds_t1699091251_marshal_pinvoke
a8l:__ZL90PointerEventData_t3807901092_CustomAttributesCacheGenerator_U3ClastPressU3Ek__BackingFieldP21CustomAttributesCache
mbi:_SHA1Internal_Initialize_m499810128
nve:__ZN5physx2Gu11HeightField7releaseEv
R5:__ZNK6Camera7GetNearEv
HXf:_GenericTypeParameterBuilder_GetConstructorImpl_m863833310
MMa:__ZN7ApiGLES11UnmapBufferEjN2gl12BufferTargetE
ZDk:__ZN6il2cpp5utilsL24Utf32CharToSurrogatePairEjRA2_Ds
yfb:__Z25GetNextAllowedTextureSizeib13TextureFormat
_Tb:__ZN20LocalFileSystemWebGL4CopyER13FileEntryDataS1_
pNe:__ZN11TerrainData23VirtualRedirectTransferER18StreamedBinaryReadILb0EE
j2:__ZN19CloudServiceHandler6RetainEv
XLk:__ZN6il2cpp2os9Semaphore4WaitEb
smj:_ReadOnlyCollection_1_System_Collections_IList_IndexOf_m198887188_gshared
zIc:__Z36Event_CUSTOM_Internal_SetNativeEventPv
nNi:_UTF32Encoding_GetBytes_m3180303867
eda:__ZN12BaseRenderer20FlattenToRenderQueueER15RenderNodeQueueRK20DeprecatedSourceData
l4i:_List_1_CopyTo_m4034402519_gshared
one:__ZN5physx2Sc8ClothSim23addCollisionHeightfieldEPKNS0_8ShapeSimE
_nj:_ReadOnlyCollection_1_System_Collections_IList_Clear_m2007013334_gshared
Owb:__Z34scripting_liveness_calculation_endPv
xzk:__ZN6il2cpp2os6ThreadC2Ev
lWg:_U3CGetEnumeratorU3Ec__Iterator0_System_Collections_Generic_IEnumeratorU3CTU3E_get_Current_m1566629109_gshared
T$i:_List_1_set_Capacity_m725662605_gshared
n$h:_DateTimeOffset_get_UtcDateTime_m1021718282_AdjustorThunk
opa:__ZN16memory_pool_implILi64EE15AutoPoolWrapper12UninitializeEPv
ZC:__ZN21AnimationClipPlayable22ProcessAnimationNoClipEPK35AnimationPlayableEvaluationConstantPK32AnimationPlayableEvaluationInputP33AnimationPlayableEvaluationOutput
gNh:_HybridDictionary_get_Count_m1166314536
GBj:_TlsStream_Write_m1412844442
pOc:__Z18Transfer_BlittableI8JSONReadLb0E8Vector3fEvRK29SerializationCommandArgumentsR31RuntimeSerializationCommandInfo
Hy:__ZN13AnimationClip12Vector3Curve8TransferI14SafeBinaryReadEEvRT_
xpk:__ZN6il2cpp2vm6Thread6DetachEP12Il2CppThread
hCj:_GeneralNames_get_DNSNames_m3788548987
WIi:_List_1_AddCollection_m2026039026_gshared
y2e:_Render_Single_Pass
YCd:__ZNK5physx18NpArticulationLink13isSubordinateEv
KTj:__ZL24UnresolvedVirtualCall_59P12Il2CppObjectS0_aPK10MethodInfo
snd:__GLOBAL__sub_I_runtime_dynamics_2_cpp
xim:__ZL55WheelEffects_t1559845116_CustomAttributesCacheGeneratorP21CustomAttributesCache
Frf:__ZNK5physx22PxVehicleWheelsSimData11getTireDataEj
Brh:_SerializationEntry_t648286436_marshal_pinvoke
Nyf:__ZN5physx3Pvd17PvdPropertyFilterINS_2Sn17RepXVisitorWriterINS_21PxVehicleDriveDynDataEEEE14handleAccessorILj649ENS_22PxRepXPropertyAccessorILj649ES4_KffEEEEvRKT0_
vL:__ZN7mecanim8skeleton30SkeletonBuildReverseIndexArrayEPiPKiPKNS0_8SkeletonES6_
uGc:__Z19GetGUIBlendMaterialv
zyi:_DefaultComparer_GetHashCode_m177499767_gshared
rBg:_Math_Round_m3018379666
fof:__ZN5physx2Sn21RepXVisitorReaderBaseINS_22PxVehicleWheelsDynDataEE23extendedIndexedPropertyINS_3Pvd36PxPvdExtendedIndexedPropertyAccessorILj631ES2_KjfEEKNS_18PxUnknownClassInfoEEEvPjRKT_RT0_
mAk:__ZN6il2cpp2os10ThreadImpl5SleepEjb
d4j:__ZN14dense_hash_mapI10KeyWrapperIPKcEP11Il2CppClassN6il2cpp5utils11StringUtils12StringHasherIS2_EENS3_14EqualsComparerINS7_13VmStringUtils21CaseSensitiveComparerEEENSt3__29allocatorINSF_4pairIKS3_S5_EEEEE15set_deleted_keyERSI_
umj:_ReadOnlyCollection_1_System_Collections_IList_Remove_m1965826685_gshared
age:__ZN5physx14SapPairManager12shrinkMemoryEv
p2h:_Delegate_CreateDelegate_m1051651521
Bze:__ZN5physx6shdfnd8internal7median3IjKNS_19SortBoundsPredicateEEEvPT_iiRT0_
Vmi:_PlayableHandle_IsPlayableOfType_TisRuntimeObject_m503495943_AdjustorThunk
ss:__ZN18AnimatorController23VirtualRedirectTransferER24GenerateTypeTreeTransfer
jyf:__ZN5physx18RepXPropertyFilterINS_2Sn17RepXVisitorWriterINS_27PxVehicleDifferentialNWDataEEEEclILj550ES3_jjEEvRKNS_14PxPropertyInfoIXT_ET0_T1_T2_EEj
HAm:_glBindSampler__wrapper
hqf:__Z30getPxVehicleWheelDataMToeAnglePKN5physx18PxVehicleWheelDataE
h_a:__ZNSt3__26vectorIN20ArchiveStorageHeader12StorageBlockE13stl_allocatorIS2_L18MemLabelIdentifier55ELi16EEE8__appendEj
og:_emscripten_set_mouseup_callback
bsa:__Z14resize_trimmedINSt3__26vectorIN9ShaderLab14SerializedPassENS0_9allocatorIS3_EEEEEvRT_j
YUk:_Mathf_Clamp_m3350697880
vTa:__ZN9GfxDevice27SetRandomWriteTargetTextureEi9TextureID
Gvi:_Dictionary_2_System_Collections_Generic_ICollectionU3CSystem_Collections_Generic_KeyValuePairU3CTKeyU2CTValueU3EU3E_Contains_m3033743418_gshared
wdl:__Z165RuntimeInvoker_Void_t1185182177_UInt32U26_t3735378166_Int32_t2950945753_UInt32U26_t3735378166_Int32_t2950945753_Int32_t2950945753_Int32_t2950945753_Int32_t2950945753PFvvEPK10MethodInfoPvPS4_
MIi:_List_1_System_Collections_IList_Remove_m3140917266_gshared
$Ki:_Encoding_get_DecoderFallback_m1525880676
NJl:__ZL59ITrackingHandler_t1244553475_CustomAttributesCacheGeneratorP21CustomAttributesCache
oHj:_CompositeExpression__ctor_m2434860303
r3g:_InternalEnumerator_1_get_Current_m2112392701_AdjustorThunk
OHg:_DSASignatureDeformatter__ctor_m2759753186
l2d:__ZN5physx7NpScene22removeBroadPhaseRegionEj
xrd:__ZL34GeomOverlapCallback_CapsuleCapsuleRKN5physx10PxGeometryERKNS_11PxTransformES2_S5_PNS_2Gu12TriggerCacheE
ncj:_Collection_1_System_Collections_IEnumerable_GetEnumerator_m801406918_gshared
Ybc:__ZNK18ScreenManagerWebGL8GetWidthEv
t1d:__ZNK5physx7NpScene23getFilterShaderDataSizeEv
Q8j:__ZN6il2cpp2vm13MetadataCache33GetFieldDefaultValueDataFromIndexEi
fO:__ZN10SampleClipD2Ev
aYf:_GenericTypeParameterBuilder_get_AssemblyQualifiedName_m2323022482
svj:_Predicate_1_Invoke_m2389850270_gshared
UAg:_UnmanagedMemoryStream_get_CanSeek_m2636857629
AXl:__ZL90PlayerPrefs_t3518992213_CustomAttributesCacheGenerator_PlayerPrefs_TrySetFloat_m2507302512P21CustomAttributesCache
hwb:__Z13GetGISettingsv
h9i:_Collection_1_RemoveAt_m1813368096_gshared
V1:__ZN11UnityEngine15CloudWebService20WebRequestRestClientC2Ev
WWe:_cff_cmap_unicode_init
Vki:_Array_InternalArray__ICollection_Contains_TisRuntimeObject_m4067783231_gshared
Kaa:__ZN14FileCacherRead13GetFileLengthEv
xxj:_UnityAction_1_EndInvoke_m542551745_gshared
w6i:_Collection_1_IsValidItem_m3080586124_gshared
Lia:__ZNSt3__26__treeI19RepeatingLogMessageNS_4lessIS1_EE13stl_allocatorIS1_L18MemLabelIdentifier73ELi16EEE4findIS1_EENS_15__tree_iteratorIS1_PNS_11__tree_nodeIS1_PvEEiEERKT_
kNf:_DropdownItem_set_text_m3702712387
vKf:_ClipperRegistry_Register_m2407166513
fgm:__ZL68AeroplaneAudio_t418183782_CustomAttributesCacheGenerator_m_WindSoundP21CustomAttributesCache
Vqm:_readlink
Rik:__ZN15dense_hashtableINSt3__24pairIK10KeyWrapperINS1_IPK9EventInfoP11Il2CppClassEEEjEES9_17ReflectionMapHashIS8_EN14dense_hash_mapIS9_jSD_NS9_14EqualsComparerINS0_8equal_toIS8_EEEENS0_9allocatorISB_EEE9SelectKeyESI_SK_E12resize_deltaEjj
g0f:_MonoCMethod_Invoke_m2700167622
ykg:_KeyMarker__cctor_m2590194914
qUc:__ZN14ParticleSystem38UpdateModulesPostSimulationIncrementalER24ParticleSystemUpdateDataR23ParticleSystemParticlesjRKf
O9g:_Enumerator_Reset_m627751027_AdjustorThunk
onm:_CarController_set_Skidding_m3959191263
KWi:_Version__ctor_m872301635
Oob:__ZNK6Sprite9GetBoundsE8Vector2fbb
G1a:__ZNK19RenderEventsContext21CleanupCommandBuffersEv
dBf:__ZN5physx15PxVehicleUpdate13updateNoDriveEfRKNS_6PxVec3EffRKNS_43PxVehicleDrivableSurfaceToTireFrictionPairsEPNS_16PxVehicleNoDriveEPNS_25PxVehicleWheelQueryResultEPNS_29PxVehicleConcurrentUpdateDataE
xt:__ZN7mecanim12statemachine13StateConstant8TransferI14SafeBinaryReadEEvRT_
JJi:_List_1_System_Collections_Generic_ICollectionU3CTU3E_get_IsReadOnly_m507350231_gshared
tEa:__ZN11ContextGLES6CreateEi
Kid:__ZN5physx6shdfnd5ArrayINS_10PxTriangleENS0_19ReflectionAllocatorIS2_EEE15growAndPushBackERKS2_
JYj:_WillRenderCanvases_BeginInvoke_m1804779886
rll:__Z52RuntimeInvoker_Boolean_t97287965_Vector3_t3722313464PFvvEPK10MethodInfoPvPS4_
aZi:_List_1_set_Capacity_m3382070520_gshared
rql:__Z68RuntimeInvoker_Boolean_t97287965_RuntimeObject_ObjectU26_t2146539884PFvvEPK10MethodInfoPvPS4_
uvh:_U3CMouseDragOutsideRectU3Ec__Iterator1_Dispose_m267465418
n1h:_Decimal_CompareTo_m3502307243_AdjustorThunk
Qeg:_Convert_ToUInt16_m2952781888
xQb:__Z19TransferField_ArrayI18StreamedBinaryReadILb0EE27Converter_SimpleNativeClassI17AnimationCurveTplIfEEEvRK23StaticTransferFieldInfoR31RuntimeSerializationCommandInfoRT0_
NUa:__ZN14StackAllocator16FrameMaintenanceEb
aed:__ZL11SweepBoxBoxPKN5physx3Cct9SweepTestEPKNS0_11SweptVolumeEPKNS0_11TouchedGeomERKNS_14PxExtendedVec3ERKNS_6PxVec3ERNS0_12SweptContactE
_Wa:__Z18ReadStringFromFilePN4core17string_with_labelILi1EEERKNS_12basic_stringIcNS_20StringStorageDefaultIcEEEE
Wzh:_Scrollbar_get_value_m760470106
W5:__ZNK10GameObject20QueryComponentByTypeEPKN5Unity4TypeE
C0h:_Decimal_System_IConvertible_ToInt32_m1488426794_AdjustorThunk
VBg:_MonoCustomAttrs_IsUserCattrProvider_m2878058089
tbm:__ZL71InputField_t3762917431_CustomAttributesCacheGenerator_m_HideMobileInputP21CustomAttributesCache
Keb:__ZN11TextureData5ResetEv
Szc:__Z53Register_UnityEngine_GameObject_get_activeInHierarchyv
Oci:_ToBase64Transform_InternalTransformFinalBlock_m360524956
f8f:_ActivationContext_Dispose_m2038725770
ZFb:__Z35Transfer_Blittable_FixedBufferFieldI17RemapPPtrTransferiEvRK29SerializationCommandArgumentsR31RuntimeSerializationCommandInfo
l8:__ZL30InitializeCoreScriptingClassesv
wqj:_ReadOnlyCollection_1_Contains_m1699971074_gshared
_1g:_InternalEnumerator_1_Dispose_m630370856_AdjustorThunk
lh:_glBlitFramebuffer
ZXa:__ZN17ArchiveFileSystem5TouchER13FileEntryData
p7d:__ZNK5physx2Sc5Scene17prefetchForRemoveERKNS0_10StaticCoreE
RGi:_Enumerator_System_Collections_IEnumerator_get_Current_m3594024719_gshared
UFb:__Z35Transfer_Blittable_SingleValueFieldI14SafeBinaryReadhEvRT_R17GeneralMonoObjectRK23StaticTransferFieldInfo
p8l:__ZL97PointerEventData_t3807901092_CustomAttributesCacheGenerator_U3CuseDragThresholdU3Ek__BackingFieldP21CustomAttributesCache
ORd:__ZN5physx22NpParticleBaseTemplateINS_15PxParticleFluidENS_15NpParticleFluidEE13setVelocitiesEjRKNS_16PxStrideIteratorIKjEERKNS4_IKNS_6PxVec3EEE
Ygf:__ZN22BaseUnityConnectClientC2ERN11UnityEngine7Connect20BasePersistentValuesE
zsi:_Array_InternalArray__ICollection_CopyTo_TisInt64_t3736567304_m2845057751_gshared
Pdb:__ZNK12CubemapArray22GetTypeVirtualInternalEv
v7a:__ZN11Tetrahedron8TransferI18StreamedBinaryReadILb0EEEEvRT_
Lo:FUNCTION_TABLE_vif
Mo:FUNCTION_TABLE_vid
No:FUNCTION_TABLE_vii
Zwb:__Z40scripting_liveness_calculation_from_root18ScriptingObjectPtrPv
Erh:_SerializationEntry__ctor_m1411687997_AdjustorThunk
$1c:__ZN13InitialModuleD2Ev
$Il:__ZL65IContributeDynamicSink_t2255997386_CustomAttributesCacheGeneratorP21CustomAttributesCache
Lab:__ZN7Texture23VirtualRedirectTransferER24GenerateTypeTreeTransfer
z4e:_UNITY_FT_Set_Transform
hlc:__ZNK32RendererMaterialAnimationBinding12SetPPtrValueERKN11UnityEngine9Animation10BoundCurveEi
Gwk:__ZN6il2cpp8metadata15GenericMetadata20RegisterGenericClassEP18Il2CppGenericClass
kAm:_glDeleteFramebuffers__wrapper
T9k:__Z220RuntimeInvoker_Boolean_t97287965_RuntimeObject_Int32U26_t1369213839_Int32_t2950945753_Int32_t2950945753_Int32_t2950945753_RuntimeObject_SByte_t1669577662_Int32_t2950945753_ContractionU26_t961830454_ContextU26_t3937453398PFvvEPK10MethodInfoPvPS4_
odh:_Enumerator__ctor_m920120158_AdjustorThunk
nAc:__Z36Register_UnityEngine_RectOffset_Initv
LEl:__ZL78TextInfo_t3810425522_CustomAttributesCacheGenerator_TextInfo_Clone_m3838580862P21CustomAttributesCache
cVe:_cff_blend_build_vector
AQh:_WebHeaderCollection_ToString_m1263025316
H1g:_InternalEnumerator_1_MoveNext_m1015797184_gshared
Ilc:__ZZN12MeshRenderer15InitializeClassEvEN29FunctorImpl_134kDidDeleteMesh4CallEPviR11MessageData
ocl:__Z91RuntimeInvoker_Void_t1185182177_RuntimeObject_RuntimeObject_RuntimeObject_Int32_t2950945753PFvvEPK10MethodInfoPvPS4_
mlf:__ZN5physx25PxVehicleConstraintShader15getSerializableEv
o2f:_GetterAdapter_Invoke_m3767885970
c_i:_List_1__ctor_m747758800_gshared
LYf:_MethodBuilder_get_ReflectedType_m3038768129
$ii:_String_CreateString_m2818852475
FFi:_Enumerator_get_Current_m335492761_AdjustorThunk
Oql:__Z37RuntimeInvoker_Enumerator_t3923002270PFvvEPK10MethodInfoPvPS4_
Anl:__Z58RuntimeInvoker_Void_t1185182177_MinMaxGradient_t3677460847PFvvEPK10MethodInfoPvPS4_
Vgb:__ZN28EnlightenRendererInformation8TransferI14SafeBinaryReadEEvRT_
qZj:_CanvasRenderer_get_hasMoved_m2236392341
QGd:__ZN5physx12NpBatchQuery13getUserMemoryEv
GWk:_MessageEvent__ctor_m1231650089
Gra:__ZNK15Lz4Decompressor16DecompressMemoryEPKvPjPvS2_
VZe:_UNITY_tt_face_build_cmaps
xVi:_UInt64_System_IConvertible_ToDecimal_m806594027
CBg:_MemberAccessException__ctor_m3713703094
D$f:_MethodBase_get_ContainsGenericParameters_m2144492325
FFl:__ZL117GenericTypeParameterBuilder_t1988827940_CustomAttributesCacheGenerator_GenericTypeParameterBuilder_Equals_m3260957994P21CustomAttributesCache
$gc:__ZN4core8hash_mapINS_12basic_stringIcNS_20StringStorageDefaultIcEEEE10vector_setI4PPtrI11SpriteAtlasENSt3__24lessIS8_EE13stl_allocatorIS8_L18MemLabelIdentifier81ELi16EEENS_4hashIS4_EENS9_8equal_toIS4_EEEixERKS4_
yTj:__ZL24UnresolvedVirtualCall_47P12Il2CppObject20DateTime_t3738529785PK10MethodInfo
Lcb:__Z35UnityPropertySheet_MakeSortedColorsRKNSt3__23mapIN9ShaderLab16FastPropertyNameE10ColorRGBAfNS_4lessIS2_EENS_9allocatorINS_4pairIKS2_S3_EEEEEER10vector_mapIS2_S3_S5_NS6_INS7_IS2_S3_EEEEE
pTl:__ZL72PKCS12_t4101533061_CustomAttributesCacheGenerator_U3CU3Ef__switchU24map8P21CustomAttributesCache
pZe:_UNITY_tt_face_load_os2
EUl:__ZL90Coroutine_t3829159415_CustomAttributesCacheGenerator_Coroutine_ReleaseCoroutine_m809189848P21CustomAttributesCache
hle:__ZN5physx2GuL34fullContactsGenerationSphereConvexERKNS0_8CapsuleVERKNS0_11ConvexHullVERKNS_6shdfnd3aos12PsTransformVESB_PNS0_17PersistentContactERjRNS0_13ContactBufferEbRNS0_25PersistentContactManifoldERNS8_5Vec3VERKNS8_6FloatVEb
UWd:__ZN5physx19NpRigidBodyTemplateINS_14PxRigidDynamicEE16setRigidBodyFlagENS_15PxRigidBodyFlag4EnumEb
lud:__ZN5physx6shdfnd8PoolBaseINS_2Sc19ConstraintGroupNodeENS0_19ReflectionAllocatorIS3_EEE17releaseEmptySlabsEv
mFb:__Z29Transfer_Blittable_ArrayFieldI14SafeBinaryRead8Vector4fEvRT_R9ArrayInfoRK23StaticTransferFieldInfo
nlm:_VirtualInput_set_virtualMousePosition_m308564020
AJe:__ZNSt3__27__sort4IRNS_6__lessI24InterpolationDepthHandleS2_EEPS2_EEjT0_S6_S6_S6_T_
Ijg:_Hashtable_get_IsSynchronized_m1426775249
Zof:__Z56setPxVehicleTireLoadFilterDataMMaxFilteredNormalisedLoadPN5physx27PxVehicleTireLoadFilterDataEf
XUf:_ModuleBuilder_RegisterToken_m4166846047
aad:__ZN5physx3Cct8SweptBoxD2Ev
XYb:__ZZ23InitPlayerLoopCallbacksvEN51PostLateUpdateUpdateCustomRenderTexturesRegistrator7ForwardEv
Ebe:__ZN5physx2Cm12DelegateTaskINS_13PxsCCDContextEXadL_ZNS2_12postCCDSweepEPNS_10PxBaseTaskEEEED0Ev
dzh:_RawImage_OnPopulateMesh_m1115858855
gvj:_Predicate_1_Invoke_m2887746805_gshared
c9j:__ZN6il2cpp2vm13MetadataCache25GetStringLiteralFromIndexEi
G8f:_Hashtable_ToPrime_m33531354
vD:__ZN7mecanim9animation12EvaluateClipEPKNS0_4ClipEPKNS0_9ClipInputEPNS0_10ClipMemoryEPNS0_10ClipOutputE
Ucj:_Collection_1_IsSynchronized_m1117613618_gshared
Ygi:_String__ctor_m1926862525
mmd:__ZN5physx3Cct9SweepTest15onObstacleAddedEjPKNS_17PxObstacleContextERKNS_6PxVec3ES7_f
kFb:__ZN15SerializeTraitsI13dynamic_arrayI5RectTIfELj4EEE19ResizeSTLStyleArrayERS3_i
Xrd:__ZN5physx2Gu10SupportMapD2Ev
vTi:_TypeInitializationException__ctor_m3546444694
Evc:__ZNK9Transform16GetLocalRotationEv
ehb:__ZN4PPtrI11LightProbesE8TransferI18StreamedBinaryReadILb0EEEEvRT_
x1:__ZN11UnityEngine15CloudWebService23WebRequestUploadHandler17ConsumeUploadDataEj
Y9j:__ZNSt3__214__split_bufferI6pollfdRNS_9allocatorIS1_EEEC2EjjS4_
Ohh:_CrossAppDomainData_get_DomainID_m3516796532
epl:__Z68RuntimeInvoker_Void_t1185182177_Single_t1397266774_SByte_t1669577662PFvvEPK10MethodInfoPvPS4_
eCd:__ZNK5physx15NpActorTemplateINS_18PxArticulationLinkEE22getClientBehaviorFlagsEv
Rxg:_MemoryStream_set_Position_m3169779190
Q8b:__ZN13RenderManager29SetCurrentCameraAndStackStateEP6CameraP25CameraStackRenderingState
$0l:__ZL77Physics_t2310948930_CustomAttributesCacheGenerator_Physics_Raycast_m630863594P21CustomAttributesCache
gFf:_ExecuteEvents_get_scrollHandler_m2659345019
d0a:__ZNSt3__26__treeINS_12__value_typeIjN4core12basic_stringIcNS2_20StringStorageDefaultIcEEEEEENS_19__map_value_compareIjS7_NS_4lessIjEELb1EEE13stl_allocatorIS7_L18MemLabelIdentifier7ELi16EEE7destroyEPNS_11__tree_nodeIS7_PvEE
ipk:__ZN15dense_hashtableINSt3__24pairIK10KeyWrapperINS1_IP11Il2CppClassjEEES4_EES6_N6il2cpp8metadata14ArrayClassHashEN14dense_hash_mapIS6_S4_SB_NS6_14EqualsComparerINSA_17ArrayClassCompareEEENS0_9allocatorIS8_EEE9SelectKeyESF_SH_E12resize_deltaEjj
Ai:_JS_WebRequest_Release
fCd:__ZNK5physx15NpActorTemplateINS_18PxArticulationLinkEE12getAggregateEv
f0:__ZN11UnityEngine15CloudWebService14DataErrorEventD0Ev
atk:__ZN6il2cpp6icalls8mscorlib6System4Type20internal_from_handleEi
cUl:__ZL72RequiredByNativeCodeAttribute_t4130846357_CustomAttributesCacheGeneratorP21CustomAttributesCache
Lcg:_Boolean_System_IConvertible_ToUInt16_m3465173538_AdjustorThunk
k1c:__ZN14EmissionModule5ResetEv
Wkm:_StandaloneInput_SetAxisPositive_m3047996072
cjh:_Context__ctor_m254302079
Hbe:__ZN5physx13PxsCCDContext12postCCDSweepEPNS_10PxBaseTaskE
Cwk:__ZN6il2cpp8metadata15GenericMetadata7InflateEPK19Il2CppGenericMethodPK20Il2CppGenericContext
NLh:_KeyGeneratedEventHandler_EndInvoke_m3057317531
kgb:__ZN19ShaderPropertySheet16SetArrayPropertyEN9ShaderLab16FastPropertyNameENS_12PropertyTypeEPKvj
EAh:_Selectable_FindSelectable_m2348614027
R1b:__ZN22PerThreadPageAllocatorC2Ev
SLf:_FloatTween_get_duration_m1227071020
jxk:__ZN15dense_hashtableINSt3__24pairIK10KeyWrapperIP12Il2CppObjectEN6il2cpp2gc9CachedCCWEEES5_NS7_5utils11PointerHashIS3_EEN14dense_hash_mapIS5_S9_SD_NS5_14EqualsComparerINS0_8equal_toIS4_EEEENS0_9allocatorISA_EEE9SelectKeyESI_SK_E16reset_thresholdsEv
TNf:_DropdownItem_OnPointerEnter_m1492957598
hAe:__ZN5physx6shdfnd10Foundation19AlignCheckAllocator28deregisterAllocationListenerERNS_20PxAllocationListenerE
GBd:__ZN5physx2Sc21ArticulationJointCore12setChildPoseERKNS_11PxTransformE
x2f:_ParameterInfo_get_ParameterType_m4197803362
Qal:__Z91RuntimeInvoker_Void_t1185182177_Int32U26_t1369213839_Int32U26_t1369213839_Int32_t2950945753PFvvEPK10MethodInfoPvPS4_
XHc:__ZN8GUIState8EndOnGUIEv
K$e:_UNITY_TT_Get_VMetrics
F6k:__Z49RuntimeInvoker_Char_t3634460470_Int16_t2552820387PFvvEPK10MethodInfoPvPS4_
Vde:__ZN5physx33solveContactCoulombBlockWriteBackEPKNS_23PxcSolverConstraintDescEjRNS_16PxcSolverContextEPNS_25PxcThresholdStreamElementEjPi
qAi:_EqualityComparer_1__ctor_m2283513024_gshared
phg:_SimpleEnumerator__cctor_m2844299657
fBg:_LocalDataStoreSlot__ctor_m4104083971
Tfj:_Array_qsort_TisVector3_t3722313464_m4117329442_gshared
dqj:_ReadOnlyCollection_1_System_Collections_Generic_IListU3CTU3E_RemoveAt_m3849058645_gshared
vRj:_AudioSource_ReadExtensionName_m725112169
hEj:_X509CertificateEnumerator_System_Collections_IEnumerator_Reset_m2039524926
Ile:__ZN5physx9PxTaskMgr17submitUnnamedTaskERNS_6PxTaskENS_10PxTaskType4EnumE
Fgl:__Z128RuntimeInvoker_Void_t1185182177_RuntimeObject_BooleanU26_t4125257963_SByte_t1669577662_Int32U26_t1369213839_Int32U26_t1369213839PFvvEPK10MethodInfoPvPS4_
kHa:__ZN7Texture21GetMasterTextureLimitEv
idh:_Enumerator_Dispose_m3503748991_AdjustorThunk
Fac:__Z12CanAddScriptR10GameObject17ScriptingClassPtrPS1_S2_
Rlk:__ZN6il2cpp2vm10Reflection12HasAttributeEP12Il2CppObjectP11Il2CppClass
Qnl:__Z103RuntimeInvoker_Boolean_t97287965_RuntimeObject_Vector2_t2156229523_RuntimeObject_Vector3U26_t3464235976PFvvEPK10MethodInfoPvPS4_
Ysj:_Comparison_1_BeginInvoke_m3263247262_gshared
zja:__ZN9ShaderLabL25StaticInitializeShaderLabEPv
HCe:__ZN12MeshCollider23VirtualRedirectTransferER24GenerateTypeTreeTransfer
A9d:__ZNK5physx2Sq12BucketPruner5sweepERKNS0_9ShapeDataERKNS_6PxVec3ERfRNS0_14PrunerCallbackE
U:Math_max
bFl:__ZL63FileNotFoundException_t225391025_CustomAttributesCacheGeneratorP21CustomAttributesCache
jem:__ZL64HorizontalLayoutGroup_t2586782146_CustomAttributesCacheGeneratorP21CustomAttributesCache
pUj:__ZL24UnresolvedVirtualCall_92P12Il2CppObjectPK10MethodInfo
rmk:_il2cpp_class_get_methods
iSc:__ZN14ParticleSystem33UpdateLocalToWorldMatrixAndScalesERK9Transformb
D0k:_HitInfo_SendMessage_m1343099429_AdjustorThunk
_Hb:__Z18Transfer_BlittableI24GenerateTypeTreeTransferLb0EN4math12int2_storageEEvRK29SerializationCommandArgumentsR31RuntimeSerializationCommandInfo
V2h:_StackTrace_get_trace_m1194606084
Agi:_Single_CompareTo_m2785801815_AdjustorThunk
Fzk:__ZN6il2cpp2os6Thread16GetCurrentThreadEv
pui:_Array_InternalArray__Insert_TisUILineInfo_t4195266810_m3191124053_gshared
Unc:__ZN10GameObject13ComponentPair15SetComponentPtrEPN5Unity9ComponentE
Dym:_glBlitFramebuffer__wrapper
nIe:__ZN5physx6shdfnd8internal8HashBaseINS0_4PairIKPKNS0_14NamedAllocatorEPKcEES6_NS0_4HashIS6_EENS1_11HashMapBaseIS6_S9_SC_NS0_20NonTrackingAllocatorEE6GetKeyESE_Lb1EE15reserveInternalEj
RYl:__ZL109SceneManager_t2787271929_CustomAttributesCacheGenerator_SceneManager_INTERNAL_CALL_GetActiveScene_m1427626561P21CustomAttributesCache
Thc:__Z13RegisterClassI10MeshFilterEvv
e2k:_Transform_INTERNAL_set_position_m3627767375
j0a:__ZN10TagManager8TransferI19StreamedBinaryWriteILb0EEEEvRT_
swb:__ZN11PreloadData23VirtualRedirectTransferER18StreamedBinaryReadILb0EE
Vjb:__ZN13sorted_vectorI4PPtrI11SpriteAtlasENSt3__24lessIS2_EE13stl_allocatorIS2_L18MemLabelIdentifier1ELi16EEE21sort_clear_duplicatesEv
hYk:_PropertyNameUtils_PropertyNameFromString_Injected_m1259736140
Cam:__ZL60FontData_t746620069_CustomAttributesCacheGenerator_m_MinSizeP21CustomAttributesCache
veg:_Char_System_IConvertible_ToDateTime_m3564102661
Xfk:__ZN15dense_hashtableINSt3__24pairIK10KeyWrapperINS1_IPK9FieldInfoP11Il2CppClassEEEjEES9_17ReflectionMapHashIS8_EN14dense_hash_mapIS9_jSD_NS9_14EqualsComparerINS0_8equal_toIS8_EEEENS0_9allocatorISB_EEE9SelectKeyESI_SK_E16reset_thresholdsEv
Lqa:__ZNK13TrailRenderer22GetTypeVirtualInternalEv
Oib:__ZN6Sprite17MainThreadCleanupEv
Nym:_glBlendFuncSeparate__wrapper
ST:__ZN10AudioMixer14UpdateMuteSoloEv
F9:__Z17GetMonoManagerPtrv
sJd:__ZN5physx6shdfnd5ArrayINS_3Scb13MaterialEventENS0_19ReflectionAllocatorIS3_EEE15growAndPushBackERKS3_
w$a:__ZN9Transform35SetLocalPositionWithoutNotificationERKN4math7_float3Ey
w4l:__ZL87GUIUtility_t1868551600_CustomAttributesCacheGenerator_U3CguiIsExitingU3Ek__BackingFieldP21CustomAttributesCache
mgl:__Z69RuntimeInvoker_UInt64_t4134040092_Int32_t2950945753_SByte_t1669577662PFvvEPK10MethodInfoPvPS4_
Bj:_JS_Eval_ClearTimeout
eEm:_glDepthFunc__wrapper
Fzh:_Raycast2DCallback_Invoke_m1500574149
WLa:__ZN7ApiGLES16SetPatchVerticesEi
Vlb:__ZN13CameraLODData9AddAtBackEhf
awd:__ZN5physx2Sc5Scene11onBodySleepEPNS0_7BodySimE
wBk:__ZN6il2cpp2gc16GarbageCollector16InvokeFinalizersEv
Edg:_Byte_System_IConvertible_ToInt64_m285584218_AdjustorThunk
UZk:_Rect_get_size_m477575021_AdjustorThunk
T0j:__ZN6il2cpp2vm5Class20FromGenericParameterEPK22Il2CppGenericParameter
Dpi:_Array_IndexOf_TisVector3_t3722313464_m4284163268_gshared
Kad:__ZL28GeomMTDCallback_PlaneCapsuleRN5physx6PxVec3ERfRKNS_10PxGeometryERKNS_11PxTransformES5_S8_
Noa:__ZN15GlobalCallbacksC2Ev
rmh:_MethodCall_System_Runtime_Remoting_Messaging_IInternalMessage_set_Uri_m1919576807
wri:_Array_InternalArray__ICollection_Add_TisLabelData_t360167391_m1648183135_gshared
S8g:_Comparer_1_System_Collections_IComparer_Compare_m2016223770_gshared
gLi:_Encoding_GetBytes_m3823106599
qfm:__ZL57BaseMeshEffect_t2440176439_CustomAttributesCacheGeneratorP21CustomAttributesCache
Dfl:__Z74RuntimeInvoker_DateTime_t3738529785_DateTime_t3738529785_Int32_t2950945753PFvvEPK10MethodInfoPvPS4_
O5e:_UNITY_FT_New_Memory_Face
UId:__ZNK5physx10NpMaterial18getDynamicFrictionEv
z9i:_Collection_1_System_Collections_IList_IndexOf_m3271188411_gshared
dQg:_Context_Clear_m2678836033
S3e:__ZN20TextRenderingPrivate21TextMeshGeneratorImpl5FlushEv
Dxg:_MonoIO_GetFileStat_m678141354
GKb:__Z18Transfer_BlittableI19StreamedBinaryWriteILb0EELb0E5RectTIiEEvRK29SerializationCommandArgumentsR31RuntimeSerializationCommandInfo
xMf:__Z15CastclassSealedP12Il2CppObjectP11Il2CppClass
BOe:__ZN14DetailDatabase8TransferI18StreamedBinaryReadILb0EEEEvRT_
ohc:__ZN15ApplicationInfo14GetSandboxTypeEv
PJd:__ZN5physx9NpPhysics16createConvexMeshERNS_13PxInputStreamE
$Fb:__Z18Transfer_BlittableI17RemapPPtrTransferLb1EhEvRK29SerializationCommandArgumentsR31RuntimeSerializationCommandInfo
c1h:_Decimal_IsZero_m4250358244_AdjustorThunk
TAg:_UnmanagedMemoryStream_get_CanRead_m3770815400
TBk:__ZNSt3__26vectorIjNS_9allocatorIjEEE26__swap_out_circular_bufferERNS_14__split_bufferIjRS2_EE
x9b:__ZN16ReflectionProbes40UpdateRealtimeReflectionProbesTimeslicedEv
Ivk:__ZNSt3__26__treeINS_12__value_typeIP24Il2CppReflectionAssemblyPvEENS_19__map_value_compareIS3_S5_NS_4lessIS3_EELb1EEENS_9allocatorIS5_EEE16__insert_node_atEPNS_16__tree_node_baseIS4_EERSF_SF_
U0h:_Decimal_u64_m3374804932
nvd:__ZN5physx2Sq17SceneQueryManager8addShapeERKNS_7NpShapeERKNS_12PxRigidActorEbPNS_9PxBounds3E
OTi:_UInt16_System_IConvertible_ToInt32_m1950778303_AdjustorThunk
Htb:__ZNK30RuntimeInitializeOnLoadManager22GetTypeVirtualInternalEv
n6j:__ZN15dense_hashtableINSt3__24pairIK10KeyWrapperIN6il2cpp5utils13dynamic_arrayIPK10Il2CppTypeLj4EEEEPFvvEEESA_NS3_8metadata19Il2CppSignatureHashEN14dense_hash_mapISA_SD_SG_NSA_14EqualsComparerINSF_22Il2CppSignatureCompareEEENS0_9allocatorISE_EEE9SelectKeyESK_SM_E12resize_deltaEjj
Pkc:__ZN16ReflectionProbes15InitializeClassEv
NAl:__ZL71Enum_t4135868527_CustomAttributesCacheGenerator_Enum_Format_m2588135982P21CustomAttributesCache
F7j:__ZNK15dense_hashtableINSt3__24pairIK10KeyWrapperIPK11Il2CppClassEPKcEES6_N6il2cpp5utils11PointerHashIS3_EEN14dense_hash_mapIS6_S9_SE_NS6_14EqualsComparerINS0_8equal_toIS5_EEEENS0_9allocatorISA_EEE9SelectKeyESJ_SL_E12test_deletedEj
Xnj:_ReadOnlyCollection_1_System_Collections_ICollection_CopyTo_m2527663815_gshared
Zhj:_Dictionary_2_Do_ICollectionCopyTo_TisKeyValuePair_2_t3699644050_m4159638770_gshared
Duk:__ZN6il2cpp2vm5Image9GetCorlibEv
n4k:_Vector3_get_left_m2428419009
yI:__ZN8Animator13BatchedFKPassERK13dynamic_arrayIP14PlayableOutputLj4EE
eHl:__ZL50Pointer_t2088917139_CustomAttributesCacheGeneratorP21CustomAttributesCache
$Md:__ZNK5physx15NpActorTemplateINS_7PxClothEE14getOwnerClientEv
Avb:__ZN16LightmapSettings11UnshareDataEv
Cde:__ZNK5physx2Gu29EPASupportMapPairRelativeImplINS0_8CapsuleVES2_E9doSupportERKNS_6shdfnd3aos5Vec3VERS6_S9_S9_
VEf:_ExecuteEvents_Execute_m113814934
ila:__ZN13RuntimeStaticINSt3__23mapIN4core12basic_stringIcNS2_20StringStorageDefaultIcEEEES6_NS0_4lessIS6_EE13stl_allocatorINS0_4pairIKS6_S6_EEL18MemLabelIdentifier13ELi16EEEELb0EE13StaticDestroyEPv
Gfj:_Array_qsort_TisColor32_t2600501292_m1362211604_gshared
sze:__ZN5physx10SubSortSAH5sort4EPjjRNS_6shdfnd5ArrayINS_11RTreeNodeNQENS2_19ReflectionAllocatorIS4_EEEERjjPS4_
Y8g:_Enumerator_System_Collections_IEnumerator_get_Current_m2979767597_AdjustorThunk
kJg:_MD5CryptoServiceProvider_ProcessFinalBlock_m2241588515
OBh:_ScrollRect_GetBounds_m449872505
Ak:_glIsVertexArray
q7f:_SmallXmlParser_Read_m3485223434
oqg:_Int16_Parse_m2276856944
L1g:_InternalEnumerator_1__ctor_m3443175323_AdjustorThunk
Efa:__ZN5Unity9Component8TransferI18StreamedBinaryReadILb0EEEEvRT_
JGl:__ZL131CustomAttributeData_t1084486650_CustomAttributesCacheGenerator_CustomAttributeData_t1084486650____ConstructorArguments_PropertyInfoP21CustomAttributesCache
ga:invoke_fff
Kqm:_mbsinit
nxm:b14
wHe:__ZN5physx2Sc7PhysicsC2ERKNS_17PxTolerancesScaleERKNS_14PxvOffsetTableE
wJe:__ZNSt3__26__sortIRNS_6__lessI24InterpolationDepthHandleS2_EEPS2_EEvT0_S6_T_
k7e:__ZN2UI6Canvas17MainThreadCleanupEv
Cpb:__ZNSt3__26vectorI14SubstanceInputNS_9allocatorIS1_EEE6assignINS_11__wrap_iterIPS1_EEEENS_9enable_ifIXaasr21__is_forward_iteratorIT_EE5valuesr16is_constructibleIS1_NS_15iterator_traitsISA_E9referenceEEE5valueEvE4typeESA_SA_
zJa:__ZN6prcoreL12RemapGenericI17TexFormatARGB155517TexFormatRGBA8888EEvPKNS_9InnerInfoE
z3j:__ZN13Il2CppHashMapIPK19Il2CppGenericMethodPK26Il2CppGenericMethodIndicesN6il2cpp8metadata23Il2CppGenericMethodHashENS7_26Il2CppGenericMethodCompareENSt3__29allocatorINSA_4pairIK10KeyWrapperIS2_ES5_EEEEEC2EjRKS8_RKS9_
B_f:_TypeBuilder_HasElementTypeImpl_m1871001960
Ffi:_SecurityFrame__ctor_m2140076703_AdjustorThunk
Pyi:_DefaultComparer_Equals_m2458578172_gshared
yNa:__ZN7ApiGLES13CreateProgramEv
kxm:b11
W9g:_Enumerator_VerifyState_m4003066746_gshared
zHa:__ZN4crnd12crn_unpackerD2Ev
Ok:_emscripten_glTexImage2D
M7g:_Comparer_1_System_Collections_IComparer_Compare_m2537217645_gshared
$7:__ZN18ScriptingArguments9AddStringEPKc
lHk:_setup_header
iEi:_KeyValuePair_2__ctor_m3953574590_AdjustorThunk
Qqa:__ZN13TrailRenderer23VirtualRedirectTransferER14SafeBinaryRead
gni:_SetPropertyUtility_SetStruct_TisAspectMode_t3417192999_m1565063249_gshared
hoj:_ReadOnlyCollection_1_System_Collections_IList_get_IsReadOnly_m375760151_gshared
Bde:__ZNK5physx2Gu29EPASupportMapPairRelativeImplINS0_8CapsuleVES2_E18doWarmStartSupportEiiRNS_6shdfnd3aos5Vec3VES7_S7_
TJh:_CryptoConvert_ToCapiKeyBlob_m3371450375
HIa:__ZL23stbir__resize_arbitraryPvPKviiiS_iiiffffPfiij14stbir_datatype12stbir_filterS4_10stbir_edgeS5_16stbir_colorspace
dSc:__ZN23ParticleSystemParticles13array_reserveEj
sIb:__Z18Transfer_BlittableI24GenerateTypeTreeTransferLb1E8Vector4fEvRK29SerializationCommandArgumentsR31RuntimeSerializationCommandInfo
rxm:b18
sSc:__ZNK24OptimizedPolynomialCurve26FindMinMaxDoubleIntegratedEv
Zk:_pthread_detach
t9j:__ZN6il2cpp2vm19SocketPollingThread7RunLoopEv
zOf:_FontUpdateTracker_UntrackText_m1981515690
l$i:_List_1_System_Collections_ICollection_get_SyncRoot_m1937857346_gshared
K8d:__ZN5physx11EdgeManager6resizeEj
Toc:__ZN15DirectorManager20ScheduleGraphDestroyERK14HPlayableGraph
kRb:__ZNSt3__213__stable_sortIRN10vector_mapI17ScriptingClassPtrPKN5Unity4TypeENS_4lessIS2_EENS_9allocatorINS_4pairIS2_S6_EEEEE13value_compareENS_11__wrap_iterIPSB_EEEEvT0_SJ_T_NS_15iterator_traitsISJ_E15difference_typeEPNSM_10value_typeEi
CGh:_SimpleCollator_FillSurrogateSortKeyRaw_m725998232
kOe:__ZNSt3__26vectorI14SplatPrototypeNS_9allocatorIS1_EEE8__appendEj
r0i:_List_1_AddEnumerable_m1284696147_gshared
NPh:_IPAddress_Equals_m1823478787
Vjh:_Context_CreateNewContext_m3053563976
qWl:__ZL83RectOffset_t1369453676_CustomAttributesCacheGenerator_RectOffset_set_top_m713260669P21CustomAttributesCache
fva:__ZN9ShaderLab25SerializedTextureProperty8TransferI24GenerateTypeTreeTransferEEvRT_
Jhj:_Array_swap_TisVector2_t2156229523_TisVector2_t2156229523_m345092822_gshared
t6i:_Collection_1_get_Item_m1773274637_gshared
iQe:__ZN7Terrain10FlushDirtyEv
ZZe:_tt_cmap14_char_next
dLb:__Z18Transfer_BlittableI19StreamedBinaryWriteILb0EELb0EdEvRK29SerializationCommandArgumentsR31RuntimeSerializationCommandInfo
DXd:__ZN5physx2Sc5Scene12removeStaticERNS0_10StaticCoreERNS_6shdfnd11InlineArrayIPKNS0_9ShapeCoreELj64ENS4_19ReflectionAllocatorIS8_EEEEb
iva:__ZN11NamedObject8TransferI18StreamedBinaryReadILb0EEEEvRT_
LQa:__ZNK17GPUSkinPoseBuffer12GetBoneCountEv
JRk:_InvokableCall_remove_Delegate_m1376110510
mVh:_Capture_get_Value_m3919646039
Vjg:_Hashtable_Clear_m3112193608
ZNi:_UTF8Encoding_InternalGetByteCount_m771565606
guk:__ZNK15dense_hashtableINSt3__24pairIK10KeyWrapperIP14Il2CppIUnknownEjEES5_N6il2cpp5utils11PointerHashIS3_EEN14dense_hash_mapIS5_jSB_NS5_14EqualsComparerINS0_8equal_toIS4_EEEENS0_9allocatorIS7_EEE9SelectKeyESG_SI_E12test_deletedEj
nPc:__Z18Transfer_BlittableI8JSONReadLb1EyEvRK29SerializationCommandArgumentsR31RuntimeSerializationCommandInfo
uXi:_List_1_System_Collections_IList_Remove_m3654336679_gshared
wWl:__ZL51GUILayer_t2783472903_CustomAttributesCacheGeneratorP21CustomAttributesCache
sDl:__ZL56IDictionary_2_t3177279192_CustomAttributesCacheGeneratorP21CustomAttributesCache
joi:_Array_InternalArray__IEnumerable_GetEnumerator_TisUInt64_t4134040092_m1382862496_gshared
ul:_emscripten_glMatrixMode
qyh:_MaskableGraphic_UnityEngine_UI_IClippable_get_gameObject_m1739855597
b8h:_NumberFormatInfo_get_RawPercentGroupSizes_m97703232
hB:__ZN8Animator23VirtualRedirectTransferER18StreamedBinaryReadILb0EE
b9h:_Guid__ctor_m3562600567_AdjustorThunk
y2:__ZN19CloudServiceHandler19StopEventDispatcherEv
ive:__ZN5physx13GuMeshFactory17createHeightFieldERNS_13PxInputStreamE
M_d:__ZN5physx2Sc10NPhaseCore25createShapeInstancePairLLERNS0_8ShapeSimES3_NS_7PxFlagsINS_10PxPairFlag4EnumEtEE
VBe:__ZN8Collider11PoseChangedEb
Jjf:__ZN13WheelCollider16CheckConsistencyEv
A$:__ZN11UnityEngine15CloudWebService14DataDispatcher16PrepareDataBlockERNS0_16SessionContainerE
gSa:__ZN18GfxFramebufferGLES5ClearE13GfxClearFlagsRK10ColorRGBAffib
R$d:__ZThn8_N5physx2Sc19ShapeInstancePairLL12onDeactivateEj
fuf:__ZNK5physx40PxVehicleDifferential4WDataGeneratedInfo23visitInstancePropertiesINS_18RepXPropertyFilterINS_2Sn17RepXVisitorReaderINS_27PxVehicleDifferential4WDataEEEEEEEjT_j
$Xi:_List_1_Sort_m2163953164_gshared
erh:_ObjectManager_DoFixups_m3038765937
pWi:_UIntPtr_ToString_m984583492_AdjustorThunk
OPb:__ZL26Transfer_SimpleNativeClassI18StreamedBinaryReadILb0EE10RectOffsetLb0EEvRK29SerializationCommandArgumentsR31RuntimeSerializationCommandInfo
I0g:_InternalEnumerator_1_get_Current_m2316281569_gshared
G0b:__ZL12DepthPassJobPN21GfxDeviceAsyncCommand10ArgScratchEPKNS_3ArgE
tta:__ZNSt3__26vectorIN9ShaderLab20SerializedSubProgram16TextureParameterENS_9allocatorIS3_EEE6assignINS_11__wrap_iterIPS3_EEEENS_9enable_ifIXaasr21__is_forward_iteratorIT_EE5valuesr16is_constructibleIS3_NS_15iterator_traitsISC_E9referenceEEE5valueEvE4typeESC_SC_
Ych:_Transform_1_EndInvoke_m1701794896_gshared
IKc:__ZN5Unity9rapidjson6WriterI16TempBufferWriterNS0_4UTF8IcEES4_13JSONAllocatorE11WriteDoubleEd
UAe:__ZN9Rigidbody16ApplyConstraintsEv
FPi:_Thread_SetCachedCurrentUICulture_m1729523031
ibf:__Z55Register_UnityEngine_CanvasGroup_get_ignoreParentGroupsv
gvh:_InputField_get_minHeight_m2822964544
ric:__Z13RegisterClassI19LowerResBlitTextureEvv
bQg:_ClientContext_set_ClientHelloProtocol_m4189379912
wZc:__ZN11MinMaxCurve5ResetE23ParticleSystemCurveModef
Bn:FUNCTION_TABLE_iiiiiiiiiiii
cSc:__ZNK14ParticleSystem27CalculateMaxActiveParticlesEv
V$i:_List_1_get_Item_m1686506901_gshared
tTd:__ZN5physx2Sc17ParticleSystemSim8setFlagsEj
z2a:__ZN16GraphicsSettingsD0Ev
vdc:__Z29StdTemplateConversionFunctionIshEbPvR14SafeBinaryRead
n:cttz_i8
SUe:_UNITY_FT_GlyphLoader_Add
kye:__ZN5physx2Gu15EdgeListBuilder18CreateEdgesToFacesEjPKjPKt
vid:__ZN5physx11PxMeshQuery5sweepERKNS_6PxVec3EfRKNS_10PxGeometryERKNS_11PxTransformEjPKNS_10PxTriangleERNS_10PxSweepHitENS_7PxFlagsINS_9PxHitFlag4EnumEtEEPKjfb
EBf:__Z23RegisterModule_Vehiclesv
RRj:_AudioListener_INTERNAL_CALL_ReadExtensionPropertyName_m330480156
GHl:__ZL62ActivationArguments_t4219999170_CustomAttributesCacheGeneratorP21CustomAttributesCache
Gpb:__ZN14SubstanceInput22CopyFromSubstanceInputERKS_
Kog:_Convert_ToUInt16_m867476252
rm:_emscripten_glViewport
yDk:__ZN6il2cpp6icalls8mscorlib6System15MonoCustomAttrs17IsDefinedInternalEP12Il2CppObjectP20Il2CppReflectionType
gbe:__ZN5physx6shdfnd5ArrayIPhNS0_19ReflectionAllocatorIS2_EEE8recreateEj
TFi:_Enumerator__ctor_m40451936_AdjustorThunk
pll:__Z53RuntimeInvoker_Vector3_t3722313464_Single_t1397266774PFvvEPK10MethodInfoPvPS4_
gTk:_Gradient_t3067099924_marshal_pinvoke_back
A_j:_SkeletonBone_t4134054672_marshal_pinvoke_back
hJl:__ZL115SynchronizationAttribute_t3946661254_CustomAttributesCacheGenerator_SynchronizationAttribute_IsContextOK_m324067792P21CustomAttributesCache
bUf:_CustomAttributeData_get_Constructor_m489601093
_$l:__ZL56PlayableGraph_t3515989261_CustomAttributesCacheGeneratorP21CustomAttributesCache
oWe:_cff_parse_font_bbox
DDe:__ZThn28_N14PhysicsManagerD0Ev
Uxc:__Z35Application_Get_Custom_PropIsEditorv
Jjd:__Z14raycast_sphereRKN5physx10PxGeometryERKNS_11PxTransformERKNS_6PxVec3ES8_fNS_7PxFlagsINS_9PxHitFlag4EnumEtEEjPNS_12PxRaycastHitEbPFbRSD_PvESG_
Yrb:__ZN14PlayerSettings23VirtualRedirectTransferER18StreamedBinaryReadILb0EE
l3h:_Double_System_IConvertible_ToDateTime_m2414543049_AdjustorThunk
Cdf:__ZN11UnityEngine15PlatformWrapper16GetVRFieldOfViewEv
K3h:_Double_CompareTo_m3151899116
qMk:__ZN6il2cpp2os5Event5ResetEv
T5b:__Z26CombineDepthNormalsTextureRK17RenderLoopContextR13dynamic_arrayI16RenderObjectDataLj4EE
IZe:_tt_name_ascii_from_other
rQj:_ToggleGroup__ctor_m3308114662
nwk:__ZN6il2cpp8metadata15GenericMetadata17InflateParametersEPK13ParameterInfohPK20Il2CppGenericContextb
w0a:__ZN6Camera13AwakeFromLoadE17AwakeFromLoadMode
ahj:_Array_Sort_TisUILineInfo_t4195266810_m3737783007_gshared
tXk:_PlayableAsset_Internal_CreatePlayable_m2550417712
pE:__ZNK17AnimationPlayable27GetNextCompatibleDescendantEi
Wqe:__ZNK5physx2Cm12DelegateTaskINS_2Sc5SceneEXadL_ZNS3_23postIslandGenSecondPassEPNS_10PxBaseTaskEEEE7getNameEv
AUa:__ZN4PPtrI6SpriteE8TransferI18StreamedBinaryReadILb0EEEEvRT_
vcg:_Convert_ToInt16_m3324557887
sj:_emscripten_glPixelStorei
PBj:_TlsStream_Write_m188217214
xNb:__ZN4PPtrI9Texture2DE8TransferI18StreamedBinaryReadILb1EEEEvRT_
hjl:__Z50RuntimeInvoker_Ray_t3785851493_Vector3_t3722313464PFvvEPK10MethodInfoPvPS4_
NUb:__Z25SetNeedToPerformRenderingb
G$c:__ZN12LightsModule8TransferI17RemapPPtrTransferEEvRT_
Fsm:__ZN10__cxxabiv116__shim_type_infoD2Ev
oIj:_Alternation__ctor_m1629257642
EVi:_UInt64_System_IConvertible_ToInt32_m949522652_AdjustorThunk
J_a:__ZN10GameObjectD2Ev
V0b:__ZN14qsort_internal30FindAndMovePivotToLastPositionIP15RODataDepthPassi17ROSorterDepthPassEEvT_S4_T0_T1_
w3c:__ZN29InitialModulePropertyBindings13GetFloatValueERK14ParticleSystemi
EBg:_MethodAccessException__ctor_m3411913042
dTj:__ZL24UnresolvedVirtualCall_26P12Il2CppObjectS0_iiPK10MethodInfo
Ece:__ZN5physxL27PxcSweepAnyShapeHeightfieldERKNS_11PxsCCDShapeES2_PKNS_12PxsRigidBodyES5_RKNS_11PxTransformES8_fRNS_6PxVec3ESA_RNS_10PxcNpCacheERNS_18PxcNpThreadContextE
GBi:_EqualityComparer_1__ctor_m1767308726_gshared
Mui:_KeyValuePair_2_get_Key_m2106922848_gshared
G8b:__ZN12CullingGroup10SendEventsEPK17CullingGroupEventj
_9j:__ZNSt3__214__split_bufferI6pollfdRNS_9allocatorIS1_EEED2Ev
f8h:_NumberFormatInfo_get_PerMilleSymbol_m1360140831
kOg:_EncryptedData_get_EncryptionAlgorithm_m905084934
Uni:_Array_InternalArray__IEnumerable_GetEnumerator_TisCustomAttributeTypedArgument_t2723150157_m1333528454_gshared
vGf:_PointerInputModule__ctor_m3728889932
g5:__ZThn32_NK8Renderer8GetLayerEv
Qsc:__ZNK4Mesh17GetPrimitiveCountEv
sqi:_Array_InternalArray__IndexOf_TisUInt64_t4134040092_m1206929132_gshared
K7d:__ZN5physx3Scb5SceneD2Ev
qGi:_Enumerator_System_Collections_IEnumerator_Reset_m2915500989_gshared
tWe:_cff_parse_vsindex
V3f:_ResourceSet_System_Collections_IEnumerable_GetEnumerator_m2807499934
pim:__ZL66SkidTrail_t3884084597_CustomAttributesCacheGenerator_m_PersistTimeP21CustomAttributesCache
dvk:__ZN30dense_hashtable_const_iteratorINSt3__24pairIK10KeyWrapperINS1_IPKcS4_EEEiEES6_24NamespaceAndNamePairHashN14dense_hash_mapIS6_iS9_NS6_14EqualsComparerI26NamespaceAndNamePairEqualsEENS0_9allocatorIS8_EEE9SelectKeyESD_SF_E30advance_past_empty_and_deletedEv
Aqg:_Int32_ValidDigit_m1059003769
Qim:__ZL153U3CCountStartU3Ec__Iterator0_t113046106_CustomAttributesCacheGenerator_U3CCountStartU3Ec__Iterator0_System_Collections_IEnumerator_get_Current_m294201569P21CustomAttributesCache
cDm:_emscripten_glTexParameterfv__wrapper
BRl:__ZL54MemberFilter_t426314064_CustomAttributesCacheGeneratorP21CustomAttributesCache
ewh:_LayoutGroup_get_rectTransform_m442863741
BCb:__Z18Transfer_BlittableI14SafeBinaryReadLb1E9BoundsIntEvRK29SerializationCommandArgumentsR31RuntimeSerializationCommandInfo
xym:b63
ink:_il2cpp_method_get_param_count
Zuc:__ZN10systeminfo19ISOToSystemLanguageERN4core12basic_stringIcNS0_20StringStorageDefaultIcEEEE
z0l:__ZL88U3CInvokeMessageIdSubscribersU3Ec__AnonStorey0_t907692441_CustomAttributesCacheGeneratorP21CustomAttributesCache
Bik:__ZNK15dense_hashtableINSt3__24pairIK10KeyWrapperINS1_IPK12PropertyInfoP11Il2CppClassEEEjEES9_17ReflectionMapHashIS8_EN14dense_hash_mapIS9_jSD_NS9_14EqualsComparerINS0_8equal_toIS8_EEEENS0_9allocatorISB_EEE9SelectKeyESI_SK_E3endEv
Uij:_LayoutGroup_SetProperty_TisAxis_t3613393006_m3591044743_gshared
cBe:__Z16GetDynamicsScenev
X_d:__ZThn8_N5physx2Sc18TriggerInteraction7destroyEv
g1l:__ZL94Physics_t2310948930_CustomAttributesCacheGenerator_Physics_Raycast_m3336206959____maxDistance2P21CustomAttributesCache
bBl:__ZL69RuntimeArray_CustomAttributesCacheGenerator_Array_SetValue_m282347242P21CustomAttributesCache
L1e:_ps_dimension_done
pxb:__ZN12ScriptMapperD0Ev
scl:__Z67RuntimeInvoker_GCHandle_t3351438187_RuntimeObject_Int32_t2950945753PFvvEPK10MethodInfoPvPS4_
Tlm:_AeroplaneController_set_AirBrakes_m3742686053
P3h:_Double_Parse_m4153729520
Vyj:_IndexedSet_1_AddUnique_m861843892_gshared
Epb:__ZN14SubstanceInputD2Ev
Agb:__ZN16LightmapSettings8TransferI14SafeBinaryReadEEvRT_
Gya:__ZN17BufferManagerGLES13ReleaseBufferEP14DataBufferGLES
aPg:_CipherSuite_Write_m1172814058
tsd:__ZN5physx6shdfnd5ArrayIPvNS0_19ReflectionAllocatorINS_16NpConnectorArrayEEEE15growAndPushBackERKS2_
cAg:_SynchronizedWriter_Write_m301917713
ria:__ZN9profiling6MarkerC2EPKc13ProfilerGroupNS0_5FlagsE
UZd:__ZN5physx2Sc5Scene15prepareSimulateEv
t7g:__ZN21InterfaceFuncInvoker1Ii22UILineInfo_t4195266810E6InvokeEjP11Il2CppClassP12Il2CppObjectS0_
kPc:__Z18Transfer_BlittableI8JSONReadLb1EjEvRK29SerializationCommandArgumentsR31RuntimeSerializationCommandInfo
Ztd:__ZN5physx6shdfnd5ArrayIPNS_2Sc11InteractionENS0_19ReflectionAllocatorIS4_EEE8recreateEj
$Uf:_ConstructorBuilder_get_IsCompilerContext_m3364441562
a0j:_Rigidbody_get_angularVelocity_m191123884
psj:_ReadOnlyCollection_1_System_Collections_Generic_IListU3CTU3E_RemoveAt_m4037795630_gshared
Odl:__Z117RuntimeInvoker_Void_t1185182177_RuntimeObject_Int32_t2950945753_Int32_t2950945753_Int32_t2950945753_Int32_t2950945753PFvvEPK10MethodInfoPvPS4_
Rbm:__ZL81U3CMouseDragOutsideRectU3Ec__Iterator1_t3909241878_CustomAttributesCacheGeneratorP21CustomAttributesCache
pJf:_U3COnFinishSubmitU3Ec__Iterator0_Reset_m3632769946
oq:stackSave
sLf:_ColorTween_get_targetColor_m1724075482_AdjustorThunk
e2e:_ps_dimension_end
$Wj:__ZL25UnresolvedVirtualCall_238P12Il2CppObjecti19Vector3_t3722313464PK10MethodInfo
CFc:__Z41Register_UnityEngine_Mesh_Internal_Createv
iBb:__ZN16MemoryFileSystem5TouchER13FileEntryData
onh:_RemotingSurrogateSelector__ctor_m1846610173
lwk:__ZNK15dense_hashtableI10KeyWrapperIP18Il2CppGenericClassES3_N6il2cpp8metadata22Il2CppGenericClassHashEN14dense_hash_setIS3_S6_NS3_14EqualsComparerINS5_25Il2CppGenericClassCompareEEENSt3__29allocatorIS3_EEE8IdentityESA_SD_E12test_deletedERK30dense_hashtable_const_iteratorIS3_S3_S6_SF_SA_SD_E
W1j:__ZN6il2cpp2vm5Class14GetNestedTypesEP11Il2CppClassPPv
pLe:__Z63Register_UnityEngine_Physics_INTERNAL_CALL_Internal_RaycastTestv
xwl:__Z35RuntimeInvoker_UriScheme_t722425697PFvvEPK10MethodInfoPvPS4_
TGi:_Enumerator_Dispose_m2498245804_AdjustorThunk
cmg:_Console_Open_m3077673205
dac:__ZN6Camera9SetAspectEf
Pfi:_SecurityManager_get_SecurityEnabled_m3467182822
Upi:_Array_InternalArray__IndexOf_TisDateTime_t3738529785_m2463359116_gshared
LWj:__ZL25UnresolvedVirtualCall_222P12Il2CppObjectiPK10MethodInfo
Ca:invoke_viiffiii
V$c:__ZN8UVModule8TransferI18StreamedBinaryReadILb0EEEEvRT_
F$g:_InternalEnumerator_1_MoveNext_m4138204635_gshared
amf:__ZN5physx16PxVehicleDrive4WD0Ev
EEm:_emscripten_glBindVertexArray__wrapper
m2l:__ZL102TextGenerator_t3211863866_CustomAttributesCacheGenerator_TextGenerator_GetVerticesInternal_m3222977969P21CustomAttributesCache
aKj:_Parser_IsECMAScript_m674158805
cO:__ZN10ObjectPoolIN4FMOD3DSPENS0_4DSPIEE7GetFreeEi
E$a:__ZN9Transform37InitializeTransformHierarchyRecursiveER18TransformHierarchyRii
WRa:__ZN26SinglePassStereoSupportExt23SetupStereoMatrixParamsE21MonoOrStereoscopicEye24BuiltinShaderMatrixParamRK10Matrix4x4f
ogj:_Array_Resize_TisVector2_t2156229523_m1564542050_gshared
W7c:__ZN14ParticleSystem22UpdateAllTransformDataEv
mQh:_ServicePointManager_get_CertificatePolicy_m1966679142
Fqm:_fscanf
zif:__ZNK25UnityWebRequestJavaScript16GetUploadedBytesEv
$Y:__Z46AudioListener_CUSTOM_GetNumExtensionPropertiesP12Il2CppObject
Eak:__ZN6il2cpp6icalls8mscorlib6SystemL16CheckMemberMatchI9FieldInfoNS_5utils10functional6FilterINSt3__212basic_stringIcNS8_11char_traitsIcEENS8_9allocatorIcEEEENS5_13VmStringUtils23CaseInsensitiveComparerEEEEEbPKT_PK11Il2CppClassSN_iRKT0_
d3c:__ZN27ColorModulePropertyBindings13AddPropertiesER10vector_mapIi22ParticleModulePropertyNSt3__24lessIiEENS2_9allocatorINS2_4pairIiS1_EEEEE
MUg:_SslClientStream_Finalize_m1251363641
RSe:__ZZN4Tree15InitializeClassEvEN30FunctorImpl_61kBecameInvisible4CallEPviR11MessageData
BQe:__ZN15TerrainRenderer26CreateQuadTreeNodeRendererER12QuadTreeNodeRK10Matrix4x4fP8MaterialRKNS_22QuadTreeNodeParametersE
C8:__Z14GetMonoManagerv
fqi:_Array_InternalArray__IndexOf_TisMonoResource_t4103430009_m1351751258_gshared
Hsb:__ZN10VRSettings8TransferI19StreamedBinaryWriteILb0EEEEvRT_
ZYd:__ZN5physx2Sc9StaticSim21postActor2WorldChangeEv
I5h:_FieldAccessException__ctor_m3583219052
W4c:__ZL16ParticleGeomInitILb0EEvRK31ParticleSystemParticlesTempDatajRN4math8floatNx3ERK23ParticleSystemParticlesS5_S5_RKNS3_7_float4EPKfSB_SD_SB_RKNS3_5_int4EbSB_
tEc:__Z57Register_UnityEngine_Transform_INTERNAL_set_localPositionv
EZl:__ZL105RectTransform_t3704657025_CustomAttributesCacheGenerator_RectTransform_INTERNAL_get_anchorMax_m1239315619P21CustomAttributesCache
KCa:__ZN13GfxDeviceGLES26SetRandomWriteTargetBufferEi15ComputeBufferID
es:__ZNK4PPtrI4MeshEptEv
aBc:__Z38Register_UnityEngine_Input_GetButtonUpv
jgj:_Array_Resize_TisUICharInfo_t75501106_m3903846016_gshared
apj:_ReadOnlyCollection_1_System_Collections_Generic_ICollectionU3CTU3E_get_IsReadOnly_m3887826072_gshared
sik:__ZNK15dense_hashtableINSt3__24pairIK10KeyWrapperINS1_IPK12PropertyInfoP11Il2CppClassEEEjEES9_17ReflectionMapHashIS8_EN14dense_hash_mapIS9_jSD_NS9_14EqualsComparerINS0_8equal_toIS8_EEEENS0_9allocatorISB_EEE9SelectKeyESI_SK_E8min_sizeEjj
LYb:__ZZ23InitPlayerLoopCallbacksvEN49EarlyUpdateResetFrameStatsAfterPresentRegistrator7ForwardEv
_Ed:__ZN5physx6shdfnd4sortIPvNS0_4LessIS2_EENS0_19ReflectionAllocatorINS_2Cm5BlockIhLj256EEEEEEEvPT_jRKT0_RKT1_j
frm:_poll
cpj:_ReadOnlyCollection_1_System_Collections_IEnumerable_GetEnumerator_m1671097018_gshared
cWi:_UInt64_ToString_m1529093114_AdjustorThunk
gdm:__ZL85Selectable_t3250028441_CustomAttributesCacheGenerator_Selectable_IsPressed_m907486548P21CustomAttributesCache
q5f:_TypeLibImportClassAttribute__ctor_m2302178978
kHh:_Escape_t3294788190_marshal_pinvoke
Auh:_InputField_OnUpdateSelected_m1118869681
Zve:__ZN5physx20InternalTriangleMesh7releaseEv
jbe:__ZN5physx6shdfnd5ArrayINS_16PxsCCDBlockArrayINS_13PxsCCDOverlapELi128EE9BlockInfoENS0_19ReflectionAllocatorIS5_EEE15growAndPushBackERKS5_
mvd:__ZNK5physx7NpShape8getFlagsEv
Irh:_SerializationException__ctor_m3131447373
JHa:__ZN4crnd12crn_unpacker11unpack_dxt1EPPhjjj
Wpf:__Z27setPxVehicleWheelDataMWidthPN5physx18PxVehicleWheelDataEf
Fuc:__ZNK11ICallString6ToUTF8Ev
pwl:__Z39RuntimeInvoker_MonoResource_t4103430009PFvvEPK10MethodInfoPvPS4_
Z0j:__ZN15dense_hashtableINSt3__24pairIK10KeyWrapperIPK22Il2CppGenericParameterEP11Il2CppClassEES6_N6il2cpp5utils11PointerHashIS4_EEN14dense_hash_mapIS6_S9_SE_NS6_14EqualsComparerINS0_8equal_toIS5_EEEENS0_9allocatorISA_EEE9SelectKeyESJ_SL_E15insert_noresizeERKSA_
Cch:_Transform_1_Invoke_m2468053724_gshared
uuk:__ZN24dense_hashtable_iteratorINSt3__24pairIK10KeyWrapperIP14Il2CppIUnknownEjEES5_N6il2cpp5utils11PointerHashIS3_EEN14dense_hash_mapIS5_jSB_NS5_14EqualsComparerINS0_8equal_toIS4_EEEENS0_9allocatorIS7_EEE9SelectKeyESG_SI_E30advance_past_empty_and_deletedEv
W0b:__ZNSt3__211__sift_downIR17ROSorterDepthPassP15RODataDepthPassEEvT0_S5_T_NS_15iterator_traitsIS5_E15difference_typeES5_
icb:__ZN18UnityPropertySheet11UnityTexEnvC2Ev
Fpf:__ZN5physx18RepXPropertyFilterINS_2Sn17RepXVisitorReaderINS_18PxVehicleWheelDataEEEEclILj573ES3_ffEEvRKNS_14PxPropertyInfoIXT_ET0_T1_T2_EEj
Nxc:__ZNSt3__214__split_bufferIPN9BlobWrite11TypeContextENS_9allocatorIS3_EEE10push_frontERKS3_
_8f:_ArgumentException__ctor_m3200406061
TI:__ZN8Animator17ApplyOnAnimatorIKEiRNS_11AnimatorJobE
Saa:__ZN12FileAccessor4ReadEyyPvPy
UQb:__Z29Transfer_Blittable_ArrayFieldI18StreamedBinaryReadILb0EE11QuaternionfEvRT_R9ArrayInfoRK23StaticTransferFieldInfo
N1i:_List_1_set_Capacity_m2777925136_gshared
VRe:__ZN22ForwardLinearAllocatorD2Ev
Iuc:__Z21GetSceneHierarchyPathPK6Object
DBf:__Z13RegisterClassI13WheelColliderEvv
Tbm:__ZL195U3CMouseDragOutsideRectU3Ec__Iterator1_t3909241878_CustomAttributesCacheGenerator_U3CMouseDragOutsideRectU3Ec__Iterator1_System_Collections_Generic_IEnumeratorU3CobjectU3E_get_Current_m3688496850P21CustomAttributesCache
Pqf:__Z37setPxVehicleWheelsSimData_ChassisMassPN5physx22PxVehicleWheelsSimDataEf
G9b:__ZN13RenderTexture9SetHeightEi
GC:__ZN7mecanim9animation17ClearMotionOutputEPNS0_18AnimationNodeStateE
OPg:_CipherSuiteCollection_get_IsFixedSize_m3127823890
L7a:__ZN16LevelGameManager8TransferI24GenerateTypeTreeTransferEEvRT_
t6g:_InternalEnumerator_1_System_Collections_IEnumerator_get_Current_m3537550566_gshared
Vzh:_Scrollbar_UpdateVisuals_m2492252165
vrk:__ZN6il2cpp6icalls8mscorlib6System2IO6MonoIO17GetFileAttributesEP12Il2CppStringPi
BIg:_HMACMD5__ctor_m3008609295
e_h:_DateTime__ParseAmPm_m3478436123
K_h:_DateTime_ToString_m2992030064_AdjustorThunk
B_e:_tt_cmap8_char_index
A8:__Z24scripting_class_get_name17ScriptingClassPtr
Nyg:_Stream_WriteByte_m1519852120
QQj:_VerticalLayoutGroup_CalculateLayoutInputHorizontal_m1404590745
Sla:__ZN13RuntimeStaticI15GUIEventManagerLb0EE13StaticDestroyEPv
HCg:_ShortComparer_Compare_m1881262465
sEb:__Z29Transfer_Blittable_ArrayFieldI14SafeBinaryReadjEvRT_R9ArrayInfoRK23StaticTransferFieldInfo
Ne:_emscripten_set_keydown_callback
GKi:_EncoderReplacementFallback__ctor_m1483565116
zWh:_Interpreter_IsWordChar_m2858055765
pZc:__ZN18ColorBySpeedModule8TransferI14SafeBinaryReadEEvRT_
_aa:__ZN12FileAccessorC2Ev
EBi:_EqualityComparer_1_System_Collections_IEqualityComparer_Equals_m3855544238_gshared
Rzd:__ZN5physx2Sc15ArticulationSim12applyImpulseERNS0_8BodyCoreERKNS_9PxcFsDataERKNS_6PxVec3ES9_
fhi:_String_System_IConvertible_ToDouble_m3740733360
$Vc:__Z15UpdateRandomTplIL27ParticleSystemCurveEvalMode0EEvRK11MinMaxCurveS3_S3_R5RandNR23ParticleSystemParticlesjjRKN4math8float3x3ERKNS8_7_float4E
KG:__ZThn152_NK26AnimatorControllerPlayable25GetStateMachineBehavioursEv
Qyj:_EventFunction_1_Invoke_m2429482587_gshared
vEf:_EventTrigger_OnDeselect_m1919608102
Y7c:__ZN14ParticleSystem16AssignRayBudgetsEv
fRh:_AsnEncodedData_SubjectAltName_m4049949414
Y6:__ZN14StackAllocator10ReallocateEPvji
Tbk:__ZN6il2cpp2vm7Runtime12GetConfigDirEv
PQj:_VerticalLayoutGroup__ctor_m321345421
uu:__ZN4PPtrI13MonoBehaviourE8TransferI18StreamedBinaryReadILb0EEEEvRT_
L2c:__ZN16CustomDataModuleD2Ev
QFi:_Enumerator_MoveNext_m1177880931_AdjustorThunk
kzd:__ZNK5physx14NpArticulation26getInternalDriveIterationsEv
vDh:_Slider_UpdateVisuals_m3662961057
S3l:__ZL82Event_t2956885303_CustomAttributesCacheGenerator_Event_get_commandName_m4275147343P21CustomAttributesCache
bYj:_TextGenerator_Populate_m194003733
IUl:__ZL111ScriptableObject_t2528358522_CustomAttributesCacheGenerator_ScriptableObject_CreateInstanceFromType_m1997111014P21CustomAttributesCache
cWf:_DerivedType_get_FullName_m1025358827
HGg:_CryptoConfig_MapNameToOID_m2044758263
hZc:__ZN14VelocityModule8TransferI14SafeBinaryReadEEvRT_
xbm:__ZL70InputField_t3762917431_CustomAttributesCacheGenerator_m_OnValueChangedP21CustomAttributesCache
bTb:__Z39WriteQueueForTransferSignatureIntoCacheRK31TransferFunctionScriptingTraitsRK24TransferRequestSignature17ScriptingClassPtrR23CachedSerializationDataRb
aNd:__ZN5physx15NpActorTemplateINS_7PxClothEE22setClientBehaviorFlagsENS_7PxFlagsINS_25PxActorClientBehaviorFlag4EnumEhEE
SLi:_Encoding_get_UTF8UnmarkedUnsafe_m320312322
OPi:_Thread_Thread_free_internal_m333849022
pu:__ZN18AnimatorController19TransferRuntimeDataI18StreamedBinaryReadILb0EEEEvRT_
mFj:_CostDelegate_BeginInvoke_m2828452701
fdf:__ZN22BaseUnityConnectClient30OnEnteringStatePausedOrStoppedEv
wbj:_Collection_1_ConvertItem_m1556170494_gshared
UC:__ZN7mecanim5human12HumanPoseAddERNS0_9HumanPoseERKS1_S4_
EYh:_DateTime_ToUniversalTime_m1945318289
ogg:_ArrayList_ToArray_m3827492363
L5c:__Z20UpdateWholeSheet2TplIL27ParticleSystemCurveEvalMode2ELS0_2EEvfRK11MinMaxCurveS3_RK23ParticleSystemParticlesPf
NDh:_Slider_get_stepSize_m1423227661
ZVi:_UInt64_Parse_m819899889
sci:_SymmetricAlgorithm_set_IV_m3196220308
uYf:_GenericTypeParameterBuilder_GetHashCode_m852224381
Wog:_Convert_ToUInt32_m1453583008
D6h:_CompareInfo_Compare_m894311506
m$a:__Z24MergeTransformComponentsR9TransformS0_b
G5j:__ZNK15dense_hashtableI10KeyWrapperIPK19Il2CppGenericMethodES4_N6il2cpp8metadata23Il2CppGenericMethodHashEN14dense_hash_setIS4_S7_NS4_14EqualsComparerINS6_26Il2CppGenericMethodCompareEEENSt3__29allocatorIS4_EEE8IdentityESB_SE_E10test_emptyEj
F6g:_InternalEnumerator_1_System_Collections_IEnumerator_get_Current_m3982010935_AdjustorThunk
Rud:__ZThn24_N5physx2Sc20ArticulationJointSimD0Ev
eDf:_EventSystem_UpdateModules_m3643806022
tBk:__ZN6il2cpp2gc16GarbageCollector10StartWorldEv
lEe:__ZN14PhysicsManager32AddToTriggerStayStatesIfRequiredEPK9Rigidbody
d_j:_AnimationOffsetPlayable__cctor_m1029460816
Cwj:_InvokableCall_1__ctor_m2610016537_gshared
pei:_Evidence_get_SyncRoot_m2835084965
Xod:__ZN5physx14PxsAABBManager12createBPElemEv
fni:_SetPropertyUtility_SetStruct_TisTouchScreenKeyboardType_t1530597702_m2455393348_gshared
Nxi:_DefaultComparer__ctor_m2280347240_gshared
MLd:__ZThn12_N5physx7NpShape14onRefCountZeroEv
qLl:__ZL59ICryptoTransform_t2733259762_CustomAttributesCacheGeneratorP21CustomAttributesCache
Xad:__ZL26GeomMTDCallback_ConvexMeshRN5physx6PxVec3ERfRKNS_10PxGeometryERKNS_11PxTransformES5_S8_
Zsf:__ZN5physx3Pvd17PvdPropertyFilterINS_2Sn17RepXVisitorWriterINS_17PxVehicleTireDataEEEE14handleAccessorILj600ENS_22PxRepXPropertyAccessorILj600ES4_ffEEEEvRKT0_
ADk:__ZN6il2cpp2vm13ComObjectBase19GetRuntimeClassNameEPP15Il2CppHString__
YPb:__Z35Transfer_Blittable_FixedBufferFieldI18StreamedBinaryReadILb0EEyEvRK29SerializationCommandArgumentsR31RuntimeSerializationCommandInfo
qFd:__ZN5physx15NpActorTemplateINS_18PxArticulationLinkEE22setClientBehaviorFlagsENS_7PxFlagsINS_25PxActorClientBehaviorFlag4EnumEhEE
yk:_emscripten_glVertexAttribPointer
dtm:__ZNSt11logic_errorD0Ev
g4a:__ZNK20IntermediateRenderer12GetSceneMaskEv
QVb:__ZN14PreloadManager26UpdatePreloadingSingleStepENS_21UpdatePreloadingFlagsEi
bSe:__ZNK15TerrainRenderer27CreateSharedMeshDataPatchesER13dynamic_arrayIP14SharedMeshDataLj4EERK4AABB
vzj:_TweenRunner_1__ctor_m340723704_gshared
BCh:_ScrollRect_SetLayoutHorizontal_m3078869633
mre:__ZN18ScBeforeSolverTask11runInternalEv
Mkf:__ZNK5physx22PxVehicleWheelsSimData23getSceneQueryFilterDataEj
$Fh:_SimpleCollator__ctor_m1587210019
qCc:__Z57Register_UnityEngine_RectTransform_INTERNAL_set_anchorMinv
zrd:__ZL33GeomOverlapCallback_CapsuleConvexRKN5physx10PxGeometryERKNS_11PxTransformES2_S5_PNS_2Gu12TriggerCacheE
Sog:_Convert_ToUInt16_m1480956416
gJa:__ZN6prcoreL25inner_stretch_i8_bilinearEPKNS_9InnerInfoE
Gwb:__ZL30RegisterFilteredObjectCallbackPP12Il2CppObjectiPv
Nrj:_ReadOnlyCollection_1_System_Collections_Generic_IListU3CTU3E_RemoveAt_m3317217538_gshared
g3l:__ZL54AudioSource_t3935305588_CustomAttributesCacheGeneratorP21CustomAttributesCache
gWb:__Z19InitializeGfxDevicev
W$:__ZN11UnityEngine15CloudWebService16SessionContainer24GetSessionHeaderJsonDataERKN4core12basic_stringIcNS2_20StringStorageDefaultIcEEEERNS2_13StringBuilderE
HVf:_DerivedType_GetEvent_m4157575360
Ela:__ZN13RuntimeStaticI21AssetReferenceStorageLb0EE13StaticDestroyEPv
ewe:__ZN5physx20InternalTriangleMesh9loadRTreeERNS_13PxInputStreamEj
aNf:_Image_get_sprite_m1811690853
SXd:__ZN5physx19NpRigidBodyTemplateINS_14PxRigidDynamicEE25setCMassLocalPoseInternalERKNS_11PxTransformE
cjg:_Comparer__ctor_m2831654082
GYd:__ZNK5physx15NpActorTemplateINS_13PxRigidStaticEE14getOwnerClientEv
yej:_Array_InternalArray__set_Item_TisKeyValuePair_2_t2530217319_m258011711_gshared
mpl:__Z72RuntimeInvoker_Bounds_t2266837910_RuntimeObject_Matrix4x4U26_t3606180965PFvvEPK10MethodInfoPvPS4_
ozk:__ZN6il2cpp6icalls8mscorlib6System9AppDomain22InternalGetProcessGuidEP12Il2CppString
Bs:__ZNK25RuntimeAnimatorController30GetAnimationClipOverrideVectorEv
x9i:_Collection_1_System_Collections_IList_Contains_m3397768605_gshared
$Td:__ZN5physx2Sc18ParticleSystemCore16releaseParticlesEv
Dce:__ZNK5physx2Gu29EPASupportMapPairRelativeImplINS0_8CapsuleVENS0_4BoxVEE6getDirEv
xjd:__ZN5physx2Gu20intersectTriangleBoxERKNS_6shdfnd3aos5Vec3VES5_S5_S5_S5_
NPl:__ZL79Convert_t2465617642_CustomAttributesCacheGenerator_Convert_ToUInt32_m3188121845P21CustomAttributesCache
C7k:__Z48RuntimeInvoker_RuntimeObject_Decimal_t2948259380PFvvEPK10MethodInfoPvPS4_
cQi:_ThreadStart_EndInvoke_m3768045394
IXa:__ZNK17FileSystemHandler10IsReadOnlyERK13FileEntryData
Lak:__ZNSt3__214__split_bufferIP9FieldInfoRNS_9allocatorIS2_EEEC2EjjS5_
eYh:_DateTime__cctor_m1880035693
OEg:_StreamingContext__ctor_m2604757771_AdjustorThunk
PIb:__Z18Transfer_BlittableI24GenerateTypeTreeTransferLb1EjEvRK29SerializationCommandArgumentsR31RuntimeSerializationCommandInfo
Nmf:__ZN5physx16PxVehicleNoDrive14setBrakeTorqueEjf
hof:__Z49setPxVehicleWheelsDynData_TireForceShaderFunctionPN5physx22PxVehicleWheelsDynDataEPFvPKvffffffffffffRfS4_S4_S4_E
Yhk:__ZNK15dense_hashtableINSt3__24pairIK10KeyWrapperINS1_IPK11Il2CppImageP11Il2CppClassEEEjEES9_17ReflectionMapHashIS8_EN14dense_hash_mapIS9_jSD_NS9_14EqualsComparerINS0_8equal_toIS8_EEEENS0_9allocatorISB_EEE9SelectKeyESI_SK_E10test_emptyERK30dense_hashtable_const_iteratorISB_S9_SD_SM_SI_SK_E
X0j:__ZN6il2cpp2os12FastAutoLockD2Ev
mGl:__ZL68AssemblyCopyrightAttribute_t836190902_CustomAttributesCacheGeneratorP21CustomAttributesCache
Gga:__ZN11ColorRGBA328TransferI14SafeBinaryReadEEvRT_
B7i:_Collection_1_Add_m1736908447_gshared
IWe:_cff_vstore_done
TGe:__ZN5physx6shdfnd5ArrayIPvNS0_19ReflectionAllocatorINS_24NpPtrTableStorageManager8PtrBlockILi4EEEEEE15growAndPushBackERKS2_
dil:__Z68RuntimeInvoker_Void_t1185182177_UInt16_t2177724958_SByte_t1669577662PFvvEPK10MethodInfoPvPS4_
PZg:_InternalEnumerator_1_get_Current_m3008260692_AdjustorThunk
_Ig:_MACTripleDES_HashFinal_m3613553534
tVi:_UInt64_System_IConvertible_ToChar_m2074245892
DIa:__Z11IsHDRFormat13TextureFormat
bOi:_UTF8Encoding_InternalGetBytes_m1965760031
qg:_emscripten_glClearDepth
$mc:__ZNK8GUILayer22GetTypeVirtualInternalEv
Ghb:__ZN14SafeBinaryRead21TransferSTLStyleArrayINSt3__26vectorIN15QualitySettings14QualitySettingENS1_9allocatorIS4_EEEEEEvRT_17TransferMetaFlags
$Ie:__Z13RegisterClassI12MeshColliderEvv
Ywj:_UnityAction_1__ctor_m3007623985_gshared
Gpf:__ZN5physx18RepXPropertyFilterINS_2Sn17RepXVisitorReaderINS_18PxVehicleWheelDataEEEEclILj574ES3_ffEEvRKNS_14PxPropertyInfoIXT_ET0_T1_T2_EEj
Orl:__Z56RuntimeInvoker_Boolean_t97287965_ILTokenInfo_t2325775114PFvvEPK10MethodInfoPvPS4_
Sdm:__ZL80CanvasScaler_t2767979955_CustomAttributesCacheGenerator_m_ReferencePixelsPerUnitP21CustomAttributesCache
wrb:__ZNSt3__26vectorINS_4pairIPKN5Unity4TypeE7Hash128EENS_9allocatorIS7_EEE8__appendEj
chm:__ZL106AeroplaneController_t857819489_CustomAttributesCacheGenerator_AeroplaneController_get_YawInput_m1488826771P21CustomAttributesCache
LWe:_cff_font_load
Gkm:_MobileInput_SetButtonUp_m157564634
Uzk:__GLOBAL__sub_I_LibraryLoader_cpp
Svc:__Z13IsPathCreatedRKN4core12basic_stringIcNS_20StringStorageDefaultIcEEEE
jam:__ZL99Dropdown_t2274391225_CustomAttributesCacheGenerator_Dropdown_DelayedDestroyDropdownList_m2082128994P21CustomAttributesCache
Zee:__ZN5physx35solveContactPreBlock_ConcludeStaticEPKNS_23PxcSolverConstraintDescEjRNS_16PxcSolverContextE
NIa:__ZL22stbir__encode_scanlineP11stbir__infoiPvPfiii
C4f:_ExternalException__ctor_m2877839282
fMe:__ZN20QuadTreeNodeRenderer13StaticDestroyEPv
S0:__ZN11UnityEngine15CloudWebService20WebRequestRestClient5AbortEv
mIj:_Regex_Matches_m2080913806
pjc:__ZN9Transform12CleanupClassEv
L0k:_Sprite_get_rect_m2575211689
Ntd:__ZN5physx6shdfnd5ArrayIPvNS0_15InlineAllocatorILj256ENS0_19ReflectionAllocatorINS_2Cm5BlockIS2_Lj32EEEEEEEE15growAndPushBackERKS2_
mqe:__ZN5physx18PxsSolverStartTask13setupDescTaskEv
R5e:_UNITY_FT_Set_Pixel_Sizes
hSf:_OperatingSystem_Clone_m1122165140
nkj:_GameObject_AddComponent_TisRuntimeObject_m3469369570_gshared
oua:__ZNSt3__26vectorIN9ShaderLab19SerializedSubShaderENS_9allocatorIS2_EEE26__swap_out_circular_bufferERNS_14__split_bufferIS2_RS4_EE
xI:__ZN11UnityEngine9Animation33SetGenericTransformPropertyValuesERKNS0_30AnimatorGenericBindingConstantERKN7mecanim10ValueArrayEP9Transformy
tOl:__ZL59AttributeTargets_t1784037988_CustomAttributesCacheGeneratorP21CustomAttributesCache
vz:__ZN11UnityEngine9Animation28AnimationClipBindingConstant8TransferI24GenerateTypeTreeTransferEEvRT_
x9c:__ZN5physx3Cct13BoxController6resizeEf
RZi:_List_1_RemoveAll_m3165362277_gshared
wSi:_Type_type_is_subtype_of_m1406623598
Sre:__ZN5physx6shdfnd5ArrayINS_2Cm12DelegateTaskINS_2Sc5SceneEXadL_ZNS5_19updateCCDSinglePassEPNS_10PxBaseTaskEEEEENS0_19ReflectionAllocatorIS8_EEE8recreateEj
COi:_Thread_get_CurrentThread_m4142136012
H4a:__Z30ProcessDynamicBatchGeometryJobP25DynamicVBOGeometryJobDataj
q1b:__ZNSt3__27__sort4IRNS_6__lessI11CulledLightS2_EEPS2_EEjT0_S6_S6_S6_T_
Gdk:__ZN6il2cpp2vm14TypeNameParser26ParseArrayModifierOptionalEv
_cm:__ZL88Selectable_t3250028441_CustomAttributesCacheGenerator_U3CisPointerDownU3Ek__BackingFieldP21CustomAttributesCache
v7:__Z26scripting_object_get_class18ScriptingObjectPtr
Njf:__ZN13WheelCollider23VirtualRedirectTransferER19StreamedBinaryWriteILb0EE
hub:__ZNSt3__26vectorIN4core12basic_stringIcNS1_20StringStorageDefaultIcEEEE13stl_allocatorIS5_L18MemLabelIdentifier13ELi16EEE7reserveEj
OFd:__ZN5physx34NpShapeGetScRigidObjectFromScbSLOWERKNS_3Scb5ShapeE
PHg:_DSASignatureDeformatter__ctor_m2889130126
nUh:_X509ChainElementCollection_Clear_m2271223414
Uic:__ZNK28MonoBehaviourPropertyBinding15GenerateBindingERKN4core12basic_stringIcNS0_20StringStorageDefaultIcEEEEbRN11UnityEngine9Animation14GenericBindingE
e$k:_RectTransform_INTERNAL_set_pivot_m1160676233
N2i:_List_1_set_Item_m35836043_gshared
Qcm:__ZL70ScrollRect_t4137855814_CustomAttributesCacheGenerator_m_OnValueChangedP21CustomAttributesCache
eUh:_X509ChainElementCollection__ctor_m3424079155
Ofm:__ZL59MobileControlRig_t1964600252_CustomAttributesCacheGeneratorP21CustomAttributesCache
uFj:_LinkStack_Push_m3081279930
Oul:__Z72RuntimeInvoker_Void_t1185182177_Int32_t2950945753_Quaternion_t2301928331PFvvEPK10MethodInfoPvPS4_
pTe:__ZN15TerrainCollider23VirtualRedirectTransferER14SafeBinaryRead
Wpb:__ZN14SubstanceValue8TransferI18StreamedBinaryReadILb0EEEEvRT_
fbh:_Enumerator_MoveNext_m1107569389_gshared
fmm:_AeroplaneController_Immobilize_m1054376446
Fxd:__ZNK5physx21PxsBodyTransformVault12getTransformERKNS_11PxsBodyCoreE
Zhm:__ZL75CarController_t4228304488_CustomAttributesCacheGenerator_m_RevRangeBoundaryP21CustomAttributesCache
Mak:__ZNSt3__26vectorIP9FieldInfoNS_9allocatorIS2_EEE26__swap_out_circular_bufferERNS_14__split_bufferIS2_RS4_EE
Lyj:_UnityEvent_3_GetDelegate_m1156357290_gshared
iAf:__Z32getPxVehicleDrive4WMDriveSimDataPKN5physx16PxVehicleDrive4WE
q1g:_InternalEnumerator_1__ctor_m4200721464_gshared
iVk:_Matrix4x4_GetHashCode_m4034747639_AdjustorThunk
F3f:_ResourceCacheItem_t51292791_marshal_pinvoke_cleanup
M4:__ZNK5Unity9Component7GetNameEv
obk:__ZNSt3__214__split_bufferIN6il2cpp6icalls8mscorlib6System12PropertyPairERNS_9allocatorIS5_EEEC2EjjS8_
vci:_SymmetricAlgorithm_get_KeySize_m4185004893
QXi:_List_1_GetEnumerator_m232588170_gshared
sbd:__ZN44ConvexVsHeightfieldContactGenerationCallback7onEventEjPj
jQk:_Native__cctor_m1435623442
c1i:_List_1_System_Collections_IList_Remove_m1070694895_gshared
bNj:_LayoutCache__ctor_m3885940174
iib:__ZN13ScreenManagerD0Ev
XZj:_AnimationMotionXToDeltaPlayable_GetHandle_m1319190040_AdjustorThunk
LJ:__ZN7mecanim8skeleton26SkeletonPoseComputeGlobalQEPKNS0_8SkeletonEPKNS0_13SkeletonPoseTIN4math4trsXEEEPS7_ii
sVi:_UInt64_System_IConvertible_ToByte_m1501504925_AdjustorThunk
WXj:_TextGenerator_Invalidate_m1072346986
s4c:__ZN14ParticleSystem40OnTrailGeometryJobsScheduledRenderThreadERK8JobFence
ASg:_TlsClientHello_ProcessAsTls1_m2549285167
Gxl:__Z74RuntimeInvoker_Boolean_t97287965_UIVertex_t4057497605_UIVertex_t4057497605PFvvEPK10MethodInfoPvPS4_
dde:__ZN5physx2Gu19_gjkRelativeRayCastINS0_9TriangleVENS0_8CapsuleVEEEbRT_RT0_RKNS_6shdfnd3aos15PsMatTransformVERKNS9_6FloatVERKNS9_5Vec3VESI_RSD_RSG_SK_f
iBh:_ScrollRect_set_decelerationRate_m723367336
Q0c:__ZN13TriggerModule8TransferI19StreamedBinaryWriteILb0EEEEvRT_
lJ:__ZN9BlobWrite8TransferI22OffsetPtrArrayTransferIiEEEvRT_PKc17TransferMetaFlags
jki:_EncoderExceptionFallback_Equals_m2760188920
bHb:__Z18Transfer_BlittableI17RemapPPtrTransferLb1EjEvRK29SerializationCommandArgumentsR31RuntimeSerializationCommandInfo
wJg:_RC2CryptoServiceProvider_get_EffectiveKeySize_m3835262416
oyd:__ZN5physx6shdfnd5ArrayIPvNS0_15InlineAllocatorILj256ENS0_19ReflectionAllocatorINS_11NpAggregateEEEEEE15growAndPushBackERKS2_
KS:__ZN4FMOD6System7releaseEv
d9d:__ZN5physx6shdfnd8PoolBaseINS_2Sc18TriggerInteractionENS0_19ReflectionAllocatorIS3_EEE15disposeElementsEv
NKb:__Z18Transfer_BlittableI19StreamedBinaryWriteILb0EELb1E8BitFieldEvRK29SerializationCommandArgumentsR31RuntimeSerializationCommandInfo
Scg:_Boolean_CompareTo_m3665076258
Ahi:_String_Split_m3580120853
nLh:_PrivateKeyInfo__ctor_m2811023496
vaa:__Z18PathToAbsolutePathRKN4core12basic_stringIcNS_20StringStorageDefaultIcEEEE
c_f:_PropertyBuilder_GetCustomAttributes_m2917594003
ZNj:_GUILayoutUtility_LayoutFromEditorWindow_m2914699782
ECl:__ZL76MarshalAsAttribute_t3522571978_CustomAttributesCacheGenerator_MarshalTypeRefP21CustomAttributesCache
qKg:_BigInteger_SetBit_m1723423691
Zw:__ZN13AnimationClip23VirtualRedirectTransferER17RemapPPtrTransfer
yql:__Z78RuntimeInvoker_RuntimeObject_ObjectU26_t2146539884_RuntimeObject_RuntimeObjectPFvvEPK10MethodInfoPvPS4_
lDl:__ZL65X509ExtensionCollection_t609554708_CustomAttributesCacheGeneratorP21CustomAttributesCache
nbd:__ZL31PointInConvexPolygon2D_OutCodesPKfjffffRh
sVd:__ZN5physx22NpParticleBaseTemplateINS_16PxParticleSystemENS_16NpParticleSystemEE18setDynamicFrictionEf
pIa:__ZL13BlitImageImplR14ImageReferenceiiRKS_NS_10ColorSpaceENS_8BlitModeEb
Zoc:__ZN15DirectorManager17AcquireOutputNodeEv
SWc:__ZL15AccumulateNoiseILb1ELi1EEN4math8floatNx2ERKNS0_8floatNx3ERKfiS6_S6_
yKa:__ZN6prcoreL17RemapGenericFloatI18TexFormatRGBAFloat17TexFormatRGBFloatEEvPKNS_9InnerInfoE
qkj:_GameObject_GetComponentInChildren_TisRuntimeObject_m1310240902_gshared
BBd:__ZN5physx2Sc21ArticulationJointCore21setInternalComplianceEf
IKe:__ZN9Rigidbody12MoveRotationERK11Quaternionf
Wze:__ZNK5physx6shdfnd10Foundation13getErrorLevelEv
q$l:__ZL69PersistentCall_t3407714124_CustomAttributesCacheGenerator_m_ArgumentsP21CustomAttributesCache
lRa:__ZN16GeometryJobTasks20ScheduleGeometryJobsER9GfxDevicePFvP15GeometryJobDataEPK22GeometryJobInstructionjb
OSg:_TlsServerCertificateRequest_ProcessAsSsl3_m1084200341
PQ:__ZN12AudioManager29ShutdownReinitializeAndReloadEv
Onf:__ZN5physx18RepXSerializerImplINS_16PxVehicleNoDriveEE12objectToFileERKNS_12PxRepXObjectEPNS_12PxCollectionERNS_9XmlWriterERNS_12MemoryBufferERNS_23PxRepXInstantiationArgsE
u8a:__ZN16ReflectionProbes28GetMinBakedCubemapResolutionEv
ate:__ZN5physx2Cm12DelegateTaskINS_2Sc5SceneEXadL_ZNS3_15postNarrowPhaseEPNS_10PxBaseTaskEEEE11runInternalEv
GZg:_InternalEnumerator_1__ctor_m1196506529_gshared
cJe:__Z20ConvertContactToMonoP9Collision
hei:_PermissionSet__ctor_m2328457660
IYc:__ZN17RemapPPtrTransfer8TransferI22ParticleSystemRendererEEvRT_PKc17TransferMetaFlags
bdh:_Enumerator__ctor_m1849900510_gshared
KCk:__GLOBAL__sub_I_String_cpp
W0j:__ZN15dense_hashtableINSt3__24pairIK10KeyWrapperIPK22Il2CppGenericParameterEP11Il2CppClassEES6_N6il2cpp5utils11PointerHashIS4_EEN14dense_hash_mapIS6_S9_SE_NS6_14EqualsComparerINS0_8equal_toIS5_EEEENS0_9allocatorISA_EEE9SelectKeyESJ_SL_E6insertERKSA_
SAf:__ZN5physx50solveDriveNWInternalDynamicsEnginePlusDrivenWheelsERKNS_19ImplicitSolverInputEPNS_20ImplicitSolverOutputE
Juh:_InputField_GenerateCaret_m1459647218
OUl:__ZL49Camera_t4157153871_CustomAttributesCacheGeneratorP21CustomAttributesCache
QZl:__ZL101SpriteAtlasManager_t3158462485_CustomAttributesCacheGenerator_SpriteAtlasManager_Register_m2413332465P21CustomAttributesCache
YCj:_X509CertificateEnumerator__ctor_m85694331
kEa:__ZN14DataBufferGLES16RecreateWithDataEjPKv
pca:__Z29GetGlobalAllowNameConversionsv
mbd:__ZL17transformVerticesRfS_S_S_PfjPKN5physx6PxVec3EPKhRKNS1_7PxMat33E
bIe:__ZNK5physx2Gu15HeightFieldUtil31getFaceIndexAtShapePointNoTest2Ejff
nti:_Array_InternalArray__Insert_TisTableRange_t3332867892_m558285859_gshared
kbc:__ZN8Material8SetColorEN9ShaderLab16FastPropertyNameERK10ColorRGBAf
S7l:__ZL77ExecuteEvents_t3484638744_CustomAttributesCacheGenerator_U3CU3Ef__mgU24cacheFP21CustomAttributesCache
xme:__ZN5physx6shdfnd5ArrayIPNS_14PxLightCpuTaskENS0_13TempAllocatorEE6resizeEjRKS3_
wMh:_StrongName_get_TokenAlgorithm_m1794722022
wHi:_Enumerator_System_Collections_IEnumerator_Reset_m3754523291_gshared
Fmm:_BrakeLight_Start_m1227513132
EOl:__ZL77Convert_t2465617642_CustomAttributesCacheGenerator_Convert_ToByte_m2375887898P21CustomAttributesCache
IU:__ZN11AudioSource23VirtualRedirectTransferER18StreamedBinaryReadILb0EE
j6e:__ZN20TextRenderingPrivate8FontImplC2E10MemLabelIdPN13TextRendering4FontE
dZk:_RangeInt_get_end_m4128831787
eae:__ZNK5physx2Sq10AABBPruner5sweepERKNS0_9ShapeDataERKNS_6PxVec3ERfRNS0_14PrunerCallbackE
Awj:_InvokableCall_1_Find_m1741895083_gshared
sLb:__ZN10RectOffset8TransferI19StreamedBinaryWriteILb0EEEEvRT_
Pnl:__Z79RuntimeInvoker_Void_t1185182177_RuntimeObject_RuntimeObject_RectU26_t1284589061PFvvEPK10MethodInfoPvPS4_
E8:__ZL41AssemblyNameMatchesWithOrWithoutExtensionPKcS0_
W$i:_List_1_set_Item_m2082115010_gshared
iLi:_Encoding_GetBytes_m3735967069
c5d:__ZN5physx2Sc5Scene21fireCallBacksPostSyncEv
yag:_Array_Initialize_m3004991267
MNa:__ZN14GfxContextGLES43AddRenderSurfaceToDeferredFBOInvalidateListEPK17RenderSurfaceGLES
Kbe:__ZN5physx17PxsCCDAdvanceTask11runInternalEv
Cya:__ZN11NamedObject23VirtualRedirectTransferER14SafeBinaryRead
HEh:_Text_get_resizeTextMinSize_m1002355407
G5e:__ZNSt3__26vectorIN20TextRenderingPrivate8FontImpl13CharacterInfoE13stl_allocatorIS3_L18MemLabelIdentifier1ELi16EEE6insertENS_11__wrap_iterIPKS3_EERS9_
yVa:__ZN23PreloadManagerOperation6IsDoneEv
jag:_Array_CreateInstance_m1027597705
AYi:_List_1_GrowIfNeeded_m3796726_gshared
msf:__ZN5physx3Pvd17PvdPropertyFilterINS_2Sn17RepXVisitorWriterINS_22PxVehicleWheelsSimDataEEEE27handleExtendedIndexPropertyILj613ES4_NS_23PxVehicleSuspensionDataEKjNS_36PxVehicleSuspensionDataGeneratedInfoEEEvjRKNS_29PxExtendedIndexedPropertyInfoIXT_ET0_T2_T1_EERKT3_
GAh:_Selectable_get_navigation_m3508916916
zAf:__ZN5physx3Pvd17PvdPropertyFilterINS_2Sn17RepXVisitorWriterINS_27PxVehicleDifferential4WDataEEEE14handleAccessorILj543ENS_22PxRepXPropertyAccessorILj543ES4_ffEEEEvRKT0_
aDk:__ZN6il2cpp5utils11StringUtils11Utf16ToUtf8ERKNSt3__212basic_stringIDsNS2_11char_traitsIDsEENS2_9allocatorIDsEEEE
QMg:_MD4Managed_Decode_m4273685594
Rel:__Z50RuntimeInvoker_Int64_t3736567304_Int16_t2552820387PFvvEPK10MethodInfoPvPS4_
Fld:__ZN5physx3Cct26CharacterControllerManagerD2Ev
Yjl:__Z57RuntimeInvoker_Quaternion_t2301928331_Vector3_t3722313464PFvvEPK10MethodInfoPvPS4_
Qvb:__ZN21LightProbeProxyVolume18HasHardwareSupportEv
p4b:__ZN26LightProbeProxyVolumeCacheC2ER13BatchRendererR15RenderLoopStats
bJa:__ZN6prcoreL31inner_stretch_argb8888_bilinearEPKNS_9InnerInfoE
PMb:__Z18Transfer_BlittableI18StreamedBinaryReadILb1EELb1E8BitFieldEvRK29SerializationCommandArgumentsR31RuntimeSerializationCommandInfo
jfa:__ZNK4PPtrI11LightProbesEcvPS0_Ev
i$e:_UNITY_FT_Outline_Decompose
Xsg:_Int64_System_IConvertible_ToChar_m1509243576_AdjustorThunk
iCj:_GeneralNames_get_IPAddresses_m4242915644
h3k:_UnitySynchronizationContext_Exec_m3359802660
BFi:_Enumerator_Dispose_m3500272053_AdjustorThunk
CHk:_GC_init_size_map
lbe:__ZN5physx6shdfnd8internal8HashBaseINS0_4PairIKNS3_IPKNS_12PxsRigidCoreEPKNS_12PxsShapeCoreEEEPNS_11PxsCCDShapeEEESA_NS0_4HashISA_EENS1_11HashMapBaseISA_SD_SG_NS0_9AllocatorEE6GetKeyESI_Lb1EE15reserveInternalEj
z1a:__Z20scripting_object_new17ScriptingClassPtr
Ivm:dynCall_iiiiifi
xBl:__ZL69RuntimeArray_CustomAttributesCacheGenerator_Array_Reverse_m3714848183P21CustomAttributesCache
yhm:__ZL74CarAIControl_t1541705461_CustomAttributesCacheGenerator_m_AccelSensitivityP21CustomAttributesCache
ALh:_KeyGeneratedEventHandler_Invoke_m2527485594
IRf:_Image_get_layoutPriority_m1290204116
ggk:__ZN24dense_hashtable_iteratorINSt3__24pairIK10KeyWrapperINS1_IPK9FieldInfoP11Il2CppClassEEEjEES9_17ReflectionMapHashIS8_EN14dense_hash_mapIS9_jSD_NS9_14EqualsComparerINS0_8equal_toIS8_EEEENS0_9allocatorISB_EEE9SelectKeyESI_SK_E30advance_past_empty_and_deletedEv
lKj:_Repetition_get_Expression_m2673886232
U5d:__ZN5physx2Sc5Scene21setDominanceGroupPairEhhRKNS_20PxDominanceGroupPairE
e0h:_Decimal__ctor_m1925875020_AdjustorThunk
Wqh:_SerializationCallbacks__ctor_m3863304525
FVa:__ZN23PreloadManagerOperation21MustCompleteNextFrameEv
FKl:__ZL59SerializationInfo_t950877179_CustomAttributesCacheGeneratorP21CustomAttributesCache
i0c:__ZN16CustomDataModule8TransferI18StreamedBinaryReadILb0EEEEvRT_
_Wj:__ZL25UnresolvedVirtualCall_237P12Il2CppObjectiPK10MethodInfo
P:Math_exp
COk:_Vector3_Min_m1803158933
Pp:FUNCTION_TABLE_iiifi
Zyk:__ZN6il2cpp2os5posix13PosixAutoLockD2Ev
pBj:_TlsServerSettings_set_CertificateTypes_m2047242411
smk:_il2cpp_class_get_name
dPj:_SymmetricTransform_OFB_m3690147804
vlf:__ZN5physx22PxVehicleWheelsSimData20setWheelShapeMappingEji
gUe:_cff_get_advances
xSb:__ZN13MonoBehaviour9SetScriptERK4PPtrI10MonoScriptE18ScriptingObjectPtr
xdk:_RaycastHit2D_get_collider_m1549426026
kGb:__Z18Transfer_BlittableI17RemapPPtrTransferLb0E8Vector2fEvRK29SerializationCommandArgumentsR31RuntimeSerializationCommandInfo
_tk:__ZNSt3__218uninitialized_copyIPNS_4pairIK10KeyWrapperIP14Il2CppIUnknownEjEES8_EET0_T_SA_S9_
WRh:_X500DistinguishedName_GetSeparator_m1336760642
lvl:__Z77RuntimeInvoker_Void_t1185182177_Vector2U5BU5DU26_t476646542_Int32_t2950945753PFvvEPK10MethodInfoPvPS4_
tZd:__ZN5physx7NpScene12loadFromDescERKNS_11PxSceneDescE
QMh:_PKCS12_get_RNG_m2649456600
SWa:__ZNK10FileSystem16LastErrorMessageEv
tui:_Array_InternalArray__Insert_TisVector3_t3722313464_m3862657277_gshared
b_l:__ZL104NativeClassAttribute_t2601352714_CustomAttributesCacheGenerator_U3CQualifiedNativeNameU3Ek__BackingFieldP21CustomAttributesCache
Jei:_SecurityException__ctor_m1631242336
J3j:__ZN15dense_hashtableINSt3__24pairIK10KeyWrapperIPK11Il2CppClassEPKcEES6_N6il2cpp5utils11PointerHashIS3_EEN14dense_hash_mapIS6_S9_SE_NS6_14EqualsComparerINS0_8equal_toIS5_EEEENS0_9allocatorISA_EEE9SelectKeyESJ_SL_E14squash_deletedEv
fEf:_EventSystem_Update_m1662072334
Atc:__ZN11TimeManager16HasFixedTimeStepEv
cjf:__ZN22UnityWebRequestManager10InitializeEv
ORb:__ZN13MonoBehaviour13AwakeFromLoadE17AwakeFromLoadMode
aFl:__ZL51FileMode_t1183438340_CustomAttributesCacheGeneratorP21CustomAttributesCache
WGb:__ZL26Transfer_SimpleNativeClassI17RemapPPtrTransfer8GradientLb1EEvRK29SerializationCommandArgumentsR31RuntimeSerializationCommandInfo
JDf:_RaycasterManager_RemoveRaycasters_m3057093063
iqc:__ZN12CachedWriter9InitWriteER15CacheWriterBase
Ooc:__Z21UnsignedInt64ToStringy
uzh:_GetRaycastNonAllocCallback_BeginInvoke_m3984885848
G$g:_InternalEnumerator_1_MoveNext_m4138204635_AdjustorThunk
wGj:_PatternCompiler_BeginLink_m1295557963
Z$a:__ZN14SafeBinaryRead21TransferSTLStyleArrayI13dynamic_arrayI17SortingLayerEntryLj4EEEEvRT_17TransferMetaFlags
uLl:__ZL46MD5_t3177620429_CustomAttributesCacheGeneratorP21CustomAttributesCache
S5d:__ZN5physx14PxsAABBManager15createAggregateEPvb
LJj:_Group_GetAnchorInfo_m3730312864
Mam:__ZL50Graphic_t1660335611_CustomAttributesCacheGeneratorP21CustomAttributesCache
$$k:_SceneManager_GetActiveScene_m1825203488
PRi:_TimeSpan_op_LessThanOrEqual_m300470010
QNe:__Z14resize_trimmedINSt3__26vectorI15DetailPrototypeNS0_9allocatorIS2_EEEEEvRT_j
hkh:_ContextAttribute_Freeze_m3288175579
GEc:__Z66Register_UnityEngine_Transform_INTERNAL_CALL_InverseTransformPointv
Cna:__ZZN15DirectorManager15InitializeClassEvEN41FixedUpdateDirectorFixedUpdateRegistrator7ForwardEv
Qxg:_MemoryStream_get_Position_m3733941202
kKe:__ZN13PhysicsModule21ReleaseNxTriangleMeshEP17PhysicsModuleMesh
yWl:__ZL96TouchScreenKeyboard_t731888065_CustomAttributesCacheGenerator_TouchScreenKeyboard_Open_m43950298P21CustomAttributesCache
VQj:_AudioClipPlayable_Equals_m3705880618
Hec:__ZL10KeyHandleriPK23EmscriptenKeyboardEventPv
zkg:_Slot_t3975888750_marshal_pinvoke
nEm:_glLinkProgram__wrapper
Myb:__ZN18ScriptingArguments8AddInt64Ex
LJa:__ZN6prcoreL12RemapGenericI17TexFormatARGB888815TexFormatBGR888EEvPKNS_9InnerInfoE
rzb:__ZN12HandlerChain4LockER13FileEntryData12FileLockMode
M8h:_TextInfo_get_ListSeparator_m1628160079
J7l:__ZL77ExecuteEvents_t3484638744_CustomAttributesCacheGenerator_U3CU3Ef__mgU24cache6P21CustomAttributesCache
qVc:__Z20UpdateCustomCurveTplIL27ParticleSystemCurveEvalMode1EEvRK11MinMaxCurveR23ParticleSystemParticlesiijjRKN4math5_int4E
aDh:_Selectable_OnCanvasGroupChanged_m472903475
LOi:_EventWaitHandle_Reset_m3348053200
wdh:_Enumerator_get_Current_m2897627569_gshared
yTc:__ZNK10SizeModule6UpdateER23ParticleSystemParticlesjj
HLd:__ZN5physx7NpShape8requiresERNS_23PxProcessPxBaseCallbackE
stk:__ZN6il2cpp6icalls8mscorlib6System13Globalization11CultureInfo35construct_internal_locale_from_nameEP17Il2CppCultureInfoP12Il2CppString
ksf:__ZN5physx2Sn21RepXVisitorWriterBaseINS_22PxVehicleWheelsDynDataEE23extendedIndexedPropertyINS_3Pvd36PxPvdExtendedIndexedPropertyAccessorILj632ES2_KjfEEKNS_18PxUnknownClassInfoEEEvPjRKT_RT0_
cJb:__ZL22Transfer_ManagedObjectI24GenerateTypeTreeTransferLb1EEvRK29SerializationCommandArgumentsR31RuntimeSerializationCommandInfo
A6k:__Z100RuntimeInvoker_Boolean_t97287965_RuntimeObject_Int32_t2950945753_RuntimeObject_UInt16U26_t2814738322PFvvEPK10MethodInfoPvPS4_
Hvl:__Z56RuntimeInvoker_ILTokenInfo_t2325775114_Int32_t2950945753PFvvEPK10MethodInfoPvPS4_
jIg:_HMAC_get_BlockSizeValue_m455678067
W_b:__ZN15RenderNodeQueueC2E10MemLabelId
A3f:_ResourceEnumerator_FillCache_m1661715061
btl:__Z60RuntimeInvoker_Int32_t2950945753_ResourceCacheItem_t51292791PFvvEPK10MethodInfoPvPS4_
ihm:__ZL79ControlSurface_t2158797087_CustomAttributesCacheGenerator_originalLocalRotationP21CustomAttributesCache
Kpj:_ReadOnlyCollection_1_System_Collections_IList_IndexOf_m3664838805_gshared
GMl:__ZL72SecuritySafeCriticalAttribute_t3505979402_CustomAttributesCacheGeneratorP21CustomAttributesCache
Gk:_emscripten_set_main_loop_timing
qOk:_Bounds_get_min_m3755135869
Log:_Convert_ToUInt16_m3523269149
R4:__ZN8Renderer10DeactivateE19DeactivateOperation
Xtk:__ZN30dense_hashtable_const_iteratorINSt3__24pairIK10KeyWrapperIP14Il2CppIUnknownEjEES5_N6il2cpp5utils11PointerHashIS3_EEN14dense_hash_mapIS5_jSB_NS5_14EqualsComparerINS0_8equal_toIS4_EEEENS0_9allocatorIS7_EEE9SelectKeyESG_SI_E30advance_past_empty_and_deletedEv
yBd:__ZN5physx2Sc21ArticulationJointCore22setTangentialStiffnessEf
eFf:_ExecuteEvents_get_endDragHandler_m2879610446
Anf:__ZZNK5physx26PxSerializerDefaultAdapterINS_18PxVehicleDriveTankEE18registerReferencesERNS_6PxBaseERNS_22PxSerializationContextEEN16RequiresCallback7processES4_
SIe:__ZN14CompletionTask22ProcessAllPhysicsTasksEv
Tac:__ZN14ImageReference10FlipImageYEv
dWh:_Interpreter_GetLastDefined_m4107643411
hYg:_InternalEnumerator_1__ctor_m2336656763_AdjustorThunk
v$c:__ZN21InheritVelocityModule8TransferI17RemapPPtrTransferEEvRT_
Lwg:_FileStream_RefillBuffer_m4186945278
Q0a:__Z32TransferEnumWithNameForceIntSizeI14SafeBinaryRead13TargetEyeMaskEvRT_RT0_PKc17TransferMetaFlags
aIc:__Z14GetDefaultSkini
$N:__ZN4FMOD3DSP9setBypassEb
mXc:__Z9StartConeILN11ShapeModule14MultiModeValueE1EEvRS0_R23ParticleSystemParticlesRK19ParticleSystemStateRK27ParticleSystemEmissionStateRKN4math8float3x3ERKNSB_8float4x4Ejbj
zec:__Z19NormalizeWheelInputf
mPf:_Graphic_DoMeshGeneration_m3548487693
wdc:__Z29StdTemplateConversionFunctionIsaEbPvR14SafeBinaryRead
enh:_MonoMethodMessage_get_Uri_m2484777536
MG:__ZNK4PPtrI13MonoBehaviourEcvPS0_Ev
KHj:_Repetition__ctor_m1672362629
lRc:__Z29Transfer_Blittable_ArrayFieldI8JSONReadhEvRT_R9ArrayInfoRK23StaticTransferFieldInfo
Mfi:_SecurityFrame_ToString_m339310712_AdjustorThunk
v_f:_TypeBuilder_create_runtime_class_m2581270900
KZg:_InternalEnumerator_1_get_Current_m3008260692_gshared
gQd:__ZN5physx2Sc9ClothCore17addCollisionPlaneERKNS_21PxClothCollisionPlaneE
b2a:__ZN22RenderingCommandBuffer20CleanupCommandBufferEv
_1h:_Decimal_op_Implicit_m2299919277
aMc:__Z18Transfer_BlittableI9JSONWriteLb1EtEvRK29SerializationCommandArgumentsR31RuntimeSerializationCommandInfo
MAg:_UnexceptionalStreamReader_ReadToEnd_m920589220
AYh:_DateTime_System_IConvertible_ToType_m1242864300
Zhi:_String_IndexOf_m1298810678
$k:___syscall85
$3l:__ZL85GUI_t1624858472_CustomAttributesCacheGenerator_GUI_set_nextScrollStepTime_m1026410471P21CustomAttributesCache
rve:__ZNK5physx13PxHeightField8isKindOfEPKc
Lkj:_Mesh_GetAllocArrayFromChannel_TisVector3_t3722313464_m2332439905_gshared
$_b:__ZNSt3__26__sortIRPFbP10GUIElementS2_EPS2_EEvT0_S7_T_
K5e:__Z14ValidateFormatR13dynamic_arrayIN20TextRenderingPrivate16TextFormatChangeELj4EE
rVf:_ConstructorBuilder_GetILGenerator_m1750792206
IKi:_EncoderFallback_get_ReplacementFallback_m818398284
Qzk:__ZN6il2cpp2os6Thread19DetachCurrentThreadEv
AEf:_EventTrigger_OnBeginDrag_m4203438710
q1j:__ZN6il2cpp2vmL21SetupInterfacesLockedEP11Il2CppClassRKNS_2os12FastAutoLockE
EBb:__ZN11MonoManager23VirtualRedirectTransferER24GenerateTypeTreeTransfer
Use:__ZNK5physx2Sc18ParticleSystemCore16getInternalFlagsEv
g$c:__ZN24GenerateTypeTreeTransfer8TransferI13dynamic_arrayIN8UVModule10SpriteDataELj4EEEEvRT_PKc17TransferMetaFlags
Shj:_Dictionary_2_Do_CopyTo_TisRuntimeObject_TisRuntimeObject_m2344529027_gshared
F7a:__ZN19StreamedBinaryWriteILb0EE8TransferI13dynamic_arrayI8Vector3fLj4EEEEvRT_PKc17TransferMetaFlags
LH:__ZN23AnimationPlayableOutput17SetSourcePlayableEP8Playable
v4c:__ZL24BuildParticleLineSegmentILb1EEvjRPhRKN4math8float4x4EPK15LineBuilderDataRKfSA_11ColorRGBA32
MBf:__ZNK13WheelCollider12GetLocalPoseER8Vector3fR11Quaternionf
oRi:_TimeSpan_CompareTo_m3633415627_AdjustorThunk
Iwl:__Z37RuntimeInvoker_UILineInfo_t4195266810PFvvEPK10MethodInfoPvPS4_
pQk:_CullingGroup_Dispose_m782801025
Dwi:_Dictionary_2_System_Collections_IDictionary_GetEnumerator_m529247385_gshared
kkd:__ZN16ControllerFilter9preFilterERKN5physx12PxFilterDataEPKNS0_7PxShapeEPKNS0_12PxRigidActorERNS0_7PxFlagsINS0_9PxHitFlag4EnumEtEE
S$:__ZN11UnityEngine15CloudWebService14DataDispatcher15SetupWebRequestEv
$9i:_Collection_1_ConvertItem_m492501417_gshared
qef:__ZN11UnityEngine15PlatformWrapper13GetShaderCapsEv
dhe:__ZN16MBPOS_TmpBuffers16allocateSleepingEjj
Xpf:__Z26getPxVehicleWheelDataMMassPKN5physx18PxVehicleWheelDataE
cYf:_GenericTypeParameterBuilder_IsDefined_m98179866
xKh:_KeyPairPersistence_get_MachinePath_m3812267291
Slg:_Stack_Peek_m2216191248
aAj:_ListPool_1_U3Cs_ListPoolU3Em__0_m657844629_gshared
nYh:_DateTime_System_IConvertible_ToDecimal_m1044850612_AdjustorThunk
Pnc:__ZN21FixedBehaviourManager6UpdateEv
wvc:__ZN9Transform9SetParentEPS_NS_15SetParentOptionE
d0c:__ZN15CollisionModule8TransferI18StreamedBinaryReadILb0EEEEvRT_
nea:__ZN19ShaderPropertySheet8SetFloatEN9ShaderLab16FastPropertyNameEfNS_8SetFlagsE
n$j:_Physics_Raycast_m952690504
Hub:__ZN19RuntimeSceneManager24BeginIntegrateMainThreadEP10UnityScene
lzd:__ZN5physx14NpArticulation26setExternalDriveIterationsEj
Qbd:__ZN16RayRTreeCallbackILi0ELb0EED0Ev
GSg:_TlsServerCertificate_ProcessAsSsl3_m1306583193
Bme:__ZN5physx20PxsParticleSystemSim23scheduleCollisionUpdateERNS_10PxBaseTaskE
AAk:__ZNSt3__2plIcNS_11char_traitsIcEENS_9allocatorIcEEEENS_12basic_stringIT_T0_T1_EERKS9_S6_
Nzg:_StringReader_CheckObjectDisposedException_m3796163530
Rta:__ZN9ShaderLab20SerializedSubProgramaSERKS0_
Otm:_roundf
Igh:_Dictionary_2_pick_value_m4268517353_gshared
Kdg:_Byte_System_IConvertible_ToSingle_m324484566_AdjustorThunk
lxf:__Z36setPxVehicleDriveDynData_AnalogInputPN5physx21PxVehicleDriveDynDataEjf
L1h:_Decimal_op_Explicit_m2848387298
fEi:_KeyValuePair_2_ToString_m1238786018_gshared
and:__ZN5physx15PxBoxControllerD0Ev
pB:__ZN8Animator15SetPrepareStageEv
OIk:__ZN6il2cpp6icalls8mscorlib6System4Text8Encoding16InternalCodePageEPi
sN:__ZN8AnimatorC2E10MemLabelId18ObjectCreationMode
r1j:__ZN6il2cpp2vmL24SetupTypeHierarchyLockedEP11Il2CppClassRKNS_2os12FastAutoLockE
Iec:__ZL11TextHandleriPK23EmscriptenKeyboardEventPv
_3b:__Z20CalculateLightMatrixRK15SharedLightDataP10Matrix4x4f
b5e:_destroy_face
iAm:_glBlendEquationSeparate__wrapper
ynd:__ZN5physx19PxAllocatorCallbackD2Ev
YIk:__ZN6il2cpp6icalls8mscorlib6System8Security12Cryptography24RNGCryptoServiceProvider13RngInitializeEP11Il2CppArray
bUl:__ZL68UsedByNativeCodeAttribute_t1703770351_CustomAttributesCacheGeneratorP21CustomAttributesCache
z2c:__ZN21RotationBySpeedModuleD0Ev
UUd:__ZNK5physx15NpActorTemplateINS_16PxParticleSystemEE17getDominanceGroupEv
RU:__ZN20SoundChannelInstance7setMuteEb
OVj:__ZL25UnresolvedVirtualCall_171P12Il2CppObject19Vector2_t2156229523PK10MethodInfo
s8a:__ZN4PPtrI5LightE8TransferI19StreamedBinaryWriteILb0EEEEvRT_
yld:__ZN5physx3Cct26CharacterControllerManager21createObstacleContextEv
csi:_Array_InternalArray__ICollection_Add_TisVector2_t2156229523_m4029235359_gshared
jYi:_List_1__cctor_m972674764_gshared
yEg:_NumberFormatter_NumberToString_m3906556024
ONb:__Z19TransferField_ArrayI18StreamedBinaryReadILb1EE27Converter_SimpleNativeClassI17AnimationCurveTplIfEEEvRK23StaticTransferFieldInfoR31RuntimeSerializationCommandInfoRT0_
wyg:_NullStream_Flush_m3382897993
c6c:__Z19UpdateSingleRow2TplIL27ParticleSystemCurveEvalMode1ELS0_1EEvfRK11MinMaxCurveS3_RK23ParticleSystemParticlesPfbiii
jGa:__ZN18GfxFramebufferGLES22MakeCurrentFramebufferENS_7BuiltinE
kEk:__ZN6il2cpp2vm12MarshalAlloc4FreeEPv
F$d:__ZN5physx6shdfnd5ArrayIPNS_2Sc19ShapeInstancePairLLENS0_19ReflectionAllocatorIS4_EEE15growAndPushBackERKS4_
Wga:__ZN12CachedReader4ReadEPvj
oge:__ZN5physx21MBPPostUpdateWorkTaskD0Ev
b3f:_TypeFilter_EndInvoke_m998903841
MUe:_cf2_blues_init
zDd:__ZN5physx2Sc8BodyCore24clearSpatialAccelerationEbb
Lwi:_KeyValuePair_2__ctor_m1794021352_gshared
fHh:_SimpleCollator_MatchesForwardCore_m850743967
Vpb:__ZN14SubstanceInput8TransferI18StreamedBinaryReadILb0EEEEvRT_
gVc:__ZNK14RotationModule6UpdateERK27ParticleSystemReadOnlyStateRK19ParticleSystemStateR23ParticleSystemParticlesRKN4math7_float4Ejj
kka:__ZN19RuntimeSceneManagerD2Ev
H$l:__ZL77DeallocateOnJobCompletionAttribute_t3131681843_CustomAttributesCacheGeneratorP21CustomAttributesCache
ywa:__ZN13dynamic_arrayIPN9ShaderLab4PassELj4EE9push_backERKS2_
c6h:_CCGregorianCalendar_GetMonth_m1547203696
g1:__ZN11UnityEngine15CloudWebService25WebRequestDownloadHandler17OnCompleteContentEv
aJa:__ZN6prcore17GetIntegerBlitterE13TextureFormatS0_N14ImageReference8BlitModeE
bHk:_GC_print_block_descr
y$d:__ZN5physx10PxsContext20createContactManagerERKNS_24PxvManagerDescRigidRigidEPNS_18PxsMaterialManagerE
wlf:__ZN13WheelCollider8TransferI14SafeBinaryReadEEvRT_
xhk:__ZN6il2cpp2gc19AppendOnlyGCHashMapINSt3__24pairIPK11Il2CppImageP11Il2CppClassEEP22Il2CppReflectionModule17ReflectionMapHashIS9_ENS2_8equal_toIS9_EEE11TryGetValueERKS9_PSB_
LZd:__ZN5physx2Cm12DelegateTaskINS_7NpSceneEXadL_ZNS2_12executeSolveEPNS_10PxBaseTaskEEEED0Ev
xcd:__ZN5physx2GuL18gPCMHullPrefetchCBEjPKNS_6PxVec3E
utd:__ZN5physx2Sc5Scene31removeActiveBreakableConstraintEPNS0_13ConstraintSimE
UEl:__ZL51Directory_t828876208_CustomAttributesCacheGeneratorP21CustomAttributesCache
bbg:_SimpleEnumerator_Reset_m2182001888
usl:__Z86RuntimeInvoker_Int32_t2950945753_Vector2_t2156229523_Vector2_t2156229523_RuntimeObjectPFvvEPK10MethodInfoPvPS4_
Rxc:__ZN9BlobWrite14ReduceCopyImplERK14ReduceCopyDataj
Mia:__ZNSt3__26__treeI19RepeatingLogMessageNS_4lessIS1_EE13stl_allocatorIS1_L18MemLabelIdentifier73ELi16EEE12__find_equalIS1_EERPNS_16__tree_node_baseIPvEESD_RKT_
MY:__ZN11AudioSource18IsPlayingScriptingEv
pKh:_KeyBuilder_IV_m2230195376
V3d:__ZN5physx6shdfnd5ArrayINS_12PxActorShapeENS0_19ReflectionAllocatorIS2_EEE15growAndPushBackERKS2_
KYa:__ZN25MultiBlocksMemoryFileData17AdjustBlocksCountEj
Hqk:__ZNSt3__214__split_bufferIN6il2cpp2vm22EmbeddedResourceRecordERNS_9allocatorIS3_EEED2Ev
w3e:__ZN13TextRendering4Font8TransferI24GenerateTypeTreeTransferEEvRT_
gCa:__ZN9GfxDevice15EndProfileEventEPN9profiling6MarkerE
gzc:__Z27CullingGroup_CUSTOM_DisposeP12Il2CppObject
p5c:__Z18UpdateSingleRowTplIL27ParticleSystemCurveEvalMode0EEvfRK11MinMaxCurveS3_RK23ParticleSystemParticlesPfbiii
ohf:__ZNSt3__26vectorIP19BaseConnectSettings13stl_allocatorIS2_L18MemLabelIdentifier6ELi16EEE21__push_back_slow_pathIKS2_EEvRT_
cnm:_CarAIControl_OnCollisionStay_m1342184659
G_b:__ZN13ComputeShader15SetTextureParamEjRKN9ShaderLab16FastPropertyNameE9TextureID16TextureDimension
S7g:_Comparer_1__ctor_m319670016_gshared
hId:__ZN5physx2Sc14ConstraintCore8setFlagsENS_7PxFlagsINS_16PxConstraintFlag4EnumEtEE
hn:_glStencilMask
X2j:_MainModule_set_startSize_m1275429743
d5g:_InternalEnumerator_1_System_Collections_IEnumerator_get_Current_m2499755184_gshared
lue:__ZNK5physx2Sc15ClothFabricCore20getNbParticleIndicesEv
Bec:__ZN15GUIEventManager10QueueEventERK10InputEvent
Pwf:__ZN5physx2Sn21RepXVisitorReaderBaseINS_16PxVehicleDriveNWEE15complexPropertyINS_22PxRepXPropertyAccessorILj674ENS_14PxVehicleDriveENS_21PxVehicleDriveDynDataES7_EEKNS_34PxVehicleDriveDynDataGeneratedInfoEEEvPjRKT_RT0_
S6i:_Collection_1_Clear_m1300437781_gshared
odj:_Collection_1_Contains_m1707523067_gshared
k4f:_DecimalConstantAttribute__ctor_m3583301917
qz:__ZN24GenerateTypeTreeTransfer21TransferSTLStyleArrayINSt3__26vectorI24CompressedAnimationCurve13stl_allocatorIS3_L18MemLabelIdentifier26ELi16EEEEEEvRT_17TransferMetaFlags
C9i:_Collection_1_System_Collections_ICollection_get_IsSynchronized_m1640823718_gshared
DGk:_GC_push_conditional_with_exclusions
C9g:_Enumerator_System_Collections_IDictionaryEnumerator_get_Entry_m2772123357_AdjustorThunk
eE:__ZN21AnimationPosePlayableD0Ev
kK:__ZN12_GLOBAL__N_121ProcessAnimationBeginER35AnimationPlayableEvaluationConstantR32AnimationPlayableEvaluationInputR33AnimationPlayableEvaluationOutput
QOl:__ZL80Convert_t2465617642_CustomAttributesCacheGenerator_Convert_ToDecimal_m2858622624P21CustomAttributesCache
ALj:_UriParser_InitializeAndValidate_m2008117311
Sqm:_strrchr
UPk:_Component_GetComponentInParent_m779177818
n_l:__ZL73RuntimePlatform_t4159857903_CustomAttributesCacheGenerator_MetroPlayerARMP21CustomAttributesCache
Msd:__ZN5physx2Sc7BodySim6wakeUpEv
Jui:_Dictionary_2_System_Collections_ICollection_get_SyncRoot_m2069913662_gshared
pIf:_UIBehaviour_IsDestroyed_m3033055982
o$d:__ZN5physx6shdfnd8PoolBaseINS_2Gu30LargePersistentContactManifoldENS0_19ReflectionAllocatorIS3_EEE17releaseEmptySlabsEv
htd:__ZN5physx2Sc21ConstraintInteraction7destroyEv
Y2k:_Enumerator_Reset_m39541243
bCc:__Z33Register_UnityEngine_Random_Rangev
ith:_InputField_get_readOnly_m3111985574
Lde:__ZN5physx13PxsSolverCoreD2Ev
iF:__ZN27AnimationLayerMixerPlayableD0Ev
F8a:__ZN14RenderSettings27UpdateIndirectSpecularColorEv
aUk:_Logger_get_logHandler_m1335645353
xsb:__ZN14PlayerSettings8TransferI18StreamedBinaryReadILb0EEEEvRT_
Wak:__ZN6il2cpp6icalls8mscorlib6System8MonoType16GetMethodsByNameEP20Il2CppReflectionTypeP12Il2CppStringibS5_
WJl:__ZL73ObjRef_t2141158884_CustomAttributesCacheGenerator_U3CU3Ef__switchU24map26P21CustomAttributesCache
H8l:__ZL102PointerEventData_t3807901092_CustomAttributesCacheGenerator_PointerEventData_set_pointerId_m1888344330P21CustomAttributesCache
Z2l:__ZL88AudioClip_t3680889665_CustomAttributesCacheGenerator_AudioClip_get_ambisonic_m3815052287P21CustomAttributesCache
U0d:__ZNK5physx7NpScene16getNbConstraintsEv
Ewh:_U3CDelayedSetDirtyU3Ec__Iterator0__ctor_m3936335621
ROd:__ZN5physx7NpCloth14setWakeCounterEf
rfa:__ZN4PPtrI10GameObjectE8TransferI14SafeBinaryReadEEvRT_
X$l:__ZL106PlayableAsset_t3219022681_CustomAttributesCacheGenerator_PlayableAsset_Internal_CreatePlayable_m2550417712P21CustomAttributesCache
cPi:_Monitor_Monitor_wait_m3706677354
WJg:_RijndaelTransform__cctor_m2439033240
YWb:__ZNSt3__27__sort3IRNS_4lessIN22BuiltinResourceManager8ResourceEEEPS3_EEjT0_S7_S7_T_
_Bl:__ZL175U3CGetEnumeratorU3Ec__Iterator0_t1202911786_CustomAttributesCacheGenerator_U3CGetEnumeratorU3Ec__Iterator0_System_Collections_Generic_IEnumeratorU3CTU3E_get_Current_m322251035P21CustomAttributesCache
TSj:__ZL24UnresolvedVirtualCall_14P12Il2CppObject25RSAParameters_t1728406613PK10MethodInfo
T1e:_ps_hints_t2mask
pAf:__ZNK5physx34PxVehicleDriveSimDataGeneratedInfo23visitInstancePropertiesINS_18RepXPropertyFilterINS_2Sn17RepXVisitorWriterINS_23PxVehicleDriveSimData4WEEEEEEEjT_j
hmi:_Array_InternalArray__ICollection_Remove_TisMonoResource_t4103430009_m238733686_gshared
jug:_IntPtr_ToString_m1831665121
KAf:__ZN5physx43PxVehicleDrivableSurfaceToTireFrictionPairs5setupEjjPPKNS_10PxMaterialEPKNS_28PxVehicleDrivableSurfaceTypeE
XDh:_Slider_Set_m1476104429
_Qf:_Image_set_fillClockwise_m2210525152
mrf:__Z46setPxVehicleWheelsSimData_SceneQueryFilterDataPN5physx22PxVehicleWheelsSimDataEjNS_12PxFilterDataE
rnb:__ZN10BlendShape8TransferI19StreamedBinaryWriteILb0EEEEvRT_
OJe:__ZN14PhysicsManagerC2E10MemLabelId18ObjectCreationMode
Cve:__ZNK5physx2Gu11HeightField17getReferenceCountEv
FO:__Z32TransferEnumWithNameForceIntSizeI14SafeBinaryReadN10SampleClip8LoadTypeEEvRT_RT0_PKc17TransferMetaFlags
aug:__Z21il2cpp_codegen_sizeofP11Il2CppClass
VMa:__Z19GetTimeSinceStartupv
yRf:_Image_AddQuad_m2161647989
Kab:__ZN7Texture23VirtualRedirectTransferER17RemapPPtrTransfer
vDf:_BaseInputModule_DeactivateModule_m856719157
eAk:__ZN6il2cpp2os10ThreadImpl11SetPriorityENS0_14ThreadPriorityE
kHi:_Enumerator_System_Collections_IEnumerator_Reset_m2953002685_gshared
y8k:__Z50RuntimeInvoker_Int64_t3736567304_Int32_t2950945753PFvvEPK10MethodInfoPvPS4_
n1e:_TT_Load_Composite_Glyph
xob:__Z33MultiplyMatrixArrayWithBase4x4REFPK10Matrix4x4fS1_S1_PS_j
FXh:_DateTime_FromTicks_m4059645178
jCa:__ZN9GfxDevice16DeleteTimerQueryEP13GfxTimerQuery
w3i:_List_1_Insert_m1695211546_gshared
wnl:__Z49RuntimeInvoker_Void_t1185182177_Color_t2555686324PFvvEPK10MethodInfoPvPS4_
sbb:__ZN9ShaderLab11shaderprops9GetTexEnvEPK19ShaderPropertySheetS3_NS_16FastPropertyNameE16TextureDimensionb
UZi:_List_1_Sort_m3232912161_gshared
J1b:__ZN29RenderNodeQueuePrepareContextC2Ev
Wmk:_il2cpp_gc_disable
bva:__ZN9ShaderLab20SerializedSubProgram16TextureParameter8TransferI24GenerateTypeTreeTransferEEvRT_
RHg:_DSASignatureDeformatter_SetKey_m2999549245
wJk:__ZN6il2cpp2os11MutexHandle4WaitEb
uza:__ZN9GfxDevice19SaveStereoConstantsEv
vJk:__ZN6il2cpp2os11MutexHandle4WaitEj
Gwc:__ZL34GetComponentsImplementationRecurseILb1ELi1ELi1EEbR10GameObjectbRK17CompareParametersRK39GetComponentsImplementation_ReturnValue
uJk:__ZN6il2cpp2os11MutexHandle4WaitEv
JUf:_AssemblyBuilder_GetTypes_m3415680380
VKa:__ZN6prcoreL17RemapGenericFloatI15TexFormatRGHalf18TexFormatARGBFloatEEvPKNS_9InnerInfoE
N2h:_StackFrame_GetMethod_m1395840764
S9a:__ZNK13RenderTexture13GetDataHeightEv
bVb:__Z18SimulateMouseInputi
XZb:__ZN13RenderManager23AddRemoveCamerasDelayedEv
fNc:__ZN9JSONWrite8TransferI13dynamic_arrayIdLj8EEEEvRT_PKc17TransferMetaFlags
AVa:__ZN23PreloadManagerOperation11GetPriorityEv
Wvh:_LayoutElement_OnEnable_m1760066426
pOe:__ZN9Heightmap8TransferI24GenerateTypeTreeTransferEEvRT_
D2d:__ZN5physx2Sq17SceneQueryManager11shiftOriginERKNS_6PxVec3E
_0h:_Decimal_Compare_m3062820418
rXh:_IntervalCollection_GetMetaCollection_m4029522214
WIe:__ZNK5Unity5Joint16GetCurrentForcesER8Vector3fS2_
wyf:__ZN5physx3Pvd17PvdPropertyFilterINS_2Sn17RepXVisitorWriterINS_18PxVehicleGearsDataEEEE15indexedPropertyILj530ES4_NS4_4EnumEfEEvjRKNS_21PxIndexedPropertyInfoIXT_ET0_T1_T2_EEPKNS_11PxU32ToNameERKNS_18PxUnknownClassInfoE
OXj:_TextGenerator_get_characterCount_m864136654
Uqf:__Z35getPxVehicleWheelsSimData_WheelDataPKN5physx22PxVehicleWheelsSimDataEj
ENk:_AsyncOperation_t1445031843_marshal_pinvoke_cleanup
RQi:_TimeSpan__ctor_m2047388489_AdjustorThunk
F9b:__ZN13RenderTexture8SetWidthEi
djc:__ZNK28RectTransformPropertyBinding12SetPPtrValueERKN11UnityEngine9Animation10BoundCurveEi
mXb:__ZN18FrameTimingManager18GetVSyncsPerSecondEv
j2c:__ZN11ColorModuleD0Ev
Jjj:_Array_InternalArray__get_Item_TisSingle_t1397266774_m1672589487_gshared
Dnb:__ZN10MeshFilterD0Ev
p1e:_UNITY_FT_GlyphLoader_CheckSubGlyphs
dZg:_InternalEnumerator_1__ctor_m1341209356_AdjustorThunk
U3b:__Z25SetupObjectBakedOcclusionbRK15SharedLightDataRK26SharedLightmapSettingsDataRK15LightmapIndicesR17ShaderPassContext
uQe:__ZN14DetailDatabase9BuildMeshEii8Vector3f16DetailRenderModef
Z7i:_Collection_1_System_Collections_ICollection_CopyTo_m1516601228_gshared
a9i:_Collection_1_CopyTo_m4278237485_gshared
G9d:__ZNK5physx2Sq12BucketPruner9visualizeERNS_2Cm12RenderOutputEj
Ppg:_Int16_System_IConvertible_ToDouble_m1661805412
ebj:_Collection_1_Add_m3860636938_gshared
QKd:__ZNK5physx9NpFactory11getNbShapesEv
yvc:__Z13SetLocalEuler15TransformAccessRKN4math7_float3ENS0_13RotationOrderE
KSj:__ZL23UnresolvedVirtualCall_5P12Il2CppObjectsPK10MethodInfo
TL:__ZN4PPtrI6AvatarE8TransferI19StreamedBinaryWriteILb0EEEEvRT_
nIi:_List_1_Insert_m4050947056_gshared
vea:__ZN9ShaderLab16FastPropertyName4InitEPKc
P0g:_InternalEnumerator_1__ctor_m39232262_AdjustorThunk
bjl:__Z48RuntimeInvoker_OperatingSystemFamily_t1868066375PFvvEPK10MethodInfoPvPS4_
MNl:__ZL61Thread_t2300836069_CustomAttributesCacheGenerator_local_slotsP21CustomAttributesCache
nic:__Z13RegisterClassIN2UI13RectTransformEEvv
ho:FUNCTION_TABLE_iiiii
Ukj:_Collection_1_System_Collections_IEnumerable_GetEnumerator_m3596816767_gshared
Mlc:__ZL31MeshRendererTransformChangedJobP13BoundsJobDatajPK23TransformAccessReadOnlyPKyj
Ydf:__ZN11UnityEngine15PlatformWrapper19GetPhysicalMemoryMBEv
teg:_Char_System_IConvertible_ToByte_m2347554595_AdjustorThunk
nik:__ZNK15dense_hashtableINSt3__24pairIK10KeyWrapperINS1_IPK12PropertyInfoP11Il2CppClassEEEjEES9_17ReflectionMapHashIS8_EN14dense_hash_mapIS9_jSD_NS9_14EqualsComparerINS0_8equal_toIS8_EEEENS0_9allocatorISB_EEE9SelectKeyESI_SK_E12test_deletedERK30dense_hashtable_const_iteratorISB_S9_SD_SM_SI_SK_E
J_l:__ZL59TooltipAttribute_t3957072629_CustomAttributesCacheGeneratorP21CustomAttributesCache
yjb:__ZN10VertexData8TransferI17RemapPPtrTransferEEvRT_
U5c:__Z20UpdateWholeSheet2TplIL27ParticleSystemCurveEvalMode0ELS0_2EEvfRK11MinMaxCurveS3_RK23ParticleSystemParticlesPf
_3j:__ZN15dense_hashtableINSt3__24pairIK10KeyWrapperIPK11Il2CppClassEPKcEES6_N6il2cpp5utils11PointerHashIS3_EEN14dense_hash_mapIS6_S9_SE_NS6_14EqualsComparerINS0_8equal_toIS5_EEEENS0_9allocatorISA_EEE9SelectKeyESJ_SL_E13set_empty_keyERKSA_
_ii:_String_CreateString_m860434552
Pme:__ZN5physx2Sc10ClothShape21updateBoundsInAABBMgrEv
sdh:_Enumerator_System_Collections_IEnumerator_Reset_m278261807_AdjustorThunk
G7i:_Collection_1_GetEnumerator_m1824095167_gshared
DHl:__ZL107CriticalFinalizerObject_t701527852_CustomAttributesCacheGenerator_CriticalFinalizerObject__ctor_m3245424448P21CustomAttributesCache
Dsg:_Int32_Equals_m2976157357_AdjustorThunk
_Dc:__Z38Transform_CUSTOM_INTERNAL_get_rotationP12Il2CppObjectP11Quaternionf
qrf:__Z44setPxVehicleWheelsSimData_TireLoadFilterDataPN5physx22PxVehicleWheelsSimDataERKNS_27PxVehicleTireLoadFilterDataE
TYl:__ZL99SceneManager_t2787271929_CustomAttributesCacheGenerator_SceneManager_LoadScene_m2298600132____mode1P21CustomAttributesCache
yok:__ZNK15dense_hashtableINSt3__24pairIK10KeyWrapperIP11Il2CppClassES4_EES5_N6il2cpp8metadata16SZArrayClassHashEN14dense_hash_mapIS5_S4_SA_NS5_14EqualsComparerINS9_19SZArrayClassCompareEEENS0_9allocatorIS7_EEE9SelectKeyESE_SG_E3endEv
zll:__Z73RuntimeInvoker_Single_t1397266774_Vector2_t2156229523_Vector2_t2156229523PFvvEPK10MethodInfoPvPS4_
Knh:_SoapAttribute_get_XmlNamespace_m859394681
oxf:__Z31getPxVehicleDriveDynData_GearUpPKN5physx21PxVehicleDriveDynDataE
mhk:__ZNK15dense_hashtableINSt3__24pairIK10KeyWrapperINS1_IPK10MethodInfoP11Il2CppClassEEEjEES9_17ReflectionMapHashIS8_EN14dense_hash_mapIS9_jSD_NS9_14EqualsComparerINS0_8equal_toIS8_EEEENS0_9allocatorISB_EEE9SelectKeyESI_SK_E5beginEv
cFj:_X509ExtensionCollection_System_Collections_IEnumerable_GetEnumerator_m1475785462
lEa:__ZN7ApiGLES19UploadBufferSubDataEjN2gl12BufferTargetEllPKv
B_j:_SkeletonBone_t4134054672_marshal_pinvoke_cleanup
Te:_glFramebufferTextureLayer
Wae:__ZN5physx2Sc5Scene17createClothSolverEv
iqa:__ZNSt3__216__rotate_forwardINS_11__wrap_iterIPN4core12basic_stringIcNS2_20StringStorageDefaultIcEEEEEEEET_S9_S9_S9_
BZi:__ZN21InterfaceFuncInvoker0I19Color32_t2600501292E6InvokeEjP11Il2CppClassP12Il2CppObject
Vla:__ZdaPv
XSd:__ZNK5physx15PxsParticleData16getMaxParticlesVEv
t0k:_SendMouseEvents_HitTestLegacyGUI_m579942228
mt:__ZN7mecanim12statemachine20StateMachineConstant8TransferI14SafeBinaryReadEEvRT_
FDg:_MulticastDelegate_Equals_m2502840627
wci:_SymmetricAlgorithm_set_KeySize_m3805756466
DFe:__ZThn116_N5physx7profile8ZoneImplINS_28PxProfileNameProviderForwardEE12removeClientERNS_19PxProfileZoneClientE
sge:__ZN15MBP_PairManager17removeMarkedPairsEPK10MBP_ObjectPN5physx16PxsBroadPhaseMBPERK8BitArrayS8_
Qdg:_Byte_System_IConvertible_ToUInt32_m1049546902_AdjustorThunk
SIf:_U3CDelayUpdateU3Ec__Iterator0_System_Collections_IEnumerator_get_Current_m2906633870
k8j:__ZNSt3__26__treeINS_12__value_typeIP11Il2CppClassS3_EENS_19__map_value_compareIS3_S4_NS_4lessIS3_EELb1EEENS_9allocatorIS4_EEE25__emplace_unique_key_argsIS3_JNS_4pairIS3_S3_EEEEENSD_INS_15__tree_iteratorIS4_PNS_11__tree_nodeIS4_PvEEiEEbEERKT_DpOT0_
hXb:__Z21InitializeBatchedJobsv
OYj:_CanvasGroup_get_blocksRaycasts_m1805542303
ebi:_SHA1Internal_ProcessBlock_m1991889327
YDb:__Z19TransferField_ArrayI14SafeBinaryRead27Converter_SimpleNativeClassI8GUIStyleEEvRK23StaticTransferFieldInfoR31RuntimeSerializationCommandInfoRT0_
GRb:__ZN9TextAsset23VirtualRedirectTransferER19StreamedBinaryWriteILb0EE
Ftk:__ZN15dense_hashtableINSt3__24pairIK10KeyWrapperIP14Il2CppIUnknownEjEES5_N6il2cpp5utils11PointerHashIS3_EEN14dense_hash_mapIS5_jSB_NS5_14EqualsComparerINS0_8equal_toIS4_EEEENS0_9allocatorIS7_EEE9SelectKeyESG_SI_ED2Ev
xgj:_Array_Sort_TisRuntimeObject_TisRuntimeObject_m1685639929_gshared
wQi:_TimerCallback_Invoke_m1938221087
U2j:_MainModule_get_startLifetime_m2343501481
a8a:__ZN14RenderSettings5ResetEv
bhc:__ZN6Sprite9BindAtlasERK4PPtrI11SpriteAtlasE
PJc:__ZN5Unity9rapidjson12GenericValueINS0_4UTF8IcEE13JSONAllocatorE10FindMemberIS4_EENS0_21GenericMemberIteratorILb0ES3_S4_EERKNS1_IS3_T_EE
nKd:__ZN5physx9NpPhysics33unregisterDeletionListenerObjectsERNS_18PxDeletionListenerEPKPKNS_6PxBaseEj
v1g:_InternalEnumerator_1_System_Collections_IEnumerator_get_Current_m3892960115_AdjustorThunk
PQd:__ZNK5physx2Sc9ClothCore22getAngularInertiaScaleEv
ZOj:_SymmetricTransform_Finalize_m4129642865
uVh:_CaptureCollection_CopyTo_m3566922817
I0f:_MonoEventInfo_t346866618_marshal_pinvoke_cleanup
vIg:_HMAC_HashCore_m3684104066
VFc:__ZNK4PPtrI11TerrainDataEcvPS0_Ev
nKc:__ZN5Unity9rapidjson13GenericReaderINS0_4UTF8IcEES3_13JSONAllocatorE11ParseNumberILj1ENS0_25GenericInsituStringStreamIS3_EENS0_15GenericDocumentIS3_S4_S4_EEEEvRT0_RT1_
rv:__ZN19StreamedBinaryWriteILb0EE21TransferSTLStyleArrayI22OffsetPtrArrayTransferIN7mecanim8skeleton19SkeletonMaskElementEEEEvRT_17TransferMetaFlags
YBd:__ZN5physx20NpRigidActorTemplateINS_18PxArticulationLinkEE12setActorFlagENS_11PxActorFlag4EnumEb
dBl:__ZL88RuntimeArray_CustomAttributesCacheGenerator_Array_CreateInstance_m1027597705____lengths1P21CustomAttributesCache
Gaj:_Collection_1_RemoveItem_m2911050674_gshared
y6k:__Z79RuntimeInvoker_UInt16_t2177724958_RuntimeObject_Int32_t2950945753_RuntimeObjectPFvvEPK10MethodInfoPvPS4_
_zk:__ZN6il2cpp2os10ThreadImplD2Ev
X7c:__ZN14ParticleSystem18MarkAllSubEmittersEPS_
iLc:__ZN8Gradient8TransferI9JSONWriteEEvRT_
Yjh:_ContextCallbackObject__ctor_m3499682402
rEj:_X509StoreManager_get_LocalMachine_m269504582
I5l:__ZL81TextEditor_t2759855366_CustomAttributesCacheGenerator_TextEditor__ctor_m242049450P21CustomAttributesCache
nmg:_Convert_ToBoolean_m2833621053
gVa:__ZNK12TLSAllocatorI14StackAllocatorE22GetAllocatedMemorySizeEv
_v:__ZN7mecanim6memory16ChainedAllocator8AllocateEjj
mNe:__ZN11TerrainData16CheckConsistencyEv
jSl:__ZL62WebHeaderCollection_t1942268960_CustomAttributesCacheGeneratorP21CustomAttributesCache
Juc:__Z32GetSceneHierarchyPathDescriptivePK6Object
HAi:_EqualityComparer_1_System_Collections_IEqualityComparer_GetHashCode_m2138064395_gshared
QV:__ZNK7WeakPtrI20SoundChannelInstanceE10SharedData9GetRawPtrEv
czb:__ZN12HandlerChain4NameEv
LLf:_FloatTween_t1274330004_marshal_pinvoke
aqg:_Int16_System_IConvertible_ToType_m3672347013_AdjustorThunk
Vvg:_EndOfStreamException__ctor_m1590165188
un:FUNCTION_TABLE_fiiiiiifiiiiiif
wfi:_SecurityException_ToString_m3228070608
Mrg:_Int16_ToString_m2013897809
Hpe:__ZN5physx37setupFinalizeSolverConstraintsCoulombERNS_13PxcNpWorkUnitERKNS_2Gu13ContactBufferERKNS_27PxcCorrelationBufferCoulombERKNS_11PxTransformESB_bPhRKNS_13PxcSolverBodyESF_RKNS_17PxcSolverBodyDataESI_ffjffff
yfi:_String_Substring_m2848979100
Wbf:__Z44Register_UnityEngine_CanvasRenderer_get_cullv
s0j:__ZN15dense_hashtableINSt3__24pairIK10KeyWrapperIPK22Il2CppGenericParameterEP11Il2CppClassEES6_N6il2cpp5utils11PointerHashIS4_EEN14dense_hash_mapIS6_S9_SE_NS6_14EqualsComparerINS0_8equal_toIS5_EEEENS0_9allocatorISA_EEE9SelectKeyESJ_SL_ED2Ev
ukj:_ScriptableObject_CreateInstance_TisRuntimeObject_m1552711675_gshared
tfi:_SecurityException_get_PermissionType_m2237538728
jUj:__ZL24UnresolvedVirtualCall_86P12Il2CppObjectxS0_xPK10MethodInfo
Ydc:__Z29StdTemplateConversionFunctionIbbEbPvR14SafeBinaryRead
iYl:__ZL83Texture_t3661962703_CustomAttributesCacheGenerator_Texture_get_wrapMode_m2187367613P21CustomAttributesCache
zdf:__ZN11UnityEngine7Connect17XRDeviceInfoEvent12XRDeviceInfoD2Ev
JSe:__ZN13ProduceHelperI4TreeLb0EE7ProduceE10MemLabelId18ObjectCreationMode
_Bb:__Z44InitializeTransferFunctionScriptingTraitsForI17RemapPPtrTransferEvR31TransferFunctionScriptingTraits
Wic:__ZNSt3__26vectorI16MessageForwarder13stl_allocatorIS1_L18MemLabelIdentifier7ELi8EEE6resizeEj
BTh:_X509Chain_SelectBestFromCollection_m1068759221
thm:__ZL77CarAIControl_t1541705461_CustomAttributesCacheGenerator_m_CautiousSpeedFactorP21CustomAttributesCache
gPj:_SymmetricTransform_TransformBlock_m851059707
fUc:__Z19UpdateProceduralTplIL27ParticleSystemCurveEvalMode4EEvRK20DualMinMaxPolyCurvesR23ParticleSystemParticlesPfRKN4math7_float4E
clj:_Collection_1_System_Collections_IList_get_IsReadOnly_m2978442176_gshared
U4i:_Enumerator_System_Collections_IEnumerator_Reset_m2261065994_AdjustorThunk
NBh:_ScrollRect_get_verticalNormalizedPosition_m3693218937
tfe:__ZN5physx31ComputeCreatedDeletedPairsListsEPKjS1_jRPNS_17PxcBroadPhasePairERjS5_S4_S5_S5_RNS_14SapPairManagerE
Fub:__ZN18LoadSceneOperation21MustCompleteNextFrameEv
ZDh:_Slider_UpdateDrag_m1102107039
L1f:_MonoMethodInfo_get_method_info_m88651774
SU:__ZNK12AudioManager16GetAudioListenerEv
vlb:__ZN21BillboardBatchManager17BillboardBatchJobEP25DynamicVBOGeometryJobDataj
Pui:_Dictionary_2_System_Collections_Generic_ICollectionU3CSystem_Collections_Generic_KeyValuePairU3CTKeyU2CTValueU3EU3E_CopyTo_m331407443_gshared
kFg:_RuntimeTypeHandle__ctor_m3315980708_AdjustorThunk
jMl:__ZL69IIdentityPermissionFactory_t3268650966_CustomAttributesCacheGeneratorP21CustomAttributesCache
tYj:_Canvas_set_overrideSorting_m4088794420
k9b:__ZNSt3__26vectorI11CameraStackNS_9allocatorIS1_EEE8__appendEj
uyi:_DefaultComparer_Equals_m2585095694_gshared
vke:__ZN5physx2Gu16pcmContactBoxBoxERKNS0_13GeometryUnionES3_RKNS_11PxTransformES6_RKfRNS0_5CacheERNS0_13ContactBufferE
mEj:_X509Chain_get_TrustAnchors_m2434696767
s9k:__Z172RuntimeInvoker_Void_t1185182177_RuntimeObject_CodePointIndexerU26_t4059079874_ByteU2AU26_t57153304_ByteU2AU26_t57153304_CodePointIndexerU26_t4059079874_ByteU2AU26_t57153304PFvvEPK10MethodInfoPvPS4_
MC:__ZN7mecanim9animation12GetHumanPoseERKNS0_18ClipMuscleConstantEPKNS0_10ValueDeltaERNS_5human9HumanPoseE
CE:__ZN22AnimationMixerPlayable17ProcessRootMotionEP35AnimationPlayableEvaluationConstantP32AnimationPlayableEvaluationInputP33AnimationPlayableEvaluationOutput
jwi:_Dictionary_2__ctor_m518943619_gshared
xLb:__Z29Transfer_Blittable_ArrayFieldI19StreamedBinaryWriteILb0EEjEvRT_R9ArrayInfoRK23StaticTransferFieldInfo
Baa:__Z13GetFileSystemv
Gmc:__ZZL23RegisterLightPropertiesR22GenericPropertyBindingEN29Wrapper_LightColorTemperature13SetFloatValueEPvf
Yka:__ZNK5Unity4Type21FindAllDerivedClassesER13dynamic_arrayIPKS0_Lj4EENS0_17TypeFilterOptionsE
Rla:__ZN13RuntimeStaticI15GUIEventManagerLb0EE16StaticInitializeEPv
cQb:__ZL12InvokeMethodI18StreamedBinaryReadILb0EEEvRK29SerializationCommandArgumentsR31RuntimeSerializationCommandInfo
EEe:__ZN15RaycastCallback14processTouchesEPKN5physx12PxRaycastHitEj
uVj:__ZL25UnresolvedVirtualCall_151P12Il2CppObject22Navigation_t3049316579S1_PK10MethodInfo
d2k:_Transform_set_position_m3387557959
WWi:_Version_CompareTo_m3146217210
jSg:_TlsClientCertificate_FindParentCertificate_m3844441401
QRe:__ZN21ImposterRenderTexture14UpdateImposterERK5RectTIfERKN12TreeDatabase9PrototypeE
XZc:__Z32TransferEnumWithNameForceIntSizeI14SafeBinaryReadN15CollisionModule4ModeEEvRT_RT0_PKc17TransferMetaFlags
msi:_Array_InternalArray__ICollection_CopyTo_TisKeyValuePair_2_t71524366_m1056941380_gshared
Pwe:__ZN5physx2Gu5RTree15exportExtraDataERNS_22PxSerializationContextE
jSi:_Type_get_IsClass_m589177581
vSi:_Type_get_IsSystemType_m624798880
v$:__ZN11UnityEngine15CloudWebService14DataDispatcher19OnDataBlockConsumedEv
sBb:__ZN19ShaderPropertySheet9SetMatrixEN9ShaderLab16FastPropertyNameERK10Matrix4x4fNS_8SetFlagsE
Dfb:__Z29GetTextureSizeAllowedMultiple13TextureFormat
dae:__ZNK5physx2Sq10AABBPruner7overlapERKNS0_9ShapeDataERNS0_14PrunerCallbackE
S0h:_Decimal_Subtract_m835601464
EYb:__ZZ23InitPlayerLoopCallbacksvEN52InitializationAsyncUploadTimeSlicedUpdateRegistrator7ForwardEv
bhl:__Z73RuntimeInvoker_Boolean_t97287965_RuntimeObject_IPv6AddressU26_t3285609463PFvvEPK10MethodInfoPvPS4_
GYk:_Quaternion_Internal_ToEulerRad_m1503250752
PUh:_X509ExtensionCollection_get_IsSynchronized_m2607599544
roc:__ZN21IntermediateRenderers3AddEP20IntermediateRenderer
fmk:_il2cpp_array_element_size
STh:_X509CertificateCollection__ctor_m3178797723
p$d:__ZN5physx6shdfnd5ArrayIPvNS0_19ReflectionAllocatorINS_2Gu30LargePersistentContactManifoldEEEE4copyINS0_15InlineAllocatorILj256ES6_EEEEvRKNS1_IS2_T_EE
rsf:__ZN5physx3Pvd17PvdPropertyFilterINS_2Sn17RepXVisitorWriterINS_22PxVehicleWheelsSimDataEEEE27handleExtendedIndexPropertyILj618ES4_NS_6PxVec3EKjNS_18PxUnknownClassInfoEEEvjRKNS_29PxExtendedIndexedPropertyInfoIXT_ET0_T2_T1_EERKT3_
g_i:_List_1_System_Collections_IEnumerable_GetEnumerator_m1824431956_gshared
tWh:_RepeatContext_set_Count_m960350409
Dg:_glCheckFramebufferStatus
CIk:__ZN6il2cpp2os11EventHandle4WaitEv
$Vg:_U3CGetEnumeratorU3Ec__Iterator0_System_Collections_Generic_IEnumeratorU3CTU3E_get_Current_m9057020_gshared
u2:__ZN19CloudServiceHandler20StartEventDispatcherERKN11UnityEngine15CloudWebService18CloudServiceConfigERNS1_23WebRequestRestHeaderMapE
MPf:_GraphicRaycaster__ctor_m646559428
fse:__ZN5physx2Cm12DelegateTaskINS_2Sc5SceneEXadL_ZNS3_19updateCCDSinglePassEPNS_10PxBaseTaskEEEE11runInternalEv
NOg:_CipherSuite_get_CipherAlgorithmType_m137858741
ond:__ZN5physx6string9sprintf_sEPcjPKcz
knh:_ObjRefSurrogate__ctor_m455472707
Jze:__ZThn8_N5physx19TriangleMeshBuilderD1Ev
lig:_BitArrayEnumerator_get_Current_m4220391712
$Sf:__Z37il2cpp_codegen_get_executing_assemblyPK10MethodInfo
hPh:_HttpWebRequest_GetServicePoint_m2640244283
A$k:_Transform_get_parent_m835071599
J6i:_Collection_1_System_Collections_IList_Remove_m3686118478_gshared
tgd:__ZN5physx2Gu16intersectRayAABBERKNS_6PxVec3ES3_S3_S3_RfS4_
Cyb:__ZN9Transform23VirtualRedirectTransferER17RemapPPtrTransfer
HPh:_IPAddress_get_ScopeId_m4237202723
Ov:__ZN4core8hash_mapIN11UnityEngine9Animation14GenericBindingENS2_10BoundIndexENS2_25GenericBindingHashFunctorENS2_30GenericBindingValueArrayUniqueEE4growEi
ZB:__ZN21AnimationClipPlayable7SetTimeEd
OHj:_ExpressionCollection_get_Item_m3510736379
fkj:_Array_InternalArray__get_Item_TisVector3_t3722313464_m2720091419_gshared
oHf:_StandaloneInputModule_get_inputActionsPerSecond_m3946624274
gOi:_UTF8Encoding_InternalGetCharCount_m82458470
P3k:_Vector2__cctor_m2108982652
Bvf:__ZN5physx2Sn21RepXVisitorReaderBaseINS_19PxVehicleEngineDataEE12readPropertyIfEEbRT_
Hll:__Z72RuntimeInvoker_Boolean_t97287965_Vector4_t3319028937_Vector4_t3319028937PFvvEPK10MethodInfoPvPS4_
rmc:__ZZL23RegisterLightPropertiesR22GenericPropertyBindingEN22Wrapper_LightIntensity13GetFloatValueEPv
Nv:__ZN4core8hash_mapIN11UnityEngine9Animation14GenericBindingENS2_10BoundIndexENS2_25GenericBindingHashFunctorENS2_30GenericBindingValueArrayUniqueEE4growEv
Q4g:_InternalEnumerator_1_MoveNext_m2734554195_AdjustorThunk
Ppe:__ZN5physx30setupFinalizeSolverConstraintsERNS_13PxcNpWorkUnitERKNS_2Gu13ContactBufferERKNS_20PxcCorrelationBufferERKNS_11PxTransformESB_bPhRKNS_13PxcSolverBodyESF_RKNS_17PxcSolverBodyDataESI_ffffff
Itk:__ZN14dense_hash_mapI10KeyWrapperIP14Il2CppIUnknownEjN6il2cpp5utils11PointerHashIS1_EENS3_14EqualsComparerINSt3__28equal_toIS2_EEEENS9_9allocatorINS9_4pairIKS3_jEEEEE15set_deleted_keyERSF_
jla:__ZN22BuiltinResourceManager16StaticInitializeEPv
JA:__ZN7mecanim4hand8HandPose8TransferI19StreamedBinaryWriteILb0EEEEvRT_
Zpf:__Z25getPxVehicleWheelDataMMOIPKN5physx18PxVehicleWheelDataE
Bpk:__ZN6il2cpp2gc9AllocatorIP12Il2CppThreadE10deallocateEPvj
NYd:__ZN5physx20NpRigidActorTemplateINS_13PxRigidStaticEE11attachShapeERNS_7PxShapeE
Sjk:__ZN13Il2CppHashMapIPK14Il2CppAssemblyPK22Il2CppMonoAssemblyNameN6il2cpp5utils11PointerHashIS1_EENSt3__28equal_toIS2_EENSA_9allocatorINSA_4pairIK10KeyWrapperIS2_ES5_EEEEEC2EjRKS9_RKSC_
gpe:__ZN5physx26solveVBlockDefaultFrictionEPNS_13PxsSolverCoreEfjjPNS_13PxcSolverBodyEPNS_17PxcSolverBodyDataEjjPNS_25PxcArticulationSolverDescEjPNS_23PxcSolverConstraintDescEjS9_jRNS_6shdfnd5ArrayINS_24PxsConstraintBatchHeaderENSA_19ReflectionAllocatorISC_EEEESG_PNS_2Cm13SpatialVectorEPNS_25PxcThresholdStreamElementEjRj
L8f:_DelegatePInvokeWrapper_AppDomainInitializer_t682969308
sFd:__ZN5physx15NpActorTemplateINS_18PxArticulationLinkEE17resolveReferencesERNS_24PxDeserializationContextE
xx:__ZN14AnimationEvent8TransferI14SafeBinaryReadEEvRT_
I9:__ZN8Remapper6RemoveEi
Sxj:_UnityEvent_1__ctor_m3777630589_gshared
K6d:__ZN5physx19NpRigidBodyTemplateINS_18PxArticulationLinkEE9visualizeERNS_2Cm12RenderOutputEPNS_7NpSceneE
oee:__ZN5physx11writeBack1DERKNS_23PxcSolverConstraintDescERNS_16PxcSolverContextERNS_17PxcSolverBodyDataES6_
hLi:_Encoding_GetBytes_m3148649984
N5e:__ZL36CleanupTextRenderingScriptingClassesv
Vbd:__ZThn4_N16RayRTreeCallbackILi0ELb0EED0Ev
C9b:__ZN15ReflectionProbe17UseRendererResultEP13ProbeRenderer
wFc:__Z34Mesh_CUSTOM_SetArrayForChannelImplP12Il2CppObject30InternalScriptingShaderChannel34InternalScriptingVertexChannelTypeiP11Il2CppArrayi
WYj:_CanvasRenderer_INTERNAL_CALL_EnableRectClipping_m3318097918
yVi:_UInt64_System_IConvertible_ToDecimal_m806594027_AdjustorThunk
x9g:_Enumerator_System_Collections_IEnumerator_get_Current_m361750367_AdjustorThunk
xyj:_UnityEvent_1_GetDelegate_m274387680_gshared
Fah:_Enumerator_get_CurrentValue_m3103267885_gshared
lXi:_List_1__ctor_m3395838871_gshared
f7h:_CultureInfo_get_Parent_m672689885
vik:__ZN15dense_hashtableINSt3__24pairIK10KeyWrapperINS1_IPK12PropertyInfoP11Il2CppClassEEEjEES9_17ReflectionMapHashIS8_EN14dense_hash_mapIS9_jSD_NS9_14EqualsComparerINS0_8equal_toIS8_EEEENS0_9allocatorISB_EEE9SelectKeyESI_SK_ED2Ev
C5d:__ZNK5physx2Sc5Scene20getNbParticleSystemsEv
wyi:_DefaultComparer_GetHashCode_m2651362016_gshared
yCj:_PKCS12__ctor_m1854440921
$fj:_Array_Resize_TisCustomAttributeNamedArgument_t287865710_m885566878_gshared
sBc:__Z37Quaternion_CUSTOM_INTERNAL_CALL_SlerpRK11QuaternionfS1_fRS_
dxi:_DefaultComparer__ctor_m2556554241_gshared
oM:__ZN11UnityEngine9Animation28GenericAnimationBindingCache25RegisterIAnimationBindingEPKN5Unity4TypeEiP17IAnimationBinding
j9d:__ZN5physx2Gu17GetGeomSweepFuncsEv
$ud:__ZN5physx6shdfnd8PoolBaseINS_15PxsArticulationENS0_16AlignedAllocatorILj64ENS0_9AllocatorEEEE17releaseEmptySlabsEv
Pvg:_DirectoryInfo__ctor_m481305441
QUh:_X509ExtensionCollection_get_SyncRoot_m2667861032
i1j:__ZN6il2cpp2vm5Class15GetElementClassEP11Il2CppClass
fja:__ZN10MemoryPoolC2E10MemLabelIdbPKciii
sSd:__ZN5physx22NpParticleBaseTemplateINS_15PxParticleFluidENS_15NpParticleFluidEE23setParticleReadDataFlagENS_22PxParticleReadDataFlag4EnumEb
Beg:_Char_System_IConvertible_ToInt16_m975497224
c8b:__Z40ProcessCameraIndexListIsNodeVisibleInOutRK22SceneCullingParametersPK9SceneNodePK4AABBR9IndexList
bOj:_GUIScrollGroup_SetHorizontal_m291416666
P3a:__ZN16GraphicsSettings8TransferI17RemapPPtrTransferEEvRT_
A9e:__ZN2UI6Canvas13UpdateBatchesEb
xRh:_X509BasicConstraintsExtension_Decode_m120598446
IH:__ZNK23AnimationPlayableOutput11DerivesFromE17ScriptingClassPtr
Deb:__ZN7Texture19SupportsAsyncUploadI19StreamedBinaryWriteILb0EEEEbRT_
tll:__Z49RuntimeInvoker_Boolean_t97287965_Rect_t2360479859PFvvEPK10MethodInfoPvPS4_
Wym:_glGetShaderInfoLog__wrapper
fZl:__ZL101Transform_t3600365921_CustomAttributesCacheGenerator_Transform_INTERNAL_get_localRotation_m1111330565P21CustomAttributesCache
WLd:__ZN5physx2Gu5Debug9visualizeERKNS_13PxBoxGeometryERNS_2Cm12RenderOutputERKNS5_8Matrix34ERKNS_9PxBounds3Eyfj
lfl:__Z51RuntimeInvoker_UInt32_t2560061978_Int16_t2552820387PFvvEPK10MethodInfoPvPS4_
hza:__ZNK13GfxDeviceGLES12GetWireframeEv
oPj:_DelegatePInvokeWrapper_Action_t1264377477
qad:__ZN5physx6shdfnd5ArrayIPKvNS0_19ReflectionAllocatorIS3_EEE6resizeEjRKS3_
Ref:__ZN11UnityEngine7Connect13ConfigHandler12GetListenersERKN4core12basic_stringIcNS2_20StringStorageDefaultIcEEEE
RAa:__ZN9GfxDevice18AllocRenderSurfaceEb
Vkf:__ZN5physx23PxVehicleWheels4SimData11setTireDataEjRKNS_17PxVehicleTireDataE
Vpe:__ZN5physx31setupFinalizeSolverConstraints4EPNS_21PxcSolverContact4DescERNS_18PxcNpThreadContextEPhffRKNS_6shdfnd3aos5Vec4VES9_S9_S9_
D1d:__ZN5physx7NpScene5flushEb
Wgc:__ZN10TagManager32GetSortingLayerUniqueIDFromValueEi
rdf:__ZN11UnityEngine7Connect15DeviceInfoEvent7GFXInfoD2Ev
DIf:_AspectRatioFitter_get_rectTransform_m2996235303
m8:__ZL27CleanupCoreScriptingClassesv
I7h:_DateTimeFormatInfo_get_IsReadOnly_m1173781646
d8h:_NumberFormatInfo_get_PercentPositivePattern_m1800841633
rlf:__ZN5physx22PxVehicleWheelsSimData11enableWheelEj
h6c:__Z19UpdateSingleRow2TplIL27ParticleSystemCurveEvalMode2ELS0_1EEvfRK11MinMaxCurveS3_RK23ParticleSystemParticlesPfbiii
Zad:__ZN5physx2Gu13GeometryUnion3setERKNS_10PxGeometryE
Oah:_Enumerator_VerifyCurrent_m3071620407_AdjustorThunk
ild:__ZThn8_N5physx3Cct17CapsuleController15getPxControllerEv
C8g:_Comparer_1_System_Collections_IComparer_Compare_m1313384821_gshared
Ywh:_LayoutRebuilder_GetHashCode_m1943075341
wkf:__ZN5physx22PxVehicleWheelsSimData12disableWheelEj
wYf:_GenericTypeParameterBuilder_MakeGenericType_m3048165991
BBc:__Z26AnimationCurve_CUSTOM_InitP12Il2CppObjectP11Il2CppArray
KCm:_glUniform1uiv__wrapper
Djk:__ZN6il2cpp2vm10Reflection7IsEventEP12Il2CppObject
PLk:__ZNSt3__26__treeINS_12__value_typeIPFvvEPK10MethodInfoEENS_19__map_value_compareIS3_S7_NS_4lessIS3_EELb1EEENS_9allocatorIS7_EEE16__insert_node_atEPNS_16__tree_node_baseIPvEERSI_SI_
$6:__ZN17PersistentManager26GetStreamNameSpaceInternalEi
OO:__ZN4FMOD6System11createSoundEPKcjP22FMOD_CREATESOUNDEXINFOPPNS_5SoundE
Yo:FUNCTION_TABLE_iiifiiii
U4g:_InternalEnumerator_1_System_Collections_IEnumerator_Reset_m1451164462_AdjustorThunk
mMe:__ZN13SpeedTreeWind20AdvanceWithoutUpdateEd
mYh:_DateTime_System_IConvertible_ToDecimal_m1044850612
dKi:_List_1_IndexOf_m2206067159_gshared
lTh:_X509Store_get_Factory_m3282910266
XFe:__ZThn128_N5physx7profile8ZoneImplINS_28PxProfileNameProviderForwardEED1Ev
Kja:__ZN9ShaderLab19CommonPropertyNames13StaticCleanupEPv
a9:__Z31scripting_method_get_returntype18ScriptingMethodPtr
zae:__ZN5physx2Sq17AABBTreeUpdateMap10invalidateEjjRNS0_8AABBTreeE
$Tj:__ZL24UnresolvedVirtualCall_76P12Il2CppObjectPK10MethodInfo
Ygb:__ZN15SerializeTraitsI12LightmapDataE8TransferI24GenerateTypeTreeTransferEEvRS0_RT_
Tdi:_SecurityElement_AddAttribute_m311510562
ipe:__ZN5physx28solveParallelDefaultFrictionERNS_18PxsDynamicsContextEjjPNS_13PxcSolverBodyEPNS_17PxcSolverBodyDataEjjPNS_25PxcArticulationSolverDescEjPNS_23PxcSolverConstraintDescEjS9_jPiSA_SA_SA_SA_SA_PNS_25PxcThresholdStreamElementEjSA_PNS_2Cm13SpatialVectorEPKPNS_11PxsBodyCoreERNSD_10BitMapBaseINS_6shdfnd9AllocatorEEEPKPNS_15PxsArticulationEjPViRNSL_5ArrayINS_24PxsConstraintBatchHeaderENSL_19ReflectionAllocatorISW_EEEES10_RNSV_IjNSX_IjEEEES13_PPNS_12PxsRigidBodyEj
azm:_glStencilOpSeparate__wrapper
oTe:__ZN15TerrainCollider23VirtualRedirectTransferER24GenerateTypeTreeTransfer
Bsc:__ZN4Mesh5SetUvEiPKfjj
Zhb:__ZN7Texture13SetAnisoLimitENS_20AnisotropicFilteringE
SW:__ZN11AudioModule16SetListenerPauseEb
Cmm:_LandingGear_Start_m773805534
vbg:_Attribute_IsDefined_m4069052474
xi:_emscripten_glCompressedTexSubImage2D
BNa:__ZN13GfxDeviceGLES22MemoryBarrierImmediateEyN2gl17MemoryBarrierTypeE
Ktf:__ZN5physx18RepXPropertyFilterINS_2Sn17RepXVisitorReaderINS_23PxVehicleDriveSimData4WEEEEclILj664ENS_21PxVehicleDriveSimDataERKNS_18PxVehicleGearsDataES8_EEvRKNS_14PxPropertyInfoIXT_ET0_T1_T2_EEj
ym:_abort
pvh:_U3CCaretBlinkU3Ec__Iterator0_Dispose_m860898205
hLa:__ZN6prcoreL26RemapGenericFloatToIntegerI18TexFormatARGBFloat17TexFormatARGB8888EEvPKNS_9InnerInfoE
H3i:_List_1_set_Capacity_m1977188119_gshared
ICk:__ZN6il2cpp6icalls8mscorlib6System10Reflection9MonoField16GetValueInternalEP21Il2CppReflectionFieldP12Il2CppObject
Awc:__Z46GetShaderModelNumericValueFromRequirementsMask18ShaderRequirements
Enf:__ZNK5physx26PxSerializerDefaultAdapterINS_16PxVehicleDrive4WEE15exportExtraDataERNS_6PxBaseERNS_22PxSerializationContextE
wXe:_cff_ps_has_glyph_names
Oze:__ZN5physx15writeWordBufferEPKtjbRNS_14PxOutputStreamE
Owi:_Dictionary_2_Resize_m3287623642_gshared
fFk:_GC_write
aBl:__ZL69RuntimeArray_CustomAttributesCacheGenerator_Array_SetValue_m394135409P21CustomAttributesCache
qJg:_RC2_Create_m2516417038
tPf:_Graphic_OnPopulateMesh_m767318148
OIg:_HMACSHA512_set_ProduceLegacyHmacValues_m3961135292
agh:_Dictionary_2_Remove_m4193450060_gshared
q$c:__ZN10SizeModule8TransferI17RemapPPtrTransferEEvRT_
hJh:_ASN1_get_Tag_m1032367219
slh:_ConstructionCallDictionary__ctor_m2541174073
vjh:_RemotingServices_IsTransparentProxy_m1535738947
Yej:_Array_InternalArray__set_Item_TisMark_t3471605523_m1299772331_gshared
tJc:__Z44Register_UnityEngine_GUIStyle_SetDefaultFontv
Xzk:__GLOBAL__sub_I_ThreadImpl_cpp
XLb:__Z18Transfer_BlittableI18StreamedBinaryReadILb1EELb1EiEvRK29SerializationCommandArgumentsR31RuntimeSerializationCommandInfo
jJ:__ZN9BlobWrite8TransferI22OffsetPtrArrayTransferIKN4math7_float3EEEEvRT_PKc17TransferMetaFlags
lob:__ZN16MeshSkinningData14GetBoneWeightsEi
O9k:__Z173RuntimeInvoker_Int32_t2950945753_RuntimeObject_Int32_t2950945753_Int32_t2950945753_Int32_t2950945753_RuntimeObject_Int32_t2950945753_SByte_t1669577662_ContextU26_t3937453398PFvvEPK10MethodInfoPvPS4_
fZi:_List_1__ctor_m2576108087_gshared
rik:__ZN15dense_hashtableINSt3__24pairIK10KeyWrapperINS1_IPK12PropertyInfoP11Il2CppClassEEEjEES9_17ReflectionMapHashIS8_EN14dense_hash_mapIS9_jSD_NS9_14EqualsComparerINS0_8equal_toIS8_EEEENS0_9allocatorISB_EEE9SelectKeyESI_SK_E12maybe_shrinkEv
Osd:__ZN5physx2Sc7BodySim37checkSleepReadinessBesidesWakeCounterEv
wMb:__Z18Transfer_BlittableI18StreamedBinaryReadILb1EELb1EsEvRK29SerializationCommandArgumentsR31RuntimeSerializationCommandInfo
yMi:_StringBuilder_Remove_m940064945
Ikf:__ZN5physx22PxVehicleWheelsSimData21setTireLoadFilterDataERKNS_27PxVehicleTireLoadFilterDataE
kHg:_DESCryptoServiceProvider_GenerateIV_m683687014
wCi:_GenericComparer_1__ctor_m1900257738_gshared
b6c:__Z19UpdateSingleRow2TplIL27ParticleSystemCurveEvalMode1ELS0_2EEvfRK11MinMaxCurveS3_RK23ParticleSystemParticlesPfbiii
bib:__ZL21SetAnisoLimitEnumImplN7Texture20AnisotropicFilteringEb
cdf:__ZN22BaseUnityConnectClient17OnEnterStateReadyEv
AVd:__ZNK5physx22NpParticleBaseTemplateINS_16PxParticleSystemENS_16NpParticleSystemEE15getMaxParticlesEv
sGd:__ZN5physx2Sc16ArticulationCore14setWakeCounterEf
N_d:__ZN5physx2Sc10NPhaseCore24createTriggerInteractionERNS0_8ShapeSimES3_NS_7PxFlagsINS_10PxPairFlag4EnumEtEE
PEh:_Text_get_fontSize_m1677872538
FHg:_DSACryptoServiceProvider_get_PublicOnly_m3933928860
BSl:__ZL63X509ChainStatusFlags_t1026973125_CustomAttributesCacheGeneratorP21CustomAttributesCache
_1a:__ZN14GrowableBufferD2Ev
HAc:__Z29Input_CUSTOM_GetMouseButtonUpi
Ycd:__ZN5physx2Gu12selectNormalEhff
ubk:__ZN6il2cpp6icalls8mscorlib6System8MonoType16InternalGetEventEP20Il2CppReflectionTypeP12Il2CppStringi
tLj:_UriScheme_t722425697_marshal_pinvoke_back
oZe:_UNITY_tt_face_load_maxp
XAc:__Z46Input_CUSTOM_INTERNAL_set_compositionCursorPosRK13Vector2fIcall
SB:__ZN7mecanim5human12FullBodyMaskEv
aUd:__ZN5physx3Scb14ParticleSystem16releaseParticlesEjRKNS_16PxStrideIteratorIKjEE
xfm:__ZL62Shadow_t773074319_CustomAttributesCacheGenerator_m_EffectColorP21CustomAttributesCache
OHh:_BigInteger_ToString_m3475000413
Sob:__ZN19ShaderPropertySheet11ComputeHashEv
H5j:__ZN30dense_hashtable_const_iteratorI10KeyWrapperIPK19Il2CppGenericMethodES4_N6il2cpp8metadata23Il2CppGenericMethodHashEN14dense_hash_setIS4_S7_NS4_14EqualsComparerINS6_26Il2CppGenericMethodCompareEEENSt3__29allocatorIS4_EEE8IdentityESB_SE_EppEv
M4d:__ZN5physx2Sc5Scene21processLostTouchPairsEv
sNb:__ZN4PPtrI6ObjectE8TransferI18StreamedBinaryReadILb1EEEEvRT_
R0:__ZN11UnityEngine15CloudWebService20WebRequestRestClient6IsDoneEv
hJj:_Group__ctor_m2980794822
Tvj:_CachedInvokableCall_1_Invoke_m502907382_gshared
uj:_llvm_fabs_f32
u0:__ZN11UnityEngine15CloudWebService16SessionContainer16GetJsonDataBlockEjRKN4core12basic_stringIcNS2_20StringStorageDefaultIcEEEERS6_PjSA_
zDe:__ZThn28_N14PhysicsManager7onSleepEPPN5physx7PxActorEj
dJh:_ASN1_Decode_m1695284166
Mx:__ZN7mecanim9animation18ClipMuscleConstant8TransferI14SafeBinaryReadEEvRT_
okk:__ZN15dense_hashtableINSt3__24pairIK10KeyWrapperIPK14Il2CppAssemblyEPK22Il2CppMonoAssemblyNameEES6_N6il2cpp5utils11PointerHashIS4_EEN14dense_hash_mapIS6_SA_SF_NS6_14EqualsComparerINS0_8equal_toIS5_EEEENS0_9allocatorISB_EEE9SelectKeyESK_SM_E13set_empty_keyERKSB_
bje:__ZN5physx22PxcContactConvexConvexERKNS_2Gu13GeometryUnionES3_RKNS_11PxTransformES6_RKfRNS_10PxcNpCacheERNS0_13ContactBufferE
x4h:_Enum_ToString_m3248653065
ocd:__ZNK5physx2Gu11ConvexHullV12HillClimbingERKNS_6shdfnd3aos5Vec3VE
G_d:__ZNK5physx2Sc17ParticleSystemSim7getCoreEv
Pkm:_VirtualInput_get_virtualMousePosition_m1530934210
p7:__ZN14SafeBinaryReadD2Ev
jni:_SetPropertyUtility_SetStruct_TisFillMethod_t1167457570_m4164776730_gshared
QTd:__ZN5physx2Sc18ParticleSystemCore10setDampingEf
gic:__Z13RegisterClassI7TextureEvv
rHi:_Enumerator_MoveNext_m3859993671_gshared
MNb:__ZN8Gradient8TransferI18StreamedBinaryReadILb1EEEEvRT_
yLg:_SequentialSearchPrimeGeneratorBase_IsPrimeAcceptable_m1127740833
iVh:_Capture__ctor_m3103117740
$jb:__ZN4core8hash_mapINS_12basic_stringIcNS_20StringStorageDefaultIcEEEE13dynamic_arrayI4PPtrI6SpriteELj4EENS_4hashIS4_EENSt3__28equal_toIS4_EEEixERKS4_
M8k:__Z113RuntimeInvoker_Void_t1185182177_RuntimeObject_Int64_t3736567304_RuntimeObject_Int64_t3736567304_Int64_t3736567304PFvvEPK10MethodInfoPvPS4_
pWg:_U3CGetEnumeratorU3Ec__Iterator0_Reset_m1192421843_gshared
khm:__ZL85AeroplanePropellerAnimator_t2205181023_CustomAttributesCacheGenerator_m_PropellorBlurP21CustomAttributesCache
ypd:__ZN5physx2Sc10NPhaseCore16deleteFilterPairEPNS0_10FilterPairE
U1c:__ZN14ParticleSystem15ThreadedCleanupEv
m1j:__ZN6il2cpp2vmL17SetupEventsLockedEP11Il2CppClassRKNS_2os12FastAutoLockE
etk:__ZN6il2cpp6icalls8mscorlib6System4Type15MakeGenericTypeEP20Il2CppReflectionTypeP11Il2CppArray
DHe:_PxCreateBasePhysics
Wj:_SDL_PauseAudio
$jg:_Hashtable_Clone_m3078962909
Cmk:_il2cpp_class_from_type
Lck:__ZN6il2cpp2os4File11GetStdErrorEv
Cpf:__ZN5physx23SetMFrictionVsSlipGraphEPNS_17PxVehicleTireDataEjjf
rPl:__ZL77Convert_t2465617642_CustomAttributesCacheGenerator_Convert_ToSByte_m516918950P21CustomAttributesCache
ytd:__ZN5physx2Sc5Scene28addActiveBreakableConstraintEPNS0_13ConstraintSimE
Jja:__ZN9ShaderLab19CommonPropertyNames16StaticInitializeEPv
wId:__ZN5physx6shdfnd8PoolBaseINS_16NpParticleSystemENS0_19ReflectionAllocatorIS2_EEE15disposeElementsEv
Kwb:__ZN13MemoryManager31DisallowAllocationsOnThisThreadEv
oL:__ZN7mecanim9animation18CreateAvatarOutputEPKNS0_14AvatarConstantEbbRNS_6memory9AllocatorE
rGe:__ZN5physx7profile11EventBufferINS_24PxDefaultContextProviderENS_6shdfnd6MutexTINS0_26WrapperReflectionAllocatorIhEEEENS0_14ScopedLockImplIS7_EENS_24PxProfileNullEventFilterEE10eventValueEtyx
I9f:_Array_GetLongLength_m561139708
_Wc:__Z14UpdateSpeedTplIL27ParticleSystemCurveEvalMode1EEvRK11MinMaxCurveR23ParticleSystemParticlesjj
FDh:_Slider_set_maxValue_m2251404465
oEh:_SpriteState_get_pressedSprite_m3868967445_AdjustorThunk
KU:__ZN11AudioSource23VirtualRedirectTransferER24GenerateTypeTreeTransfer
Frc:__ZN7Texture11SetWrapModeE15TextureWrapMode
wkb:__ZN14Texture2DArray23VirtualRedirectTransferER14SafeBinaryRead
JBg:_MissingMemberException__ctor_m1220732369
k3b:__ZNK6Camera21CalculateCanDoShadowsEv
l3d:__ZNK5physx2Sc5Scene17getBroadPhaseCapsERNS_16PxBroadPhaseCapsE
Sol:__Z52RuntimeInvoker_Void_t1185182177_Int32U26_t1369213839PFvvEPK10MethodInfoPvPS4_
kFd:__ZN5physx9NpFactory14onActorReleaseEPNS_7PxActorE
lNk:_Application_InvokeOnBeforeRender_m2875673833
Jzk:__ZN6il2cpp2os6Thread12SetStackSizeEj
Avd:__ZN5physx2Sc5Actor15onElementAttachERNS0_7ElementE
pyh:_MaskableGraphic_RecalculateMasking_m183336762
vjj:_Array_InternalArray__get_Item_TisRuntimeObject_m3347010206_gshared
L_f:_TypeBuilder_IsSubclassOf_m3458909121
yrc:__ZNK8Renderer16IsVisibleInSceneEv
VTf:_Default_check_arguments_with_score_m3467814020
P6:__Z13VFormatBufferPciPKcz
BTd:__ZN5physx2Sc18ParticleSystemCore23setSimulationFilterDataERKNS_12PxFilterDataE
SOb:__Z18Transfer_BlittableI18StreamedBinaryReadILb0EELb1EhEvRK29SerializationCommandArgumentsR31RuntimeSerializationCommandInfo
t6f:_X509Certificate__cctor_m198658613
Gbl:__Z43RuntimeInvoker_MethodAttributes_t2366443849PFvvEPK10MethodInfoPvPS4_
DXk:_PlayableHandle_Equals_m1666612586_AdjustorThunk
bkm:_VirtualButton_set_name_m2909511825
lLa:__ZN6prcoreL27StretchGenericFloatBilinearI15TexFormatRFloatEEvPKNS_9InnerInfoE
t9d:__ZN5physx6shdfnd8internal8HashBaseINS0_4PairIKNS_2Sq13PrunerPayloadEjEES5_NS0_4HashIS5_EENS1_11HashMapBaseIS5_jS9_NS0_9AllocatorEE6GetKeyESB_Lb1EE15reserveInternalEj
iSl:__ZL139ServicePointManager_t170559685_CustomAttributesCacheGenerator_ServicePointManager_t170559685____CheckCertificateRevocationList_PropertyInfoP21CustomAttributesCache
AHl:__ZL53IsVolatile_t2097058663_CustomAttributesCacheGeneratorP21CustomAttributesCache
J4h:_Enum_ToObject_m1628250250
FE:__Z24ProcessAnimationMixBeginP35AnimationPlayableEvaluationConstantP32AnimationPlayableEvaluationInputP33AnimationPlayableEvaluationOutput
Q1i:_List_1_set_Item_m2057272351_gshared
Fjf:__ZN13WheelColliderD2Ev
oIa:__Z14PadImageBorderR14ImageReferenceii
Tgk:__ZN15dense_hashtableINSt3__24pairIK10KeyWrapperINS1_IPK10MethodInfoP11Il2CppClassEEEjEES9_17ReflectionMapHashIS8_EN14dense_hash_mapIS9_jSD_NS9_14EqualsComparerINS0_8equal_toIS8_EEEENS0_9allocatorISB_EEE9SelectKeyESI_SK_E4findERSA_
R8j:__ZN6il2cpp2vm13MetadataCache28GetFieldDefaultValueForFieldEPK9FieldInfo
Bpi:_Array_IndexOf_TisUIVertex_t4057497605_m3336763564_gshared
W8i:__ZN21InterfaceFuncInvoker1I22OrderBlock_t1585977831iE6InvokeEjP11Il2CppClassP12Il2CppObjecti
hF:__ZN27AnimationLayerMixerPlayableD2Ev
WKf:_ColorBlock_Equals_m518833916_AdjustorThunk
ede:__ZN5physx2Gu22gjkRelativePenetrationINS0_9TriangleVENS0_8CapsuleVEEEjRKT_RKT0_RKNS_6shdfnd3aos15PsMatTransformVERKNSB_6FloatVERNSB_5Vec3VESJ_SJ_RSF_PhSL_Rh
fyl:__Z102RuntimeInvoker_RuntimeObject_RaycastHit_t1056001966_RaycastHit_t1056001966_RuntimeObject_RuntimeObjectPFvvEPK10MethodInfoPvPS4_
gBe:__ZN9Rigidbody14SetIsKinematicEb
aTj:__ZL24UnresolvedVirtualCall_23P12Il2CppObjectS0_PK10MethodInfo
n$l:__ZL66PersistentCall_t3407714124_CustomAttributesCacheGenerator_m_TargetP21CustomAttributesCache
VQ:__ZN12AudioManager39HandlePendingAudioConfigurationCallbackEv
Uk:_emscripten_glIsFramebuffer
FLh:_RSAManaged_EncryptValue_m799827583
vba:__ZN12_GLOBAL__N_16qAtan2Eff
CKe:__Z13RegisterClassI9RigidbodyEvv
a6k:__Z61RuntimeInvoker_UInt32_t2560061978_RuntimeObject_RuntimeObjectPFvvEPK10MethodInfoPvPS4_
VPi:_ThreadAbortException__ctor_m1955533141
Yk:_JS_Sound_SetLoopPoints
vma:__ZN15dense_hashtableINSt3__24pairIKyP17VertexDeclarationEEy14GfxGenericHashIyEN14GfxDoubleCacheIyS4_S7_NS0_8equal_toIyEEN31GfxDoubleCacheConcurrencyPolicy11LocklessGetE42GfxDoubleCacheDefaultEmptyDeletedGeneratorIyEE9SelectKeyESA_13stl_allocatorIS5_L18MemLabelIdentifier24ELi16EEE14squash_deletedEv
YV:__ZN12AudioManager17ShouldSourcePauseEb
coc:__ZN12BaseRenderer20SetLightmapSTNoDirtyERK8Vector4f12LightmapType
GJk:__ZN6il2cpp2vm26MetadataAllocGenericMethodEv
smi:_Array_InternalArray__ICollection_Remove_TisUInt16_t2177724958_m1766181761_gshared
mRa:__ZN19ConstantBuffersGLES12RecordRenderEv
X8d:__ZN5physx13ActorAABBTaskD2Ev
zyj:_UnityEvent_1__ctor_m3675246889_gshared
_Mc:__ZN9JSONWrite8TransferI10RectOffsetEEvRT_PKc17TransferMetaFlags
VHa:__ZN4crnd12symbol_codec11decode_bitsEj
Frl:__Z59RuntimeInvoker_Boolean_t97287965_KeyValuePair_2_t3842366416PFvvEPK10MethodInfoPvPS4_
rNg:_EncryptedPrivateKeyInfo__ctor_m3415744930
qVe:_cf2_doFlex
RQh:_AsnEncodedData__ctor_m3792312694
zPj:_AesManaged_GenerateIV_m1368817386
Onc:__ZN21FixedBehaviourManagerD0Ev
o7a:__ZN10Matrix3x4f8TransferI24GenerateTypeTreeTransferEEvRT_
lic:__Z13RegisterClassI15QualitySettingsEvv
_vf:__Z35setPxVehicleDriveSimData_EngineDataPN5physx21PxVehicleDriveSimDataERKNS_19PxVehicleEngineDataE
ZQ:__ZN4FMOD6System12createReverbEPPNS_6ReverbE
LCk:__ZN6il2cpp2vm6String21InitializeEmptyStringEP11Il2CppClass
_E:__ZN7mecanim19ValueArrayBlendNodeILb1EEEvRKNS_10ValueArrayERKNS_14ValueArrayMaskERS1_RS4_RNS_16ValueArrayWeightEf
mGg:_CodeAccessPermission_GetHashCode_m880096813
Mwb:__Z16MarkDependenciesR27GarbageCollectorThreadStatej
bTf:_AssemblyConfigurationAttribute__ctor_m3236176989
jAj:_ObjectPool_1_get_countInactive_m526975942_gshared
Coh:_RemotingServices_DisposeIdentity_m2605848806
Hba:__ZNK9Transform11GetPositionEv
bId:__ZN5physx12NpConstraint8requiresERNS_23PxProcessPxBaseCallbackE
c8c:__ZNSt3__211__sift_downIRNS_4lessI23TransformAccessReadOnlyEEPS2_EEvT0_S6_T_NS_15iterator_traitsIS6_E15difference_typeES6_
mOk:_Bounds_set_size_m4127623202
spg:_GuidParser_Reset_m2640004655
$4a:__ZN23SharedMeshRenderingData18UnloadVertexStreamEi
imd:__ZN5physx3Cct13HandleManager3AddEPv
qoc:__ZN31CanvasBatchIntermediateRenderer11AddSubBatchERK16DrawBuffersRangePK19ShaderPropertySheet
Mmc:__ZN19RenderEventsContextC2Ei
B_:__Z6simd4fRKf
OYl:__ZL67SceneManager_t2787271929_CustomAttributesCacheGenerator_sceneLoadedP21CustomAttributesCache
P7h:_GregorianCalendar_GetEra_m2369958449
Al:_emscripten_glEnable
r$g:_InternalEnumerator_1_System_Collections_IEnumerator_get_Current_m2982675020_gshared
m7c:__ZNK14ParticleSystem16GetParticleCountEv
U$a:__ZN10TagManager23VirtualRedirectTransferER14SafeBinaryRead
icm:__ZL51RawImage_t3182918964_CustomAttributesCacheGeneratorP21CustomAttributesCache
mue:__ZNK5physx2Sc15ClothFabricCore9getNbSetsEv
CFf:_PhysicsRaycaster_Raycast_m776323695
dlj:_Collection_1_System_Collections_IList_get_Item_m2931804586_gshared
moh:_ObjRef_get_EnvoyInfo_m1782007847
qZi:_List_1_System_Collections_ICollection_get_IsSynchronized_m3331050698_gshared
V5b:__Z15InitLightMeshesv
u0f:_MonoCMethod_ToString_m3992577062
V$j:_RaycastHit_get_collider_m1464180279
FQe:__ZN20QuadTreeNodeRenderer5SetupEP15TerrainRendererP12QuadTreeNode20ReflectionProbeUsageP9Transform
s2d:__ZNK5physx7NpScene26getNbContactDataBlocksUsedEv
xo:FUNCTION_TABLE_iifiii
Uhd:__ZN5physx2Gu29computeCapsule_HeightFieldMTDERKNS_21PxHeightFieldGeometryERKNS_11PxTransformERNS0_8CapsuleVEffbjRNS_10PxSweepHitE
I0j:__ZNK15dense_hashtableINSt3__24pairIK10KeyWrapperIPK22Il2CppGenericParameterEP11Il2CppClassEES6_N6il2cpp5utils11PointerHashIS4_EEN14dense_hash_mapIS6_S9_SE_NS6_14EqualsComparerINS0_8equal_toIS5_EEEENS0_9allocatorISA_EEE9SelectKeyESJ_SL_E10test_emptyEj
RZd:__ZNK5physx2Cm12DelegateTaskINS_7NpSceneEXadL_ZNS2_14executeCollideEPNS_10PxBaseTaskEEEE7getNameEv
Fve:__ZN5physx2Gu11HeightField15exportExtraDataERNS_22PxSerializationContextE
B7a:__Z13TransferArrayILi4Ei19StreamedBinaryWriteILb0EEEjRAT__T0_PKcRT1_
rrj:_ReadOnlyCollection_1_System_Collections_IList_Contains_m2904046095_gshared
Uhb:__ZN15QualitySettings8TransferI19StreamedBinaryWriteILb0EEEEvRT_
i5l:__ZL56GUISkin_t1244372282_CustomAttributesCacheGenerator_m_boxP21CustomAttributesCache
yxh:_LayoutUtility_U3CGetFlexibleHeightU3Em__7_m2991026842
iKb:__Z18Transfer_BlittableI19StreamedBinaryWriteILb0EELb1E8Vector2fEvRK29SerializationCommandArgumentsR31RuntimeSerializationCommandInfo
UUe:_cf2_arrstack_init
Ejj:_Array_InternalArray__get_Item_TisResourceCacheItem_t51292791_m1306056717_gshared
Jnl:__Z157RuntimeInvoker_Void_t1185182177_RuntimeObject_RuntimeObject_RuntimeObject_RuntimeObject_RuntimeObject_RuntimeObject_RuntimeObject_RuntimeObject_RuntimeObjectPFvvEPK10MethodInfoPvPS4_
PDf:_EventSystem_get_pixelDragThreshold_m1103650852
cfk:__ZN15dense_hashtableINSt3__24pairIK10KeyWrapperINS1_IPK14Il2CppAssemblyP11Il2CppClassEEEjEES9_17ReflectionMapHashIS8_EN14dense_hash_mapIS9_jSD_NS9_14EqualsComparerINS0_8equal_toIS8_EEEENS0_9allocatorISB_EEE9SelectKeyESI_SK_E15insert_noresizeERKSB_
F4:__Z15CleanLogHandler7LogTypePKcz
lEg:_NumberFormatter_NumberToString_m2481532188
Kva:__ZN9ShaderLab19SerializedSubShader8TransferI19StreamedBinaryWriteILb0EEEEvRT_
xKd:__ZN5physx10NpMaterialC2ERKNS_2Sc12MaterialCoreE
QBh:_ScrollRect_InternalGetBounds_m599803667
Prf:__Z31setPxVehicleNoDrive_BrakeTorquePN5physx16PxVehicleNoDriveEjf
tQ:__ZN14AudioBehaviour15ThreadedCleanupEv
Yle:__ZN5physx9PxTaskMgr10resolveRowEjb
iSb:__ZN6Camera17RemoveImageFilterERK11ImageFilter
pxa:__ZNSt3__218__insertion_sort_3IR25ValueParameterArraySorterPN20GpuProgramParameters14ValueParameterEEEvT0_S6_T_
HVl:__ZL90Display_t1387065949_CustomAttributesCacheGenerator_Display_GetRenderingExtImpl_m2069813991P21CustomAttributesCache
jUc:__ZN14EmissionModule15AccumulateBurstER27ParticleSystemEmissionStateRK11MinMaxCurvef
ejg:_Comparer__cctor_m3311686689
uyf:__ZN5physx18RepXPropertyFilterINS_2Sn17RepXVisitorWriterINS_19PxVehicleClutchDataEEEEclILj561ES3_jjEEvRKNS_14PxPropertyInfoIXT_ET0_T1_T2_EEj
saf:__ZZN2UI11CanvasGroup15InitializeClassEvEN38FunctorImpl_117kTransformParentChanged4CallEPviR11MessageData
mIf:_UIBehaviour_OnDidApplyAnimationProperties_m2143584361
zUl:__ZL102SystemInfo_t3561985952_CustomAttributesCacheGenerator_SystemInfo_get_operatingSystemFamily_m4256884728P21CustomAttributesCache
S1c:__ZN11ShapeModule17MainThreadCleanupEv
Tqf:__Z35setPxVehicleWheelsSimData_WheelDataPN5physx22PxVehicleWheelsSimDataEjNS_18PxVehicleWheelDataE
A1c:__ZN9SubModule5ResetEv
FAe:__ZN8Collider12GetIsTriggerEv
RRi:_TimeZone__ctor_m1831364098
Wik:__ZNK10KeyWrapperINSt3__24pairIPK9EventInfoP11Il2CppClassEEE14EqualsComparerINS0_8equal_toIS7_EEEclERKS8_SE_
V_g:_InternalEnumerator_1_get_Current_m3500427238_AdjustorThunk
gaf:__ZN2UI26InitializeDeviceForOverlayEi
Ite:__ZNK5physx13NpClothFabric13getRestvaluesEPfj
Kia:__Z27LogRepeatingStringWithFlagsRKN4core12basic_stringIcNS_20StringStorageDefaultIcEEEE15LogMessageFlagsi
jfd:__ZN5physx2Gu16_gjkLocalRayCastINS0_9TriangleVENS0_11ConvexHullVEEEbRT_RT0_RKNS_6shdfnd3aos6FloatVERKNS9_5Vec3VESF_RSA_RSD_SH_f
K4h:_Enum_IsDefined_m1442314461
uPi:_Thread__cctor_m817723615
rRj:_AudioExtensionManager_RegisterBuiltinDefinitions_m2742744104
rC:__ZN17AnimationPlayable28ComputeNeedsBindingRebuildedEv
yB:__ZN17AnimationPlayable23RequestAllocateBindingsEv
Jtd:__ZN5physx6shdfnd8PoolBaseINS_2Cm5BlockIPvLj32EEENS0_19ReflectionAllocatorIS5_EEE17releaseEmptySlabsEv
KSk:_RenderPipelineManager_set_currentPipeline_m3492857006
QRh:_PublicKey_DecodeDSA_m3490622362
jfe:__ZN5physx23PxsBroadPhaseContextSap21batchUpdateFewUpdatesEjRPNS_17PxcBroadPhasePairERjS4_
eki:_DecoderReplacementFallbackBuffer_Fallback_m1261056214
zid:__ZN5physx3Cct17getSceneTimestampEPKNS0_30InternalCBData_FindTouchedGeomE
c$b:__ZNSt3__227__insertion_sort_incompleteIRPFbP10GUIElementS2_EPS2_EEbT0_S7_T_
ETf:_Binder_get_DefaultBinder_m950908649
ACc:__Z49Register_UnityEngine_Resources_GetBuiltinResourcev
fwg:_StreamReader__ctor_m1616861391
wXj:_TextGenerationSettings_CompareColors_m3051734236_AdjustorThunk
Jff:__ZN18UnityConnectClient33OnPlayerSessionStateChangedStaticEPS_jyy
vN:__ZN25RuntimeAnimatorController12CleanupClassEv
RPe:__ZN14TerrainManager27UnloadTerrainsFromGfxDeviceEv
eml:__Z109RuntimeInvoker_Boolean_t97287965_Vector3_t3722313464_Vector3_t3722313464_Single_t1397266774_Int32_t2950945753PFvvEPK10MethodInfoPvPS4_
nai:_RSA_ToXmlString_m2922661427
ime:__ZN5physx2Sc17ParticleSystemSim20scheduleCollisionCpuERNS0_16InteractionSceneERKNS_6shdfnd5ArrayIPS1_NS4_19ReflectionAllocatorIS6_EEEERNS_10PxBaseTaskE
B1:__ZNK11UnityEngine15CloudWebService23WebRequestUploadHandler11GetProgressEv
UBc:__Z25PlayerPrefs_CUSTOM_GetIntP12Il2CppStringi
VEa:__ZN7ApiGLES4LoadE16GfxDeviceLevelGL
jhb:__ZN18StreamedBinaryReadILb0EE21TransferSTLStyleArrayI13dynamic_arrayI31EnlightenSystemAtlasInformationLj8EEEEvRT_17TransferMetaFlags
ILg:_ASN1_Add_m2431139999
GJd:__ZN5physx9NpPhysics15createAggregateEjb
c5l:__ZL61GUIContent_t3050628031_CustomAttributesCacheGenerator_m_ImageP21CustomAttributesCache
PHa:__ZN4crnd12crn_unpacker22decode_color_endpointsEv
wwk:__ZN15dense_hashtableI10KeyWrapperIP18Il2CppGenericClassES3_N6il2cpp8metadata22Il2CppGenericClassHashEN14dense_hash_setIS3_S6_NS3_14EqualsComparerINS5_25Il2CppGenericClassCompareEEENSt3__29allocatorIS3_EEE8IdentityESA_SD_E15insert_noresizeERKS3_
dlc:__ZZL31RegisterOtherRendererPropertiesR22GenericPropertyBindingEN30Wrapper_RendererReceiveShadows13GetFloatValueEPv
BVj:__ZL25UnresolvedVirtualCall_158P12Il2CppObject22OrderBlock_t1585977831S1_PK10MethodInfo
aEe:__ZN9Rigidbody5ResetEv
Nki:_Array_InternalArray__ICollection_Contains_TisSlot_t384495010_m688761886_gshared
Cfb:__ZN17SharedTextureDataC2E10MemLabelIdii13TextureFormatjiibb
Apl:__Z114RuntimeInvoker_RuntimeObject_RuntimeObject_Int32_t2950945753_Int32_t2950945753_Int32_t2950945753_Int32_t2950945753PFvvEPK10MethodInfoPvPS4_
pVb:__ZN8Material11SetPassFastEPN9ShaderLab4PassER17ShaderPassContextP6Shaderib
kFc:__Z31Renderer_Set_Custom_PropEnabledP12Il2CppObjectb
rib:__ZNK13ScreenManager13GetLockCursorEv
Hff:__ZN11UnityEngine7Connect20BasePersistentValues10SaveValuesER9JSONWrite
jcj:_Collection_1_IsFixedSize_m3748602684_gshared
oYh:_DateTime_System_IConvertible_ToDouble_m2116720007
$Qk:_Display_GetSystemExtImpl_m2808197389
IQi:_WaitHandle_WaitOne_m2577152516
f1c:__ZN11ShapeModule18MultiModeParameterIN25IParticleSystemProperties8PropertyIfNS1_5ClampILi0ELi360EEEEEE8TransferI19StreamedBinaryWriteILb0EEEEvRT_
tpb:__ZN14SafeBinaryRead21TransferSTLStyleArrayINSt3__26vectorI17SubstanceEnumItemNS1_9allocatorIS3_EEEEEEvRT_17TransferMetaFlags
g6f:_X509Certificate_PEM_m1177570576
Crg:_NumberFormatter_AppendExponent_m1258666517
AWg:_ArrayReadOnlyList_1_GetEnumerator_m1835926958_gshared
Ple:__ZN5physx9PxTaskMgr12addReferenceEj
Stc:__Z14ScaleCurveTimeR17AnimationCurveTplIfEf
Xla:__ZN22VirtualJoystickManagerC2Ev
iFj:_X509Stores_Open_m1037335183
xla:__ZN20GlobalCachingManager7DisposeEv
i0b:__Z12SetupLODFadeR9GfxDeviceR17ShaderPassContextf
udb:__ZNK14PlayableOutput7GetTypeEv
lCl:__ZL69Type_t_CustomAttributesCacheGenerator_Type_GetConstructors_m576905011P21CustomAttributesCache
I5b:__ZL24CollectForwardObjectsJobP27CollectForwardObjectsHeader
M2i:_List_1_get_Item_m1378751541_gshared
D7b:__Z13IsNodeVisibleRK9SceneNodeRK4AABBRK22SceneCullingParameters
dqi:_Array_InternalArray__IndexOf_TisLabelFixup_t858502054_m1491765395_gshared
Z8k:__Z44RuntimeInvoker_RuntimeTypeHandle_t3027515415PFvvEPK10MethodInfoPvPS4_
oBj:_TlsServerSettings_set_CertificateRequest_m1039729760
BGh:_SortKeyBuffer_AppendCJKExtension_m2591091991
Q7c:__ZN11ShapeModuleC2E10MemLabelId
aOi:_UTF8Encoding_GetByteCount_m4153686982
D8b:__Z24ScheduleCullingAllGroupsR8JobFenceRK22SceneCullingParametersiRK13CullingOutputRK13dynamic_arrayIP12CullingGroupLj4EERKS_
REm:_emscripten_glStencilMask__wrapper
B7k:__Z49RuntimeInvoker_Void_t1185182177_Double_t594665363PFvvEPK10MethodInfoPvPS4_
x5j:__ZN15dense_hashtableI10KeyWrapperIPK19Il2CppGenericMethodES4_N6il2cpp8metadata23Il2CppGenericMethodHashEN14dense_hash_setIS4_S7_NS4_14EqualsComparerINS6_26Il2CppGenericMethodCompareEEENSt3__29allocatorIS4_EEE8IdentityESB_SE_EC2ERKSH_j
Z6j:__ZN15dense_hashtableINSt3__24pairIK10KeyWrapperIN6il2cpp5utils13dynamic_arrayIPK10Il2CppTypeLj4EEEEPFvvEEESA_NS3_8metadata19Il2CppSignatureHashEN14dense_hash_mapISA_SD_SG_NSA_14EqualsComparerINSF_22Il2CppSignatureCompareEEENS0_9allocatorISE_EEE9SelectKeyESK_SM_EC2EjRKSG_RKSK_RKSO_
U1a:__ZN15RenderNodeQueue7CleanupEv
zni:_Array_InternalArray__IEnumerable_GetEnumerator_TisByte_t1134296376_m1979205379_gshared
Oga:__ZN14LineParameters8TransferI24GenerateTypeTreeTransferEEvRT_
_nd:__ZN5physx6shdfnd5ArrayINS_2Sn20ReaderNameStackEntryENS_7profile26WrapperReflectionAllocatorIS3_EEE15growAndPushBackERKS3_
And:__ZN16NovodexAllocator8allocateEjPKcS1_i
lcb:__ZN39DeprecatedFastPropertyNameSerialization8TransferI14SafeBinaryReadEEvRT_
MCj:_DeriveBytes_DeriveIV_m973925711
isg:_Int32_System_IConvertible_ToSByte_m3133688512
SSj:__ZL24UnresolvedVirtualCall_13P12Il2CppObjectaPK10MethodInfo
srj:_ReadOnlyCollection_1_System_Collections_IList_IndexOf_m848971554_gshared
F5b:__ZN9ShaderLab10GrabPassesD2Ev
Hkb:__ZN14Texture2DArray13UploadTextureEv
WSe:__ZN9HeightmapC2EP11TerrainData
Zfc:__ZZL31RegisterTrailRendererPropertiesR22GenericPropertyBindingEN36Wrapper_TrailRendererWidthMultiplier13GetFloatValueEPv
XZe:_tt_cmap14_done
Iub:__ZN18AwakeFromLoadQueue25RegisterObjectInstanceIDsEv
jAe:__ZN5physx21PxProfileNameProviderD2Ev
evi:_Dictionary_2_Add_m4262304220_gshared
NQk:_Debug__cctor_m1523394265
nHf:_StandaloneInputModule_set_forceModuleActive_m2237222402
mF:__ZNK27AnimationLayerMixerPlayable11DerivesFromE17ScriptingClassPtr
h4e:__ZN20TextRenderingPrivate19NativeTextGenerator15InsertCharacterEiPj
d3d:__ZN5physx2Sc5Scene22removeBroadPhaseRegionEj
mal:__Z77RuntimeInvoker_Void_t1185182177_RuntimeObject_SByte_t1669577662_RuntimeObjectPFvvEPK10MethodInfoPvPS4_
Ual:__Z81RuntimeInvoker_Void_t1185182177_RuntimeObject_SByte_t1669577662_SByte_t1669577662PFvvEPK10MethodInfoPvPS4_
Amd:__ZN5physx2Cm12RenderBuffer5clearEv
RQd:__ZNK5physx2Sc9ClothCore21getStiffnessFrequencyEv
KCg:_MonoType_get_attributes_m1332507727
qNj:_GUIContent_ClearStaticCache_m1205116045
m$i:_List_1_System_Collections_IList_get_IsFixedSize_m203251153_gshared
zZc:__ZN24OptimizedPolynomialCurve19BuildOptimizedCurveERK17AnimationCurveTplIfEf
ube:__ZN5physx13PxsCCDContext14postCCDAdvanceEPNS_10PxBaseTaskE
_ei:_WindowsIdentity_Dispose_m3466258450
VD:__ZN17AnimationPlayableD0Ev
aLb:__Z18Transfer_BlittableI19StreamedBinaryWriteILb0EELb0EyEvRK29SerializationCommandArgumentsR31RuntimeSerializationCommandInfo
Xph:_BinaryCommon__cctor_m2978407547
reg:_Char_System_IConvertible_ToByte_m2347554595
arj:_ReadOnlyCollection_1_GetEnumerator_m1017886827_gshared
Jtf:__ZN5physx18RepXPropertyFilterINS_2Sn17RepXVisitorReaderINS_23PxVehicleDriveSimData4WEEEEclILj663ENS_21PxVehicleDriveSimDataERKNS_19PxVehicleEngineDataES8_EEvRKNS_14PxPropertyInfoIXT_ET0_T1_T2_EEj
mDl:__ZL47ASN1_t2114160832_CustomAttributesCacheGeneratorP21CustomAttributesCache
Hrk:__ZN6il2cpp6icalls8mscorlib6System2IO6MonoIO20GetFileSystemEntriesEP12Il2CppStringS6_iiPi
Q5e:__ZN20TextRenderingPrivate15DynamicFontData21GetFontMetricsForFaceERK13dynamic_arrayIN4core17string_with_labelILi35EEELj4EEiRKS1_I4PPtrIN13TextRendering4FontEELj4EEPfSF_
Tyj:_IndexedSet_1__ctor_m2250384602_gshared
Nyi:_DefaultComparer__ctor_m1306123661_gshared
lUi:_UInt16_TryParse_m4139137016
yzk:__ZN6il2cpp5utils13dynamic_arrayIPNS_2os6ThreadELj4EE9push_backEv
vBk:__ZN6il2cpp2gc16GarbageCollector9FreeFixedEPv
WKi:_Encoding__ctor_m2997749867
lUk:_ManagedStreamHelpers_ManagedStreamSeek_m3158782053
jom:_ButtonOptions_TimerRe_m2657036385
FJj:_ExpressionAssertion_Compile_m2166597834
BRb:__ZN16ScriptingManagerD0Ev
lgi:_Single_System_IConvertible_ToSByte_m1208276900_AdjustorThunk
kSg:_TlsClientCertificate_ProcessAsSsl3_m3265529850
aEk:__ZN6il2cpp6icalls8mscorlib6System7Convert24InternalFromBase64StringEP12Il2CppStringb
Khe:__ZNK5physx10BPWorkTask7getNameEv
SFd:__ZN5physx2Sc8ShapeSim16onResetFilteringEv
MIl:__ZL58ChannelServices_t3942013484_CustomAttributesCacheGeneratorP21CustomAttributesCache
cvk:__ZN30dense_hashtable_const_iteratorINSt3__24pairIK10KeyWrapperINS1_IPKcS4_EEEiEES6_24NamespaceAndNamePairHashN14dense_hash_mapIS6_iS9_NS6_14EqualsComparerI26NamespaceAndNamePairEqualsEENS0_9allocatorIS8_EEE9SelectKeyESD_SF_EppEv
dzc:__Z44Register_UnityEngine_Component_get_transformv
Atl:__Z48RuntimeInvoker_Void_t1185182177_Link_t3209266973PFvvEPK10MethodInfoPvPS4_
nK:__ZN12_GLOBAL__N_120ProcessPlayableGraphERN8Animator11AnimatorJobER35AnimationPlayableEvaluationConstantR32AnimationPlayableEvaluationInputR33AnimationPlayableEvaluationOutputPFvS4_R17AnimationPlayableEPFvS4_S6_S8_EPFvS8_S4_S6_S8_fESE_MS9_FvPS3_PS5_PS7_E
pZj:_CanvasRenderer_get_absoluteDepth_m2703237819
Q8h:_TextInfo_ToLower_m2744057472
ttd:__ZN5physx2Sc16ActorInteractionD2Ev
mYb:__ZN17ArchiveFileSystem12MountArchiveEPKcS1_
bCi:_EqualityComparer_1_System_Collections_IEqualityComparer_Equals_m3977314386_gshared
dMc:__Z18Transfer_BlittableI9JSONWriteLb1E8Vector4fEvRK29SerializationCommandArgumentsR31RuntimeSerializationCommandInfo
so:FUNCTION_TABLE_viififiii
X5h:_CCGregorianCalendar_year_from_fixed_m463929682
m8e:__ZN2UI13CanvasManagerD0Ev
j5:__ZThn32_NK8Renderer14GetSubsetIndexEi
BQk:_Debug_get_unityLogger_m2239795986
yGd:__ZN5physx2Sc16ArticulationCore26setExternalDriveIterationsEj
FMg:_MD2Managed_Initialize_m2341076836
prj:_ReadOnlyCollection_1_System_Collections_IList_Add_m4240023232_gshared
KBa:__ZN9GfxDevice15ImmediateVertexEfff
Rhc:__Z13RegisterClassI8MaterialEvv
ugb:__ZNK16LightmapSettings22GetTypeVirtualInternalEv
A2a:__ZN16GraphicsSettings13AwakeFromLoadE17AwakeFromLoadMode
ir:__ZN6Object13AwakeFromLoadE17AwakeFromLoadMode
aza:__ZN13GfxDeviceGLES15SetStencilStateEPK18DeviceStencilStatei
fdg:_Buffer_BlockCopyInternal_m418318694
Upm:_cycle
wNk:_AssetBundleCreateRequest_t3119663542_marshal_pinvoke
SDk:__ZN6il2cpp2vm8Profiler7GCEventE13Il2CppGCEvent
m9k:__Z76RuntimeInvoker_Void_t1185182177_RuntimeObject_RuntimeFieldHandle_t1871169219PFvvEPK10MethodInfoPvPS4_
bDj:_PKCS12_Finalize_m507756088
ke:_emscripten_glUniform1iv
SPi:_Thread_get_ManagedThreadId_m1068113671
yAb:__ZN16MemoryFileSystemD2Ev
D9k:__Z150RuntimeInvoker_Int32_t2950945753_RuntimeObject_Int32_t2950945753_Int32_t2950945753_RuntimeObject_Int32_t2950945753_Int32_t2950945753_Int32_t2950945753PFvvEPK10MethodInfoPvPS4_
Ibg:_BitConverter_DoubleToInt64Bits_m3574395137
SZh:_DateTime_Parse_m3729096069
kZi:_List_1_System_Collections_IList_Add_m1540114404_gshared
mXg:_InternalEnumerator_1_System_Collections_IEnumerator_Reset_m81420524_AdjustorThunk
Nyc:__Z37Register_UnityEngine_Camera_get_depthv
I3i:_List_1_get_Count_m576380744_gshared
Ozg:_StringReader_Read_m3322058819
Ghh:_CrossAppDomainChannel_get_ChannelPriority_m3418073750
kzi:_EqualityComparer_1__ctor_m1860346363_gshared
Xuh:_Selectable_StartColorTween_m3618813981
Rge:__ZNK5physx16PxsBroadPhaseMBP18getNumDeletedPairsEv
mDf:_BaseInputModule_HandlePointerExitAndEnter_m1705532066
V_f:_EventInfo__ctor_m3033129999
tFe:__ZN5physx7profile8ZoneImplINS_28PxProfileNameProviderForwardEE10startEventEty
Obe:__ZN5physx10PxsCCDPair17sweepAdvanceToToiEfb
mhc:__ZN15ApplicationInfo16GetInstallerNameEv
_dc:__Z23ConvertIntegerToTypePtrItEbPvR14SafeBinaryRead
w2h:_Delegate_CombineImpl_m3572135514
Uqg:_NumberFormatter_IntegerToString_m1679294587
zbi:_SHA256Managed_AddLength_m1060552216
uxf:__Z36getPxVehicleDriveDynData_CurrentGearPKN5physx21PxVehicleDriveDynDataE
Hoj:_ReadOnlyCollection_1_System_Collections_IList_RemoveAt_m422909114_gshared
UK:__ZN7mecanim5human29HumanGetGoalOrientationOffsetENS0_4GoalE
Be:_emscripten_glStencilFunc
Lem:__ZL78LayoutRebuilder_t541313304_CustomAttributesCacheGenerator_U3CU3Ef__amU24cache2P21CustomAttributesCache
UEd:__ZN5physx6shdfnd8PoolBaseINS_2Cm5BlockIhLj384EEENS0_19ReflectionAllocatorIS4_EEE17releaseEmptySlabsEv
Pre:__ZN5physx16PxsIslandManager11freeBuffersEv
LSj:__ZL23UnresolvedVirtualCall_6P12Il2CppObjectiPK10MethodInfo
dom:_ButtonOptions_PlayGame_m3503507382
Dxd:__ZN5physx2Cm12DelegateTaskINS_2Sc17ParticleSystemSimEXadL_ZNS3_21prepareCollisionInputEPNS_10PxBaseTaskEEEE11runInternalEv
_Gf:__Z46il2cpp_codegen_get_marshal_directive_exceptionPKc
Dxa:__ZN9ShaderLab20SerializedSubProgram14AddMatrixParamEPKcii15ShaderParamTypei
n7a:__ZN24GenerateTypeTreeTransfer8TransferI13dynamic_arrayI8Vector3fLj4EEEEvRT_PKc17TransferMetaFlags
Ie:_glGetActiveUniformBlockName
g8l:__ZL90PointerEventData_t3807901092_CustomAttributesCacheGenerator_U3CpointerIdU3Ek__BackingFieldP21CustomAttributesCache
rE:__ZN7mecanim13CopyValueMaskILb0EEEvPKNS_14ValueArrayMaskEPS1_
rg:_emscripten_glUniform1fv
_2c:__ZN31CollisionModulePropertyBindings13GetFloatValueERK14ParticleSystemi
Pdi:_SecurityPermission_IsSubsetOf_m545000671
tBc:__Z39Quaternion_CUSTOM_INTERNAL_CALL_InverseRK11QuaternionfRS_
i2a:__ZNK4PPtrI5FlareEcvPS0_Ev
UR:__ZN4FMOD7Channel20set3DConeOrientationEP11FMOD_VECTOR
jo:FUNCTION_TABLE_iiifii
lwc:__Z22scripting_string_chars18ScriptingStringPtr
IUf:_AssemblyBuilder_not_supported_m1735277432
U3g:_InternalEnumerator_1_MoveNext_m1344185775_AdjustorThunk
Cyk:__ZN6il2cpp2vm12GenericClass11SetupEventsEP11Il2CppClass
S4e:_ft_open_face_internal
t_e:_tt_cmap12_get_info
kuk:__ZN6il2cpp2vm15ReboxIReferenceEP14Il2CppIUnknownP11Il2CppClass
NGi:_Enumerator__ctor_m2029608698_AdjustorThunk
M_j:__ZN6il2cpp6icalls8mscorlib6System7Decimal14decimalCompareEP19il2cpp_decimal_reprS5_
$fh:_Dictionary_2_OnDeserialization_m4209543208_gshared
xEk:__ZThn4_N6il2cpp2vm13CachedCCWBaseINS0_13ManagedObjectEE7ReleaseEv
aAd:__ZN5physx26PxcFsComputeJointLoadsSimdERKNS_9PxcFsDataEPKNS_12PxcFsInertiaEPNS_6shdfnd3aos6Mat33VEPKfjjNS_21PxcFsScratchAllocatorE
IZd:__ZN5physx6shdfnd8SyncImpl7getSizeEv
YSk:_GameObject_AddComponent_m136524825
GJl:__ZL62SoapMethodAttribute_t1935009310_CustomAttributesCacheGeneratorP21CustomAttributesCache
gil:__Z100RuntimeInvoker_Void_t1185182177_RuntimeObject_Int32_t2950945753_Int32_t2950945753_UInt16_t2177724958PFvvEPK10MethodInfoPvPS4_
ndb:__ZNSt3__26__treeINS_12__value_typeIN9ShaderLab16FastPropertyNameE10ColorRGBAfEENS_19__map_value_compareIS3_S5_NS_4lessIS3_EELb1EEENS_9allocatorIS5_EEE12__find_equalIS3_EERPNS_16__tree_node_baseIPvEENS_21__tree_const_iteratorIS5_PNS_11__tree_nodeIS5_SF_EEiEESI_RKT_
HBm:_glCopyTexImage2D__wrapper
C3h:_Double_System_IConvertible_ToUInt32_m271206838
jkd:__ZN5physx11PxHitBufferINS_12PxRaycastHitEED0Ev
zha:__GLOBAL__sub_I_runtime_graphics_billboard_0_cpp
YLf:_FloatTween_TweenValue_m52237061
AVb:__Z18ClearByDrawingQuad13GfxClearFlagsRK10ColorRGBAffjR17ShaderPassContext
KKa:__ZN6prcoreL17RemapGenericFloatI14TexFormatRHalf15TexFormatRFloatEEvPKNS_9InnerInfoE
Arg:_NumberFormatter_FormatExponential_m2139559983
Z$b:__Z16ShouldUseShadowsb
Una:__ZN15DirectorManager21RebuildStageCallbacksEv
NVb:__ZN19RuntimeSceneManager9LoadSceneERKN4core12basic_stringIcNS0_20StringStorageDefaultIcEEEES6_S6_RK9UnityGUIDiNS_11LoadingModeE
iTj:__ZL24UnresolvedVirtualCall_31P12Il2CppObjectiS0_S0_PK10MethodInfo
AOe:__ZN13SplatDatabase8TransferI18StreamedBinaryReadILb0EEEEvRT_
aEa:__ZN7ApiGLES10DrawArraysE16GfxPrimitiveTypejjj
I9c:__ZN5physx3Cct13BoxController15getPxControllerEv
Twf:__ZN5physx18RepXPropertyFilterINS_2Sn17RepXVisitorReaderINS_21PxVehicleDriveDynDataEEEEclILj645ES3_KbbEEvRKNS_14PxPropertyInfoIXT_ET0_T1_T2_EEj
pP:__ZN10SampleClip13LoadBaseSoundEv
Tfd:__ZN5physx2Gu22gjkRelativePenetrationINS0_17ShrunkConvexHullVES2_EEjRKT_RKT0_RKNS_6shdfnd3aos15PsMatTransformVERKNSA_6FloatVERNSA_5Vec3VESI_SI_RSE_PhSK_Rh
v7f:_SmallXmlParser_SkipWhitespaces_m4243606597
L6h:_CompareInfo_IndexOf_m2631915198
oVf:_ConstructorBuilder_GetCustomAttributes_m2495332786
nlh:_MethodCall__ctor_m3669645
Udg:_Byte_CompareTo_m4285128861
FEf:_TriggerEvent__ctor_m87299207
LCj:_DeriveBytes_DeriveKey_m2933043667
xZ:__Z57AudioSource_CUSTOM_INTERNAL_CALL_ClearExtensionPropertiesP12Il2CppObjectRK12PropertyName
FA:__ZN7mecanim9animation4Clip8TransferI19StreamedBinaryWriteILb0EEEEvRT_
Qxk:__ZN15dense_hashtableINSt3__24pairIK10KeyWrapperIP12Il2CppObjectEN6il2cpp2gc9CachedCCWEEES5_NS7_5utils11PointerHashIS3_EEN14dense_hash_mapIS5_S9_SD_NS5_14EqualsComparerINS0_8equal_toIS4_EEEENS0_9allocatorISA_EEE9SelectKeyESI_SK_E15insert_noresizeERKSA_
Nse:__ZN5physx2Sc19ParticlePacketShapeC2ERNS0_17ParticleSystemSimEjPNS_16PxvParticleShapeE
NWj:__ZL25UnresolvedVirtualCall_224P12Il2CppObject19Color32_t2600501292PK10MethodInfo
lzi:_EqualityComparer_1__cctor_m3962593840_gshared
pdb:__ZN22DeviceMVPMatricesStateC2ER9GfxDevice
H9k:__Z78RuntimeInvoker_Boolean_t97287965_RuntimeObject_RuntimeObject_Int32_t2950945753PFvvEPK10MethodInfoPvPS4_
hWc:__Z9UpdateTplIL27ParticleSystemCurveEvalMode1EEvRK11MinMaxCurveS3_S3_R23ParticleSystemParticlesjjRKN4math8float3x3ERKNS6_7_float4E
IJd:__ZN5physx9NpPhysics18createTriangleMeshERNS_13PxInputStreamE
yo:FUNCTION_TABLE_iiiiifiiiif
Pn:FUNCTION_TABLE_iifii
pdk:_RaycastHit2D_t2279581989_marshal_pinvoke_back
bjb:__ZNSt3__26vectorI13dynamic_arrayI8Vector2fLj4EENS_9allocatorIS3_EEE6assignINS_11__wrap_iterIPS3_EEEENS_9enable_ifIXaasr21__is_forward_iteratorIT_EE5valuesr16is_constructibleIS3_NS_15iterator_traitsISC_E9referenceEEE5valueEvE4typeESC_SC_
Bgb:__ZN21EnlightenSceneMapping8TransferI14SafeBinaryReadEEvRT_
Ioe:__ZN5physx2Cm12DelegateTaskINS_2Sc5SceneEXadL_ZNS3_14updateDynamicsEPNS_10PxBaseTaskEEEED0Ev
Slk:__ZN6il2cpp2vm10Reflection12HasAttributeEP9FieldInfoP11Il2CppClass
An:FUNCTION_TABLE_iiffi
Lc:invoke_viiifi
d2f:_MonoProperty_GetCustomAttributes_m3619796755
zim:__ZL89WheelEffects_t1559845116_CustomAttributesCacheGenerator_U3CPlayingAudioU3Ek__BackingFieldP21CustomAttributesCache
Ebk:__ZNSt3__214__split_bufferIP11Il2CppClassRNS_9allocatorIS2_EEEC2EjjS5_
$we:__ZN5physx6shdfnd5ArrayIPNS_7PxActorENS0_19ReflectionAllocatorIS3_EEE8recreateEj
Dmh:_MethodDictionary_System_Collections_IEnumerable_GetEnumerator_m4169036899
A7f:__ZN23InterfaceActionInvoker2IP8String_tP12Il2CppObjectE6InvokeEjP11Il2CppClassS3_S1_S3_
jWa:__ZNK11AssetBundle14GetPreloadDataEiR13dynamic_arrayIiLj4EE
$nd:__ZN5physx6shdfnd5ArrayINS_2Sn14NameStackEntryENS_7profile26WrapperReflectionAllocatorIS3_EEE15growAndPushBackERKS3_
P9h:_RIPEMD160Managed_JJJ_m4161373884
phh:_CrossContextChannel__ctor_m3755842292
oxi:_DefaultComparer_Equals_m3257444875_gshared
Sf:_JS_Sound_SetPosition
j9a:__ZN19RenderBufferManager13GetTempBufferEii17DepthBufferFormat19RenderTextureFormatj22RenderTextureReadWrite14VRTextureUsagei23RenderTextureMemoryless
M6i:_Collection_1_System_Collections_IList_get_IsFixedSize_m4038894826_gshared
r8j:__ZL13GetSharedInstPK17Il2CppGenericInst
K8l:__ZL98PointerEventData_t3807901092_CustomAttributesCacheGenerator_PointerEventData_get_delta_m1062010255P21CustomAttributesCache
eYi:_List_1_get_Count_m634446588_gshared
p4j:__ZNK15dense_hashtableINSt3__24pairIK10KeyWrapperIPKcEP11Il2CppClassEES5_N6il2cpp5utils11StringUtils12StringHasherIS4_EEN14dense_hash_mapIS5_S8_SE_NS5_14EqualsComparerINSB_13VmStringUtils21CaseSensitiveComparerEEENS0_9allocatorIS9_EEE9SelectKeyESJ_SL_E3endEv
$6b:__Z17PrepareSceneNodesP11CullResults
YYg:_InternalEnumerator_1_get_Current_m476140818_gshared
eNd:__ZNK5physx7NpCloth14getNbParticlesEv
o4g:_InternalEnumerator_1__ctor_m3814532512_gshared
Epd:__ZN5physx2Sc10NPhaseCore24releaseShapeInstancePairEPNS0_19ShapeInstancePairLLEjj
K4k:_WaitForEndOfFrame__ctor_m1381314187
L5b:__Z24SetupActiveLightsContextR21ActiveLightingContextRK12ActiveLightsRK11CullResultsP14ShadowMapCacheRK10MinMaxAABB
yIf:_AnimationTriggers_set_disabledTrigger_m933056574
dDc:__Z38Sprite_CUSTOM_INTERNAL_get_textureRectP12Il2CppObjectP5RectTIfE
Ekk:__ZNK15dense_hashtableINSt3__24pairIK10KeyWrapperIPK22Il2CppGenericParameterEPK24MonoGenericParameterInfoEES6_N6il2cpp5utils11PointerHashIS4_EEN14dense_hash_mapIS6_SA_SF_NS6_14EqualsComparerINS0_8equal_toIS5_EEEENS0_9allocatorISB_EEE9SelectKeyESK_SM_E3endEv
CXi:_List_1_Add_m238442097_gshared
xwc:__ZN9TextAsset7SetTextERKN4core12basic_stringIcNS0_20StringStorageDefaultIcEEEE
R0a:__ZN6Camera8TransferI24GenerateTypeTreeTransferEEvRT_
Ua:invoke_iiiiiiif
Ma:invoke_iiiiiiii
yui:_Array_InternalArray__set_Item_TisByte_t1134296376_m3104140039_gshared
VSc:__ZN14qsort_internal30FindAndMovePivotToLastPositionIPPKN9SubModule14SubEmitterDataEiPFbS4_S4_EEEvT_S8_T0_T1_
mfe:__ZN5physx21SapPostUpdateWorkTaskD0Ev
q_k:_Rect_ToString_m447614148
oDj:_PKCS12_GetBytes_m415958948
IQg:_Context_get_HandshakeState_m2425796590
b9b:__ZN8Renderer17PendingAddToSceneEv
BFd:__ZN5physx7NpActor18releaseConstraintsERNS_12PxRigidActorE
Gmd:__ZN5physx6shdfnd5ArrayINS_11PxDebugLineENS0_19ReflectionAllocatorIS2_EEE8recreateEj
ZEm:b125
YEm:b124
vFm:b127
uFm:b126
xVj:__ZL25UnresolvedVirtualCall_154P12Il2CppObject39CustomAttributeNamedArgument_t287865710S1_PK10MethodInfo
oCc:__Z52Register_UnityEngine_RectTransform_INTERNAL_get_rectv
BVd:__ZNK5physx22NpParticleBaseTemplateINS_16PxParticleSystemENS_16NpParticleSystemEE20getMaxMotionDistanceEv
_7:__Z21PostprocessStacktracePKcRN4core12basic_stringIcNS1_20StringStorageDefaultIcEEEE
mUk:_ManagedStreamHelpers_ManagedStreamLength_m2930872960
Dsb:__ZN18StreamedBinaryReadILb0EE21TransferSTLStyleArrayI13dynamic_arrayI16SplashScreenLogoLj4EEEEvRT_17TransferMetaFlags
tXd:__ZNK5physx14NpRigidDynamic25getContactReportThresholdEv
xxg:_FileStreamAsyncResult_CBWrapper_m1670848754
Yyc:__Z47Register_UnityEngine_Camera_get_allCamerasCountv
MRd:__ZN5physx22NpParticleBaseTemplateINS_15PxParticleFluidENS_15NpParticleFluidEE16releaseParticlesEv
ndf:__ZN22BaseUnityConnectClient20StartEventDispatcherEv
Ksc:__ZNSt3__26vectorIj13stl_allocatorIjL18MemLabelIdentifier1ELi16EEE6assignIPKtEENS_9enable_ifIXaasr21__is_forward_iteratorIT_EE5valuesr16is_constructibleIjNS_15iterator_traitsIS9_E9referenceEEE5valueEvE4typeES9_S9_
FJ:__ZN7mecanim9animation16EvaluateAvatarIKEPKNS0_14AvatarConstantEPKNS0_11AvatarInputEPNS0_12AvatarOutputEPNS0_12AvatarMemoryEPNS0_15AvatarWorkspaceEb
yG:__ZN26AnimatorControllerPlayable10GetIntegerEiRi
rdc:__Z29StdTemplateConversionFunctionIsiEbPvR14SafeBinaryRead
poe:__Z22updateIslandsToProcessRKN5physx2Cm10BitMapBaseINS_6shdfnd9AllocatorEEEPKjRKNS_11NodeManagerERS4_
yZb:__ZN12InputManager13InputEndFrameEv
Rak:__ZNSt3__26__treeIP11Il2CppClassNS_4lessIS2_EENS_9allocatorIS2_EEE25__emplace_unique_key_argsIS2_JRKS2_EEENS_4pairINS_15__tree_iteratorIS2_PNS_11__tree_nodeIS2_PvEEiEEbEERKT_DpOT0_
VVk:_Object_get_name_m4211327027
Epk:__ZN6il2cpp2vm6Thread5SetupEP12Il2CppThread
RAe:__ZN8Collider30GetRelativePositionAndRotationERK9TransformR10Matrix4x4f
Ube:__ZN5physx35PxcSweepEstimateAnyShapeHeightfieldERKNS_11PxsCCDShapeES2_PKNS_12PxsRigidBodyES5_RKNS_11PxTransformES8_f
zmj:_ReadOnlyCollection_1_System_Collections_IList_get_IsReadOnly_m1248651675_gshared
$ah:_Enumerator_System_Collections_IDictionaryEnumerator_get_Key_m2500634048_gshared
$md:__ZN5physx3Cct13BoxControllerC2ERKNS_16PxControllerDescERNS_9PxPhysicsEPNS_7PxSceneE
CXj:_TextGenerator_t3211863866_marshal_pinvoke_back
_qm:___munmap
CLh:_RSAManaged_get_PublicOnly_m595121416
Jg:_localtime_r
E_b:__ZN22RenderingCommandBuffer13GetAndCheckRTE24BuiltinRenderTextureTypeRKN9ShaderLab16FastPropertyNameEPKcPP13RenderTexture
dVc:__ZN14ParticleSystem13KillParticlesILb1EEEvRjbR24ParticleSystemUpdateDataR23ParticleSystemParticlesjPj
uma:__ZN14GfxDoubleCacheIyP17VertexDeclaration14GfxGenericHashIyENSt3__28equal_toIyEEN31GfxDoubleCacheConcurrencyPolicy11LocklessGetE42GfxDoubleCacheDefaultEmptyDeletedGeneratorIyEEC2Ev
U$g:_InternalEnumerator_1_System_Collections_IEnumerator_Reset_m3619766341_AdjustorThunk
l5c:__Z16UpdateSpritesTplIL27ParticleSystemCurveEvalMode3EEvfRK11MinMaxCurveS3_RK23ParticleSystemParticlesPf
vW:__ZN4FMOD5Sound11getDefaultsEPfS1_S1_Pi
DJl:__ZL56ReturnMessage_t1376985608_CustomAttributesCacheGeneratorP21CustomAttributesCache
CNi:_UTF32Decoder_GetChars_m1925558948
Mg:_strftime
hPa:__ZN7Texture33SetStoredColorSpaceNoDirtyNoApplyE17TextureColorSpace
U3f:_ResourceSet__ctor_m3618395942
y0h:_Decimal_System_IConvertible_ToDouble_m3125524987_AdjustorThunk
$aa:__ZN12FileAccessorD2Ev
Uga:__ZN10ColorRGBAf8TransferI18StreamedBinaryReadILb0EEEEvRT_
RFl:__ZL48OpCode_t123070264_CustomAttributesCacheGeneratorP21CustomAttributesCache
m5a:__ZN14VertexDataInfoC2Ev
fBk:__ZN6il2cpp2gc16GarbageCollector14CollectALittleEv
$Xl:__ZL87Sprite_t280657092_CustomAttributesCacheGenerator_Sprite_INTERNAL_get_border_m3728071101P21CustomAttributesCache
_oc:__ZNK9HPlayable15GetPlayableTypeEv
_ul:__Z117RuntimeInvoker_Void_t1185182177_CustomAttributeTypedArgumentU5BU5DU26_t2503877664_Int32_t2950945753_Int32_t2950945753PFvvEPK10MethodInfoPvPS4_
jNb:__ZL17Transfer_GUIStyleI18StreamedBinaryReadILb1EELb1EEvRK29SerializationCommandArgumentsR31RuntimeSerializationCommandInfo
$Uc:__ZNSt3__227__insertion_sort_incompleteIR31SortCollisionEventsByGameObjectP22ParticleCollisionEventEEbT0_S5_T_
lzh:_RectMask2D_IsRaycastLocationValid_m1652308696
kbk:__ZN6il2cpp6icalls8mscorlib6SystemL9IsPrivateEPK12PropertyInfo
mPk:_Color__ctor_m2943235014_AdjustorThunk
_be:__ZNK5physx18PxcConvexTriangles16getPolygonNormalEj
f$k:_RectTransform_add_reapplyDrivenProperties_m1374850920
Hja:__ZN9shadertag10InitializeEv
vrl:__Z69RuntimeInvoker_Void_t1185182177_Int32_t2950945753_Color32_t2600501292PFvvEPK10MethodInfoPvPS4_
k0b:__ZN13BatchRenderer20RenderSingleWithPassER17ShaderPassContextPK18SharedMaterialDataP6ShaderPN9ShaderLab4PassEiPKNS7_10GrabPassesEjib15BatchBreakCause
NGe:__ZN5physx24NpPtrTableStorageManager8canReuseEjj
A4j:__ZN15dense_hashtableINSt3__24pairIK10KeyWrapperIPK19Il2CppGenericMethodEPK26Il2CppGenericMethodIndicesEES6_N6il2cpp8metadata23Il2CppGenericMethodHashEN14dense_hash_mapIS6_SA_SE_NS6_14EqualsComparerINSD_26Il2CppGenericMethodCompareEEENS0_9allocatorISB_EEE9SelectKeyESI_SK_ED2Ev
Rhb:__ZN15QualitySettings14QualitySetting8TransferI24GenerateTypeTreeTransferEEvRT_
zKk:__ZN6il2cpp5utils6Memory11AlignedFreeEPv
V1l:__ZL63ControllerColliderHit_t240592346_CustomAttributesCacheGeneratorP21CustomAttributesCache
j0d:__ZN5physx2Sc27ConstraintProjectionManager33processConstraintForGroupBuildingEPNS0_13ConstraintSimERNS0_20ScratchAllocatorListIS3_Lj64EEE
oPg:_Context_get_ClientWriteKey_m3174706656
K7l:__ZL77ExecuteEvents_t3484638744_CustomAttributesCacheGenerator_U3CU3Ef__mgU24cache7P21CustomAttributesCache
Fsh:_InputField_get_textComponent_m948764648
WEc:__Z44Register_UnityEngine_Object_DestroyImmediatev
yog:_Convert_ToSingle_m835189399
qqc:__ZN22BlockMemoryCacheWriter14LockCacheBlockEjPPhS1_
HHc:__ZNSt3__218__insertion_sort_3IRPFbPKN5IMGUI9GUIWindowES4_EPPS2_EEvT0_SA_T_
QGg:_CryptographicUnexpectedOperationException__ctor_m69881930
zUd:__ZN5physx22NpParticleBaseTemplateINS_15PxParticleFluidENS_15NpParticleFluidEED2Ev
v6i:_Collection_1_SetItem_m1218178236_gshared
o_d:__ZN5physx2Cm29ConstraintImmediateVisualizer19visualizeDoubleConeERKNS_11PxTransformEfb
PPc:__Z22TransferField_NonArrayI8JSONRead27Converter_SimpleNativeClassI8GUIStyleEEvRK23StaticTransferFieldInfoR31RuntimeSerializationCommandInfoRT0_
tad:__ZN5physx6shdfnd5ArrayINS_13PxExtendedBoxENS0_19ReflectionAllocatorIS2_EEE8recreateEj
Che:__ZN5physx20ProcessBPResultsTask11runInternalEv
Otd:__ZN5physx6shdfnd5ArrayIPvNS0_19ReflectionAllocatorINS_2Cm5BlockIS2_Lj16EEEEEE4copyINS0_15InlineAllocatorILj256ES7_EEEEvRKNS1_IS2_T_EE
wlb:__ZN21BillboardBatchManager24BillboardBatchFreeMemJobEP25DynamicVBOGeometryJobData
rh:_llvm_eh_typeid_for
Ghc:__Z13RegisterClassI10GameObjectEvv
Vig:_CollectionBase_OnClear_m883003723
fCm:_glGetUniformLocation__wrapper
Zyf:__ZN5physx3Pvd17PvdPropertyFilterINS_2Sn17RepXVisitorWriterINS_21PxVehicleDriveDynDataEEEE14handleAccessorILj648ENS_22PxRepXPropertyAccessorILj648ES4_jjEEEEvjRKT0_
lmh:_RemotingServices_FindInterfaceMethod_m2125212568
HH:__ZNK23AnimationPlayableOutput7GetTypeEv
R0d:__ZN5physx7NpScene19getActiveTransformsERjh
vzg:_StreamWriter__cctor_m1229272693
Fpd:__ZN5physx2Sc10NPhaseCore39pool_deleteParticleElementRbElementPairEPNS0_35ParticleElementRbElementInteractionEjj
t4h:_Enum_System_IConvertible_ToSByte_m779472798
N0:__Z7ToUpperIN4core12basic_stringIcNS0_20StringStorageDefaultIcEEEEET_RKS5_
HYg:_InternalEnumerator_1_MoveNext_m1543390728_gshared
xPb:__Z18Transfer_BlittableI18StreamedBinaryReadILb0EELb1E8Vector4fEvRK29SerializationCommandArgumentsR31RuntimeSerializationCommandInfo
E8h:_SortKey_get_OriginalString_m1428586816
qgj:_Array_Resize_TisVector3_t3722313464_m1245103517_gshared
$wi:_Dictionary_2_U3CCopyToU3Em__0_m2023886030_gshared
Qrl:__Z64RuntimeInvoker_Boolean_t97287965_RefEmitPermissionSet_t484390987PFvvEPK10MethodInfoPvPS4_
rEm:_glBindVertexArray__wrapper
xze:__ZN5physx6shdfnd5ArrayINS_11RTreeNodeNQENS0_19ReflectionAllocatorIS2_EEE19resizeUninitializedEj
Aqd:__ZNK5physx2Sc16InteractionScene18getLLIslandManagerEv
Rqh:_SerializationInfo__ctor_m2923079689
lsd:__ZN5physx2Gu21intersectSphereConvexERKNS0_6SphereERKNS0_10ConvexMeshERKNS_11PxMeshScaleERKNS_11PxTransformEPNS_6PxVec3E
Sbb:__ZN8Material8TransferI14SafeBinaryReadEEvRT_
xbe:__ZN5physx17PxcNpMemBlockPool34acquireExceptionalConstraintMemoryEj
ceb:__ZN12CubemapArray17UploadToGfxDeviceEv
Ynm:_U3CStartSkidTrailU3Ec__Iterator0__ctor_m2020250076
auj:_Func_2__ctor_m1150804732_gshared
xqg:_Int32_JumpOverWhite_m208298144
sBj:_X509CertificateCollection_get_Item_m3285563224
Jce:__ZN5physxL23PxcSweepConvexTrianglesERKNS_11PxsCCDShapeES2_RKNS_11PxTransformES5_S5_S5_fRNS_6PxVec3ES7_RNS_10PxcNpCacheERNS_18PxcNpThreadContextERKNS_2Cm23FastVertex2ShapeScalingERNS_2Gu9TriangleVEf
iLd:__ZNK5physx7NpShape16getPlaneGeometryERNS_15PxPlaneGeometryE
utl:__Z53RuntimeInvoker_Int32_t2950945753_UIVertex_t4057497605PFvvEPK10MethodInfoPvPS4_
hDm:_emscripten_glGetUniformiv__wrapper
qEk:__ZN6il2cpp2vm13ManagedObject14QueryInterfaceERK10Il2CppGuidPPv
az:__ZNSt3__26vectorI24CompressedAnimationCurve13stl_allocatorIS1_L18MemLabelIdentifier26ELi16EEE6assignINS_11__wrap_iterIPS1_EEEENS_9enable_ifIXaasr21__is_forward_iteratorIT_EE5valuesr16is_constructibleIS1_NS_15iterator_traitsISB_E9referenceEEE5valueEvE4typeESB_SB_
Hze:__ZN5physx27InternalTriangleMeshBuilder14fillRemapTableEv
NP:__ZN11AudioSource4StopEb
$xd:__ZN5physx6shdfnd8PoolBaseINS_13NpRigidStaticENS0_19ReflectionAllocatorIS2_EEE17releaseEmptySlabsEv
dFb:__ZN14SafeBinaryRead21TransferSTLStyleArrayI13dynamic_arrayI10Matrix4x4fLj4EEEEvRT_17TransferMetaFlags
E1a:__ZN15LODGroupManager26CollectAllLODGroupManagersERK16CoreCameraValuesR13dynamic_arrayIPS_Lj4EEb
$Ik:__ZN6il2cpp2os14WindowsRuntime13DeleteHStringEP15Il2CppHString__
WUi:_UInt32_System_IConvertible_ToUInt32_m1744564280_AdjustorThunk
JRa:__ZN18GlslGpuProgramGLESD2Ev
qbc:__ZN13RenderTexture14SetVolumeDepthEi
Mfk:__ZNK15dense_hashtableINSt3__24pairIK10KeyWrapperINS1_IPK9FieldInfoP11Il2CppClassEEEjEES9_17ReflectionMapHashIS8_EN14dense_hash_mapIS9_jSD_NS9_14EqualsComparerINS0_8equal_toIS8_EEEENS0_9allocatorISB_EEE9SelectKeyESI_SK_E13find_positionERSA_
EFe:__ZThn116_NK5physx7profile8ZoneImplINS_28PxProfileNameProviderForwardEE10hasClientsEv
Ske:__ZN5physx2Gu20pcmContactCapsuleBoxERKNS0_13GeometryUnionES3_RKNS_11PxTransformES6_RKfRNS0_5CacheERNS0_13ContactBufferE
yhl:__Z86RuntimeInvoker_Void_t1185182177_UInt16_t2177724958_SByte_t1669577662_SByte_t1669577662PFvvEPK10MethodInfoPvPS4_
dxa:__Z22LoadGpuProgramFromDataPKhS0_Rj
tQc:__ZN10Matrix4x4f8TransferI8JSONReadEEvRT_
d3e:__ZN14SafeBinaryRead21TransferSTLStyleArrayI13dynamic_arrayIN4core17string_with_labelILi35EEELj4EEEEvRT_17TransferMetaFlags
Xyh:_PositionAsUV1_ModifyMesh_m4231919476
zjg:_Hashtable__ctor_m1941859523
dNj:_WindowFunction__ctor_m2544237635
n8g:_Comparer_1_get_Default_m1947376189_gshared
Xvg:_MonoIO_DeleteFile_m3839141322
r6:__ZN17PersistentManager18ReadObjectThreadedEi
yOa:__ZN25TransformFeedbackSkinning31CleanupTransformFeedbackShadersEv
s1a:__Z22scripting_object_unbox18ScriptingObjectPtr
blh:_AsyncResult_get_NextSink_m1844209137
j4e:__ZNK20TextRenderingPrivate8FontImpl19GetCharacterAdvanceEjijfPj
Nri:_Array_InternalArray__ICollection_Add_TisUriScheme_t722425697_m3142345403_gshared
vpm:_fmt_u
Phj:_Dictionary_2_Do_CopyTo_TisDictionaryEntry_t3123975638_TisDictionaryEntry_t3123975638_m1126292988_gshared
Ejb:__ZN10VertexData8TransferI18StreamedBinaryReadILb0EEEEvRT_
Pxd:__ZN5physx2Sc5Scene9addStaticERNS0_10StaticCoreEPKPvjj
fBl:__ZL81RuntimeArray_CustomAttributesCacheGenerator_Array_GetValue_m116098292____indices0P21CustomAttributesCache
lDg:_MonoType_get_Assembly_m4290914179
_Al:__ZL70RuntimeArray_CustomAttributesCacheGenerator_Array_GetValue_m1062368071P21CustomAttributesCache
Zxa:__ZN9ShaderLab7ProgramC2E10MemLabelIdi10ShaderType
Cbc:__ZN14PreloadManager16UpdatePreloadingEv
Nba:__ZN12BaseRendererD2Ev
T6a:__ZN14SafeBinaryRead21TransferSTLStyleArrayI19StaticArrayTransferIiLi4EEEEvRT_17TransferMetaFlags
mZc:__ZN11NoiseModule8TransferI14SafeBinaryReadEEvRT_
x7d:__ZN5physx2Sc5Scene9addShapesEPKPvjjRNS0_8RigidSimEPNS_12PxsRigidBodyERPNS0_8ShapeSimEPNS_9PxBounds3E
pfj:_Array_InternalArray__set_Item_TisUILineInfo_t4195266810_m2313892078_gshared
k3g:_InternalEnumerator_1_System_Collections_IEnumerator_Reset_m3355902602_AdjustorThunk
rXk:_PlayableAsset__ctor_m2395156306
i9l:__ZL79StandaloneInputModule_t2760469101_CustomAttributesCacheGenerator_m_SubmitButtonP21CustomAttributesCache
Ije:__ZN5physx23PxcPCMContactConvexMeshERKNS_2Gu13GeometryUnionES3_RKNS_11PxTransformES6_RKfRNS_10PxcNpCacheERNS0_13ContactBufferE
t3:__ZNK21UnityDefaultAllocatorI17LowLevelAllocatorE8ContainsEPKv
B9j:__ZNSt3__213__vector_baseI6pollfdNS_9allocatorIS1_EEED2Ev
mFg:_RuntimeTypeHandle_Equals_m2857439487
Bi:_emscripten_get_main_loop_timing
p5f:_SafeHandle_Finalize_m3866180675
Qhb:__ZN24GenerateTypeTreeTransfer21TransferSTLStyleArrayINSt3__26vectorIN15QualitySettings14QualitySettingENS1_9allocatorIS4_EEEEEEvRT_17TransferMetaFlags
Dpb:__ZNSt3__26vectorI14SubstanceInputNS_9allocatorIS1_EEE8__appendEj
_xg:_MemoryStream_ToArray_m3911744835
Aah:_Enumerator_System_Collections_IDictionaryEnumerator_get_Entry_m859540448_AdjustorThunk
Wpl:__Z72RuntimeInvoker_Boolean_t97287965_RaycastHitU26_t2429360258_RuntimeObjectPFvvEPK10MethodInfoPvPS4_
sMk:__ZN6il2cpp2os5Event4WaitEjb
NSi:_Type_GetHashCode_m1947148725
ZWj:__ZL25UnresolvedVirtualCall_236P12Il2CppObject19Vector2_t2156229523PK10MethodInfo
tdl:__Z91RuntimeInvoker_Void_t1185182177_RuntimeObject_RuntimeObject_RuntimeObject_SByte_t1669577662PFvvEPK10MethodInfoPvPS4_
Nxb:__ZNK2UI13RectTransform22GetTypeVirtualInternalEv
FSc:__ZNK15PolynomialCurve18EvaluateIntegratedERKN4math7_float4E
tq:getTempRet0
Rei:_StrongName_get_Version_m4243032012
h0g:_InternalEnumerator_1_MoveNext_m2234422530_gshared
W3c:__ZN26SizeModulePropertyBindings13GetFloatValueERK14ParticleSystemi
g4l:__ZL73GUISettings_t1774757634_CustomAttributesCacheGenerator_m_CursorFlashSpeedP21CustomAttributesCache
GDf:_BaseRaycaster_OnEnable_m2678466030
tTe:__ZN15TerrainCollider6CreateEPK9Rigidbody
kSk:_UnityEventBase__ctor_m1851535676
nhj:_Array_Sort_TisVector4_t3319028937_m2797285308_gshared
fSg:_HandshakeMessage_Update_m2417837686
Hdh:_Enumerator_get_Current_m1908012892_gshared
idj:_Collection_1_System_Collections_IList_get_Item_m3314684800_gshared
H$j:_Physics_RaycastAll_m3796226007
ark:__ZN6il2cpp6icalls8mscorlib6System9ThreadingL21lookup_cached_cultureEP12Il2CppThreadi
AIk:__ZN6il2cpp2os11EventHandleD2Ev
HRk:_NetFxCoreExtensions_CreateDelegate_m751211712
C6b:__ZN18DeferredRenderLoopD2Ev
TZj:_AnimationLayerMixerPlayable__cctor_m4086299972
lca:__ZNK16TypeTreeIterator4NameEv
ibj:_Collection_1_CopyTo_m756458445_gshared
uAl:__ZL40UIntPtr_t_CustomAttributesCacheGeneratorP21CustomAttributesCache
zaa:__ZN15FileSystemEntry3SetEPKc
Lqe:__ZN5physx6shdfnd5ArrayIPNS_13PxcNpMemBlockENS0_19ReflectionAllocatorIS3_EEE6resizeEjRKS3_
AIf:_AspectRatioFitter_get_aspectMode_m3735191157
xXd:__ZN5physx14NpRigidDynamic8requiresERNS_23PxProcessPxBaseCallbackE
Flj:_ReadOnlyCollection_1_System_Collections_Generic_IListU3CTU3E_Insert_m568455025_gshared
DR:__ZN20SoundChannelInstance15ParameterBuffer5ApplyEPN4FMOD7ChannelE
APh:_IPv6Address__ctor_m4117281080
XVl:__ZL88GameObject_t1113636619_CustomAttributesCacheGenerator_GameObject_SendMessage_m3720186693P21CustomAttributesCache
g4e:__ZN20TextRenderingPrivate19NativeTextGenerator9InsertTabEv
Qtm:_sbrk
WVc:__Z13DragUpdateTplIL27ParticleSystemCurveEvalMode2EEvRK11MinMaxCurvebbR23ParticleSystemParticlesjjRKN4math7_float4E
Fnl:__Z66RuntimeInvoker_Boolean_t97287965_Vector2_t2156229523_RuntimeObjectPFvvEPK10MethodInfoPvPS4_
I8i:_Collection_1_System_Collections_Generic_ICollectionU3CTU3E_get_IsReadOnly_m1032650589_gshared
nUc:__ZN14ParticleSystem12StartModulesER24ParticleSystemUpdateDataRK27ParticleSystemEmissionStatebRK8Vector3fRK10Matrix4x4fR23ParticleSystemParticlesjRKffjfjRjb
CHi:_Enumerator_VerifyState_m3474272061_AdjustorThunk
kFe:__ZN5physx7profile8ZoneImplINS_28PxProfileNameProviderForwardEE21setProfileZoneManagerEPNS_20PxProfileZoneManagerE
WEi:_Enumerator_MoveNext_m1131351993_AdjustorThunk
Sdf:__ZN11UnityEngine15PlatformWrapper24GetRuntimePlatformStringEv
lj:_glIsEnabled
lxb:__ZN15CacheWriterBaseD2Ev
Bkd:__ZN5physx3Cct17CapsuleController15setFootPositionERKNS_14PxExtendedVec3E
Zhd:__ZN5physx2Gu33PCMCapsuleVsMeshContactGeneration13generateEEMTDERKNS_6shdfnd3aos5Vec3VES6_RKNS3_6FloatVES6_jS6_S6_PNS0_21MeshPersistentContactERj
NUf:_DerivedType__ctor_m1853298054
UDb:__Z25scripting_class_get_image17ScriptingClassPtr
vHd:__ZN18MultiQueryCallbackIN5physx10PxSweepHitEED0Ev
oAf:__ZN5physx3Pvd17PvdPropertyFilterINS_2Sn17RepXVisitorWriterINS_16PxVehicleDrive4WEEEE14handleAccessorILj678ENS_22PxRepXPropertyAccessorILj678ES4_NS_23PxVehicleDriveSimData4WES9_EEEEvRKT0_
nJi:_List_1_RemoveAt_m2730968292_gshared
kub:__ZNSt3__26vectorIN4core12basic_stringIcNS1_20StringStorageDefaultIcEEEE13stl_allocatorIS5_L18MemLabelIdentifier13ELi16EEEC2INS_11__wrap_iterIPS5_EEEET_SE_RKS8_PNS_9enable_ifIXaasr21__is_forward_iteratorISE_EE5valuesr16is_constructibleIS5_NS_15iterator_traitsISE_E9referenceEEE5valueEvE4typeE
pj:_emscripten_glDrawElementsInstanced
uG:__ZN26AnimatorControllerPlayable27SetupStateMachineBehavioursEv
Jni:_Array_InternalArray__IEnumerable_GetEnumerator_TisSlot_t3975888750_m1869932007_gshared
Y1i:_List_1_System_Collections_IList_Contains_m2131605266_gshared
jwh:_LayoutGroup_get_preferredWidth_m3816902260
k3a:__ZN18JobBatchDispatcherD2Ev
Ixb:__ZN9Transform17MainThreadCleanupEv
hHk:_GC_clear_hdr_marks
C6c:__Z17UpdateSprites2TplIL27ParticleSystemCurveEvalMode1ELS0_4EEvfRK11MinMaxCurveS3_RK23ParticleSystemParticlesPf
qUe:_cff_fd_select_get
GEh:_Text_set_resizeTextForBestFit_m4095249125
rM:__Z13RegisterClassI18AnimatorControllerEvv
JRh:_OidEnumerator_MoveNext_m3138911739
asl:__Z53RuntimeInvoker_Boolean_t97287965_Keyframe_t4206410242PFvvEPK10MethodInfoPvPS4_
Aj:_emscripten_glGetShaderiv
DS:__ZN4FMOD6System10getVersionEPj
Gre:__ZN5physx2Sc7BodySim10sleepCheckEffb
mGe:__ZN5physx7profile23EventContextInformation9streamifyINS0_15EventSerializerINS0_12MemoryBufferINS0_21WrapperNamedAllocatorEEEEEEEvRT_NS0_27EventStreamCompressionFlags4EnumE
GQe:__ZN20QuadTreeNodeRenderer17SetLightmapParamsEtRK8Vector4f12LightmapType
r7e:__ZN2UI6Canvas23VirtualRedirectTransferER24GenerateTypeTreeTransfer
PCh:_Selectable_set_animationTriggers_m2970345687
Ubj:_Collection_1_CopyTo_m4271769704_gshared
XNc:__ZN9JSONWrite8TransferIN4math12int2_storageEEEvRT_PKc17TransferMetaFlags
R2e:__ZN13TextRendering4Font13AwakeFromLoadE17AwakeFromLoadMode
R6h:_CompareInfo_LastIndexOf_m2688553706
h4h:_Enum__ctor_m3602080049
NEm:_emscripten_glCullFace__wrapper
oAa:__ZN9GfxDevice21ReleaseSharedMeshDataEP14SharedMeshData
wGf:_MouseState__ctor_m1467839005
RKj:_Uri_IsDomainAddress_m2867513594
trb:__ZNSt3__27__sort5IRNS_6__lessINS_4pairIPKN5Unity4TypeE7Hash128EES8_EEPS8_EEjT0_SC_SC_SC_SC_T_
ROl:__ZL79Convert_t2465617642_CustomAttributesCacheGenerator_Convert_ToDouble_m2949593046P21CustomAttributesCache
ENf:_Dropdown_CreateItem_m2954407740
oGk:_GC_unreachable_finalize_mark_proc
eTh:_X509Chain_ProcessCrlExtensions_m236234529
Hg:___syscall192
MHk:_maybe_finalize
p_c:__ZN13dynamic_arrayI27ParticleSystemEmissionBurstLj4EE18resize_initializedEj12ResizePolicy
cqi:_Array_InternalArray__IndexOf_TisLabelData_t360167391_m1826525656_gshared
j$c:__ZN11ShapeModule18MultiModeParameterIN25IParticleSystemProperties8PropertyIfNS1_5ClampILi0ELi360EEEEEE8TransferI24GenerateTypeTreeTransferEEvRT_
gCc:__Z43RectTransform_CUSTOM_INTERNAL_get_anchorMaxP12Il2CppObjectP13Vector2fIcall
jGd:__ZN5physx14NpShapeManagerC2Ev
wjh:_RealProxy_get_ObjectIdentity_m2790771985
Jih:_RemotingConfiguration_RegisterChannelTemplate_m3105688054
Z$h:_Decimal_Parse_m942471224
lgb:__ZN8Material28UpdateHashesOnPropertyChangeEN9ShaderLab16FastPropertyNameE
z7i:_Collection_1_System_Collections_IList_get_Item_m1368877441_gshared
MFl:__ZL56MethodBuilder_t2807316753_CustomAttributesCacheGeneratorP21CustomAttributesCache
cKg:_Locale_GetText_m3520169047
YCc:__Z53Register_UnityEngine_SortingLayer_GetLayerValueFromIDv
QLg:_ASN1_GetBytes_m1968380955
oWl:__ZL85RectOffset_t1369453676_CustomAttributesCacheGenerator_RectOffset_set_right_m807318764P21CustomAttributesCache
MCb:__Z18Transfer_BlittableI14SafeBinaryReadLb1E8Vector4fEvRK29SerializationCommandArgumentsR31RuntimeSerializationCommandInfo
gdk:_SessionStateChanged_EndInvoke_m3128001178
GIf:_AspectRatioFitter_SetDirty_m2910185270
OU:__ZN11AudioSource12AddToManagerEv
gB:__ZN8Animator23VirtualRedirectTransferER19StreamedBinaryWriteILb0EE
bI:__ZN11UnityEngine9Animation32CreateAnimatorGenericBindingsOptERKNS0_20AnimationSetBindingsER9TransformPKN7mecanim9animation14AvatarConstantEPKNS0_21AvatarBindingConstantEbRNS6_6memory9AllocatorER8Animator
hvk:__ZN6il2cpp2vm5Image13ClassFromNameEPK11Il2CppImagePKcS6_
Jum:dynCall_vdddddd
Oua:__ZN24GenerateTypeTreeTransfer21TransferSTLStyleArrayINSt3__26vectorIN9ShaderLab14SerializedPassENS1_9allocatorIS4_EEEEEEvRT_17TransferMetaFlags
fud:__ZN5physx6shdfnd8internal8HashBaseIPNS_2Sc13ConstraintSimES5_NS0_4HashIS5_EENS1_11HashSetBaseIS5_S7_NS0_9AllocatorELb1EE6GetKeyES9_Lb1EE6createERKS5_Rb
fka:__ZL32MarkLevelGameManagerDependenciesR27GarbageCollectorThreadState
sfl:__Z52RuntimeInvoker_UInt64_t4134040092_Single_t1397266774PFvvEPK10MethodInfoPvPS4_
MCa:__ZNK13GfxDeviceGLES26HasActiveRandomWriteTargetEv
upk:__GLOBAL__sub_I_Thread_cpp
WBd:__ZNK5physx15NpActorTemplateINS_18PxArticulationLinkEE7getNameEv
pCl:__ZL54_MemberInfo_t3922476713_CustomAttributesCacheGeneratorP21CustomAttributesCache
Rzm:_glGetActiveUniformsiv__wrapper
eqf:__Z40setPxVehicleWheelDataMMaxHandBrakeTorquePN5physx18PxVehicleWheelDataEf
VCc:__Z43Register_UnityEngine_Material_EnableKeywordv
X9c:__ZNK5physx3Cct10Controller16getInternalStateERNS_17PxControllerStateE
lfc:__Z17BuildSmoothCornerILb0EEvjRPhRKN4math8float4x4EPK15LineBuilderDataRKfSA_RK11ColorRGBA32
L7:__ZN13MonoBehaviour19SetupScriptingCacheE17ScriptingClassPtrP10MonoScript
U9j:__ZNSt3__214__split_bufferIP12Il2CppThreadRNS_9allocatorIS2_EEED2Ev
Lw:__Z20AnimationEventToMonoRK14AnimationEventR18MonoAnimationEvent
Rkl:__Z106RuntimeInvoker_Void_t1185182177_Single_t1397266774_Single_t1397266774_Single_t1397266774_Int32_t2950945753PFvvEPK10MethodInfoPvPS4_
RLf:_FloatTween_set_targetValue_m3604919944_AdjustorThunk
Zvf:__Z35getPxVehicleDriveSimData_EngineDataPKN5physx21PxVehicleDriveSimDataE
_6:__ZN17PersistentManager29ReadAndActivateObjectThreadedEiRK26SerializedObjectIdentifierP14SerializedFilebb
Sfg:_ArrayList_get_IsReadOnly_m913775115
kGf:_PointerEventData_get_dragging_m746831934
zSi:_Type_get_TypeHandle_m160082026
x6d:__ZN5physx10PxsContext15setScratchBlockEPvj
orj:_ReadOnlyCollection_1_System_Collections_IEnumerable_GetEnumerator_m2781605075_gshared
Ina:__ZZN15DirectorManager15InitializeClassEvEN52PreLateUpdateDirectorUpdateAnimationBeginRegistrator7ForwardEv
nki:_Array_get_swapper_TisCustomAttributeNamedArgument_t287865710_m4254011335_gshared
IPf:_Graphic_RegisterDirtyMaterialCallback_m106898453
vNj:_GUILayoutEntry_get_margin_m3174861737
yUa:__ZN4PPtrI6SpriteE8TransferI14SafeBinaryReadEEvRT_
Czi:_EqualityComparer_1_System_Collections_IEqualityComparer_Equals_m1672604045_gshared
sok:__ZN15dense_hashtableINSt3__24pairIK10KeyWrapperIP11Il2CppClassES4_EES5_N6il2cpp8metadata16SZArrayClassHashEN14dense_hash_mapIS5_S4_SA_NS5_14EqualsComparerINS9_19SZArrayClassCompareEEENS0_9allocatorIS7_EEE9SelectKeyESE_SG_E16reset_thresholdsEv
B0i:_List_1_GetEnumerator_m2095602005_gshared
cpd:__ZN5physx2Cm27getDynamicGlobalPoseAlignedERKNS_11PxTransformES3_S3_RS1_
ree:__ZN5physx12solve1DBlockEPKNS_23PxcSolverConstraintDescEjRNS_16PxcSolverContextE
oxe:__ZN5physx6shdfnd5ArrayIPvNS0_19ReflectionAllocatorIN17PxcPoolMallocData10PoolData32EEEE15growAndPushBackERKS2_
pta:__ZNSt3__26vectorIN9ShaderLab20SerializedSubProgram13BufferBindingENS_9allocatorIS3_EEEC2INS_11__wrap_iterIPS3_EEEET_SB_RKS5_PNS_9enable_ifIXaasr21__is_forward_iteratorISB_EE5valuesr16is_constructibleIS3_NS_15iterator_traitsISB_E9referenceEEE5valueEvE4typeE
Sxl:__Z37RuntimeInvoker_Enumerator_t3436819725PFvvEPK10MethodInfoPvPS4_
PXk:_PlayableOutputHandle_op_Equality_m388301694
zLi:_Encoding_get_ISOLatin1_m2107621369
jmc:__ZZL23RegisterLightPropertiesR22GenericPropertyBindingEN20Wrapper_LightColorb213GetFloatValueEPv
Gib:__ZNK13ScreenManager21IsMultiDisplayEnabledEv
nXl:__ZL89Mathf_t3464937446_CustomAttributesCacheGenerator_Mathf_SmoothDamp_m394423605____maxSpeed4P21CustomAttributesCache
HVj:__ZL25UnresolvedVirtualCall_164P12Il2CppObject20UICharInfo_t75501106S1_PK10MethodInfo
oAl:__ZL72IntPtr_t_CustomAttributesCacheGenerator_IntPtr_op_Inequality_m3063970704P21CustomAttributesCache
gDj:_SafeBag_get_ASN1_m2293701606
Ufb:__ZN9Texture2D23VirtualRedirectTransferER18StreamedBinaryReadILb0EE
pYh:_DateTime_System_IConvertible_ToDouble_m2116720007_AdjustorThunk
jig:_BitArrayEnumerator__ctor_m2359341397
PFi:_Enumerator_MoveNext_m1177880931_gshared
N6g:_DefaultComparer__ctor_m3288720761_gshared
Hsl:__Z102RuntimeInvoker_Int32_t2950945753_RuntimeObject_Vector2_t2156229523_Int32_t2950945753_Int32_t2950945753PFvvEPK10MethodInfoPvPS4_
t4j:__ZN30dense_hashtable_const_iteratorINSt3__24pairIK10KeyWrapperIPKcEP11Il2CppClassEES5_N6il2cpp5utils11StringUtils12StringHasherIS4_EEN14dense_hash_mapIS5_S8_SE_NS5_14EqualsComparerINSB_13VmStringUtils21CaseSensitiveComparerEEENS0_9allocatorIS9_EEE9SelectKeyESJ_SL_E30advance_past_empty_and_deletedEv
X1l:__ZL73g_UnityEngine_TextRenderingModule_Assembly_CustomAttributesCacheGeneratorP21CustomAttributesCache
h9:__ZN16ScriptingManager27NativeTypeForScriptingClassE17ScriptingClassPtr
vVi:_UInt64_System_IConvertible_ToDateTime_m3434604642
uSi:_Type_get_IsSerializable_m1040556850
eZe:_get_sfnt_table
mgj:_Array_Resize_TisUIVertex_t4057497605_m1219201596_gshared
oFl:__ZL55StreamWriter_t1266378904_CustomAttributesCacheGeneratorP21CustomAttributesCache
qgh:_Dictionary_2_System_Collections_ICollection_get_IsSynchronized_m256515291_gshared
Ohc:__Z13RegisterClassI5LightEvv
EHe:__ZN5physx2Gu20registerHeightFieldsEv
X4:__ZN8Renderer20RendererAddedToSceneEv
X7b:__ZL22ScheduleSceneNodesJobsP25ScheduleSceneNodesJobDataj
afe:__ZN5physx22concludeContactCoulombERKNS_23PxcSolverConstraintDescERNS_16PxcSolverContextE
rl:_emscripten_set_canvas_size
MOf:_Graphic_SetVerticesDirty_m2124914069
vSd:__ZNK5physx15NpParticleFluid12getStiffnessEv
U6h:_CultureInfo__ctor_m3285927757
_xh:_MaskableGraphic_get_rootCanvasRect_m3492154629
lzf:__ZN5physx18RepXPropertyFilterINS_2Sn17RepXVisitorReaderINS_18PxVehicleDriveTankEEEEclILj674ENS_14PxVehicleDriveENS_21PxVehicleDriveDynDataES8_EEvRKNS_14PxPropertyInfoIXT_ET0_T1_T2_EEj
hgj:_Array_Resize_TisRaycastResult_t3360306849_m1811054291_gshared
mmj:_ReadOnlyCollection_1_System_Collections_Generic_ICollectionU3CTU3E_get_IsReadOnly_m3152485890_gshared
Kta:__ZNSt3__26vectorIN9ShaderLab20SerializedSubProgramENS_9allocatorIS2_EEE8__appendEj
b4:__ZN20DynamicHeapAllocatorI17LowLevelAllocatorE8AllocateEji
TOj:_Locale_GetText_m2427493201
R0b:__ZN20DynamicPropertySheet15SetVectorQueuedERKN9ShaderLab16FastPropertyNameERK8Vector4fN19ShaderPropertySheet8SetFlagsE
QI:__ZN7mecanim9animation22EvaluateAvatarRetargetEPKNS0_14AvatarConstantEPKNS0_11AvatarInputEPNS0_12AvatarOutputEPNS0_12AvatarMemoryEPNS0_15AvatarWorkspaceEb
u3g:_InternalEnumerator_1_System_Collections_IEnumerator_Reset_m996811230_AdjustorThunk
c8a:__ZN14RenderSettings23VirtualRedirectTransferER19StreamedBinaryWriteILb0EE
ZUf:_ConstructorBuilder_get_TypeBuilder_m2755629087
uMc:__ZL26Transfer_SimpleNativeClassI9JSONWrite10RectOffsetLb0EEvRK29SerializationCommandArgumentsR31RuntimeSerializationCommandInfo
YRe:__ZNSt3__26vectorI12QuadTreeNodeNS_9allocatorIS1_EEE8__appendEj
IGk:_GC_push_conditional
PGa:__ZN17GenericDynamicVBO10AllocateVBEjR21DynamicVBOChunkHandle
Arc:__ZN8Renderer19SetLightmapIndexIntEi12LightmapType
gje:__ZL27PxcTestFacesSepAxesBackfaceRKN5physx2Gu13PolygonalDataES3_RKNS_2Cm8Matrix34ES7_RKNS4_23FastVertex2ShapeScalingESA_S7_RKNS_6PxVec3ERfRSB_RjPjSG_fSD_
O$h:_DBNull_ToString_m3638608738
iwk:__ZN30dense_hashtable_const_iteratorI10KeyWrapperIP18Il2CppGenericClassES3_N6il2cpp8metadata22Il2CppGenericClassHashEN14dense_hash_setIS3_S6_NS3_14EqualsComparerINS5_25Il2CppGenericClassCompareEEENSt3__29allocatorIS3_EEE8IdentityESA_SD_EppEv
gig:_BitArray_Clone_m3537018332
tqh:_ObjectRecord_UnchainFixup_m3191243952
aqf:__Z33setPxVehicleWheelDataMDampingRatePN5physx18PxVehicleWheelDataEf
ujl:__Z65RuntimeInvoker_RuntimeObject_RuntimeObject_Vector3U26_t3464235976PFvvEPK10MethodInfoPvPS4_
qjj:_Array_InternalArray__get_Item_TisDouble_t594665363_m850827605_gshared
Ql:_glMapBufferRange
Mfb:__ZN9Texture2D8TransferI18StreamedBinaryReadILb0EEEEvRT_
GAc:__Z31Input_CUSTOM_GetMouseButtonDowni
gpc:__ZN13PlayableGraph4PlayEv
voc:__Z29AddCanvasIntermediateRendererPN2UI6CanvasEPNS_13CanvasBuffersEP17VertexDeclarationjRK10Matrix4x4ftRK4AABB4PPtrI8MaterialEi17ShadowCastingModebP6Camerab
d$b:__ZNK9Transform16GetLocalPositionEv
xKi:_EncoderExceptionFallbackBuffer_get_Remaining_m1573636148
oDg:_MonoType_get_BaseType_m1098640416
DVa:__ZN13LoadOperation19IntegrateTimeSlicedEi
OBj:_TlsStream_Read_m3392972801
Age:__ZN5physx16PxsBroadPhaseMBP9updatePPUEPNS_10PxBaseTaskE
bVj:__ZL25UnresolvedVirtualCall_132P12Il2CppObject17Color_t2555686324faaaPK10MethodInfo
XCa:__ZN13GfxDeviceGLES22DispatchComputeProgramE12ObjectHandleI18ComputeProgram_TagPvE15ComputeBufferIDj
ZXb:__ZN20DefaultGfxDeviceImpl32InitStereoGlobalsBuffersPlatformEiijPKv
gMi:_Latin1Encoding_GetString_m254210343
Pvb:__Z17TransformAABBSlowRK4AABBRK10Matrix4x4fRS_
Hag:_Array_combsort_m4052486289
mjb:__ZN15SerializeTraitsI13dynamic_arrayI12SpriteVertexLj4EEE19ResizeSTLStyleArrayERS2_i
LJi:_List_1_System_Collections_ICollection_get_SyncRoot_m314215814_gshared
fsa:__ZN9ShaderLab21SerializedShaderState8TransferI14SafeBinaryReadEEvRT_
i5h:_Environment_GetWindowsFolderPath_m1738399646
q5i:_Queue_1_System_Collections_Generic_IEnumerableU3CTU3E_GetEnumerator_m2263220760_gshared
G2i:_List_1_Sort_m378918663_gshared
lwe:__ZN5physx2Gu13RTreeMidphaseC2Ev
Oyi:_DefaultComparer_GetHashCode_m77036565_gshared
rVe:_cf2_stack_pushInt
$L:__ZN7mecanim9animation20DestroyLayerConstantEPNS0_13LayerConstantERNS_6memory9AllocatorE
HI:__ZN8Animator19FireAnimationEventsERNS_11AnimatorJobE
EUd:__ZN5physx6shdfnd8PoolBaseINS_16NpParticleSystemENS0_19ReflectionAllocatorIS2_EEE12allocateSlabEv
U$f:_Module_GetCustomAttributes_m76573271
IGg:_CryptoConfig_EncodeOID_m2635914623
Qua:__ZN15SerializeTraitsINSt3__24pairIN4core12basic_stringIcNS2_20StringStorageDefaultIcEEEES6_EEE8TransferI24GenerateTypeTreeTransferEEvRS7_RT_
xBm:b89
wBm:b88
cAm:b81
bAm:b80
tPa:__ZN7ApiGLES19CreateSparseTextureEjj14GraphicsFormatiiiiRiS1_S1_
R9:__ZN18ResourceImageGroup7CleanupEv
qBm:b85
Srd:__ZN5physx2Gu36closestPtPointTetrahedronTesselationEPNS_6shdfnd3aos5Vec3VES4_S4_RjRS3_S6_
vBm:b87
cji:_String_CharCopy_m3838781968
Pq:__ZN11Quaternionf8TransferI24GenerateTypeTreeTransferEEvRT_
vje:__ZN5physx25PxcPCMContactSphereConvexERKNS_2Gu13GeometryUnionES3_RKNS_11PxTransformES6_RKfRNS_10PxcNpCacheERNS0_13ContactBufferE
qnh:_RemotingSurrogateSelector_GetSurrogate_m3900875713
vhl:__Z69RuntimeInvoker_Boolean_t97287965_UInt16_t2177724958_Int16_t2552820387PFvvEPK10MethodInfoPvPS4_
Yse:__ZN5physx2Cm18DelegateFanoutTaskINS_2Sc5SceneEXadL_ZNS3_20particlePostShapeGenEPNS_10PxBaseTaskEEEED0Ev
Loj:_ReadOnlyCollection_1_System_Collections_IList_get_IsReadOnly_m3626439112_gshared
zOg:_CertificateValidationCallback_Invoke_m1014111289
a9a:__ZN8Playable19SetOutputConnectionEPS_i
udj:__ZN23InterfaceActionInvoker2Ii19Vector2_t2156229523E6InvokeEjP11Il2CppClassP12Il2CppObjectiS0_
K3j:__ZN15dense_hashtableINSt3__24pairIK10KeyWrapperIPK11Il2CppClassEPKcEES6_N6il2cpp5utils11PointerHashIS3_EEN14dense_hash_mapIS6_S9_SE_NS6_14EqualsComparerINS0_8equal_toIS5_EEEENS0_9allocatorISA_EEE9SelectKeyESJ_SL_EC2ERKSO_j
Em:_glDeleteShader
AR:__ZN11SoundHandle8Instance15UpdateLoadStateEv
SKa:__ZN6prcoreL17RemapGenericFloatI15TexFormatRGHalf16TexFormatRGFloatEEvPKNS_9InnerInfoE
_gj:_Array_Sort_TisUICharInfo_t75501106_m128665067_gshared
KXe:_otv_GSUB_validate
Qai:_RSAPKCS1SignatureDeformatter_SetHashAlgorithm_m1602190713
l4h:_Enum_System_IConvertible_ToByte_m1219166845
AId:__ZN5physx6shdfnd8PoolBaseINS_10NpMaterialENS0_19ReflectionAllocatorIS2_EEE15disposeElementsEv
Sfh:_Dictionary_2_CopyToCheck_m45332585_gshared
h0i:_List_1_System_Collections_ICollection_get_IsSynchronized_m3630704857_gshared
ZTf:_ConstructorInfo__cctor_m1016079270
eZg:_InternalEnumerator_1_System_Collections_IEnumerator_Reset_m4239728915_AdjustorThunk
Dwc:__Z27scripting_add_internal_callPKcPKv
Nol:__Z38RuntimeInvoker_ContentType_t1787303396PFvvEPK10MethodInfoPvPS4_
u8f:_AppDomain_Load_m4174353770
_wk:__GLOBAL__sub_I_GarbageCollector_cpp
Hea:__Z17GetPlayerSettingsv
obd:__ZL21ContactReductionAllInRN5physx2Gu13ContactBufferEjjRKNS_7PxMat33EPKNS_6PxVec3EPKh
oJ:__ZN34BlobWriteTransferSTLStyleArrayImplI22OffsetPtrArrayTransferIiEEclERS1_17TransferMetaFlagsR9BlobWrite
Ndm:__ZL156U3CDelayUpdateU3Ec__Iterator0_t299064644_CustomAttributesCacheGenerator_U3CDelayUpdateU3Ec__Iterator0_System_Collections_IEnumerator_get_Current_m2906633870P21CustomAttributesCache
M0f:_MonoField_get_FieldHandle_m3729647377
XAh:_ScrollRect_get_content_m2477524320
jSe:__ZN29BillboardTreeInstanceRenderer10UpdateWindEv
DB:__ZN26AnimatorControllerPlayable18SetLayerAutoWeightEv
Hcf:__Z44Register_UnityEngine_Canvas_get_pixelPerfectv
KPe:__ZN14TerrainManager15CullAllTerrainsERK27ScriptableCullingParametersRK17CullingParameters
rah:_Enumerator__ctor_m65667165_AdjustorThunk
S9e:__ZN2UI14CanvasRenderer12SyncMaterialENS0_8SyncFlagE
Hzg:_StreamWriter_Write_m1660535366
_fc:__ZZL31RegisterTrailRendererPropertiesR22GenericPropertyBindingEN36Wrapper_TrailRendererWidthMultiplier13SetFloatValueEPvf
hul:__Z66RuntimeInvoker_Void_t1185182177_Int32_t2950945753_Link_t3209266973PFvvEPK10MethodInfoPvPS4_
DKk:__ZN6il2cpp2vm9Parameter30GetDefaultParameterValueObjectEPK10MethodInfoPK13ParameterInfoPb
$Ni:_UTF8Encoding_GetByteCount_m4152118078
iQh:_ServicePoint_set_UseNagleAlgorithm_m1374731041
NKh:_KeyPairPersistence__CanSecure_m3516574278
Hgh:_Dictionary_2_make_pair_m3116882385_gshared
cel:__Z95RuntimeInvoker_Void_t1185182177_RuntimeObject_RuntimeObject_Int32_t2950945753_SByte_t1669577662PFvvEPK10MethodInfoPvPS4_
pqb:__ZNSt3__26vectorIhNS_9allocatorIhEEE8__appendEj
gJg:_MD5CryptoServiceProvider_Dispose_m3502499818
HCd:__ZN5physx19NpRigidBodyTemplateINS_18PxArticulationLinkEE16setRigidBodyFlagENS_15PxRigidBodyFlag4EnumEb
qwf:__ZN5physx18RepXPropertyFilterINS_2Sn17RepXVisitorReaderINS_16PxVehicleDriveNWEEEEclILj639ENS_15PxVehicleWheelsENS_22PxVehicleWheelsSimDataES8_EEvRKNS_14PxPropertyInfoIXT_ET0_T1_T2_EEj
G9i:_Collection_1_System_Collections_IList_get_Item_m2422562729_gshared
wll:__Z87RuntimeInvoker_Void_t1185182177_RuntimeObject_StringU26_t181565287_StringU26_t181565287PFvvEPK10MethodInfoPvPS4_
V2a:__ZN12LightManager28IsLightTransformDataUpToDateEPK5Light
AA:__ZN14AnimationEvent8TransferI19StreamedBinaryWriteILb0EEEEvRT_
IOe:__ZN14SplatPrototype8TransferI18StreamedBinaryReadILb0EEEEvRT_
Dz:__ZN7mecanim9animation9DenseClip8TransferI24GenerateTypeTreeTransferEEvRT_
kBl:__ZL74RuntimeArray_CustomAttributesCacheGenerator_Array_BinarySearch_m3171087170P21CustomAttributesCache
LAl:__ZL72Enum_t4135868527_CustomAttributesCacheGenerator_Enum_ToObject_m122225012P21CustomAttributesCache
TZe:_UNITY_tt_face_done_kern
tPg:_SecurityParameters_get_ServerWriteMAC_m3430427271
t4l:__ZL90GUIStyle_t3956901511_CustomAttributesCacheGenerator_GUIStyle_get_stretchHeight_m4172805773P21CustomAttributesCache
mpb:__ZN14SafeBinaryRead21TransferSTLStyleArrayINSt3__26vectorI14SubstanceInputNS1_9allocatorIS3_EEEEEEvRT_17TransferMetaFlags
EWg:_ArrayReadOnlyList_1_RemoveAt_m2104218585_gshared
Pmb:__ZN12BoneWeights48TransferI24GenerateTypeTreeTransferEEvRT_
_ni:_Array_InternalArray__IEnumerable_GetEnumerator_TisParameterModifier_t1461694466_m3675077728_gshared
kcm:__ZL60RawImage_t3182918964_CustomAttributesCacheGenerator_m_UVRectP21CustomAttributesCache
DUb:__Z19scripting_gc_enablev
_3g:_InternalEnumerator_1_get_Current_m2907722321_gshared
FYb:__ZZ23InitPlayerLoopCallbacksvEN41InitializationPlayerUpdateTimeRegistrator7ForwardEv
hwc:__ZN11UTF16StringC2ERKS_10MemLabelId
tGe:__ZN5physx7profile11EventBufferINS_24PxDefaultContextProviderENS_6shdfnd6MutexTINS0_26WrapperReflectionAllocatorIhEEEENS0_14ScopedLockImplIS7_EENS_24PxProfileNullEventFilterEE9stopEventEty
Wcc:__Z29StdTemplateConversionFunctionIihEbPvR14SafeBinaryRead
D5g:_InternalEnumerator_1_get_Current_m3792939945_AdjustorThunk
Ibf:__Z55Register_UnityEngine_CanvasRenderer_DisableRectClippingv
omb:__ZN14SafeBinaryRead21TransferSTLStyleArrayI13dynamic_arrayI11ColorRGBA32Lj4EEEEvRT_17TransferMetaFlags
YTf:_MethodBase__ctor_m1907868998
Qbm:__ZL118U3CCaretBlinkU3Ec__Iterator0_t2589889038_CustomAttributesCacheGenerator_U3CCaretBlinkU3Ec__Iterator0_Reset_m1547565867P21CustomAttributesCache
WSa:__ZN9GfxDevice22UploadTextureCubeArrayE9TextureIDPKhjii14GraphicsFormati18TextureUploadFlags
F_g:_InternalEnumerator_1_System_Collections_IEnumerator_get_Current_m888718134_gshared
Hkf:__ZN5physx22PxVehicleWheelsSimData25setMinLongSlipDenominatorEf
Y9k:__Z175RuntimeInvoker_Void_t1185182177_SByte_t1669577662_SByte_t1669577662_SByte_t1669577662_SByte_t1669577662_SByte_t1669577662_SByte_t1669577662_SByte_t1669577662_SByte_t1669577662PFvvEPK10MethodInfoPvPS4_
MWk:_Object_Destroy_m3118546832
fZh:_DateTime_FromTicks_m4059645178_AdjustorThunk
oCl:__ZL67ICustomAttributeProvider_t1530824137_CustomAttributesCacheGeneratorP21CustomAttributesCache
Kih:_ConfigHandler_ParseTime_m1787834288
Qwa:__ZN9ShaderLab7Program27CreateFromSerializedProgramERKNS_17SerializedProgramE10ShaderTypeiP16PropertyNamesSetPK6Shader
ZSf:_Assembly_Load_m3487507613
J5a:__ZNSt3__27__sort4IRNS_6__lessIN4core12basic_stringIcNS2_20StringStorageDefaultIcEEEES6_EEPS6_EEjT0_SA_SA_SA_T_
lvm:dynCall_viiiifii
Ojk:__ZN6il2cpp2gc19AppendOnlyGCHashMapINSt3__24pairIPK11Il2CppImageP11Il2CppClassEEP22Il2CppReflectionModule17ReflectionMapHashIS9_ENS2_8equal_toIS9_EEEC2Ev
o6:__Z20GetPersistentManagerv
h1e:_UNITY_TT_Set_Var_Design
Xha:__ZN21SystemInfoStringCache16StaticInitializeEPv
POl:__ZL80Convert_t2465617642_CustomAttributesCacheGenerator_Convert_ToDecimal_m1695757674P21CustomAttributesCache
QCh:_Selectable_get_targetGraphic_m559777690
xqd:__ZN5physx2Sc7BodySim18internalWakeUpBaseEf
Glj:_ReadOnlyCollection_1_System_Collections_Generic_ICollectionU3CTU3E_Remove_m1100818788_gshared
fxk:__ZNK10KeyWrapperIP12Il2CppObjectE14EqualsComparerINSt3__28equal_toIS1_EEEclERKS2_S9_
jta:__ZNSt3__26vectorIN9ShaderLab20SerializedSubProgram15StructParameterENS_9allocatorIS3_EEE6assignIPS3_EENS_9enable_ifIXaasr21__is_forward_iteratorIT_EE5valuesr16is_constructibleIS3_NS_15iterator_traitsISA_E9referenceEEE5valueEvE4typeESA_SA_
qej:_Collection_1_IsSynchronized_m2291009199_gshared
SRb:__ZNK13MonoBehaviour7GetNameEv
Swb:__ZN19ScriptingInvocation28AdjustArgumentsToMatchMethodEv
_yj:_IndexedSet_1_Contains_m1525966688_gshared
D_l:__ZL97Mesh_t3648964284_CustomAttributesCacheGenerator_Mesh_SetTriangles_m2205169959____calculateBounds2P21CustomAttributesCache
oP:__Z15_CheckFMODError11FMOD_RESULTPKciS1_
mqk:__ZN6il2cpp6icalls8mscorlib6SystemL16ThrowInvalidCastEPK11Il2CppClassS5_
Xgm:__ZL105AeroplaneController_t857819489_CustomAttributesCacheGenerator_AeroplaneController_set_RollAngle_m44729249P21CustomAttributesCache
s4a:__Z20RenderMultipleMeshesRK15RenderNodeQueueRK18RenderMultipleData17ShaderChannelMask
bBi:_EqualityComparer_1_get_Default_m79107703_gshared
sIg:_HMAC_KeySetup_m661741544
Wxh:_MaskableGraphic_get_maskable_m1260382606
CLi:_Latin1Encoding__ctor_m498920120
Cek:__ZN6il2cpp2vm4Type19GetGenericParameterEPK10Il2CppType
fzg:_StreamReader_Peek_m2272511193
p1b:__ZNSt3__26__sortIRNS_6__lessI11CulledLightS2_EEPS2_EEvT0_S6_T_
hbf:__Z51Register_UnityEngine_CanvasGroup_get_blocksRaycastsv
TYd:__ZN5physx20NpRigidActorTemplateINS_13PxRigidStaticEE15exportExtraDataERNS_22PxSerializationContextE
rSe:__ZNSt3__26vectorIP18SpeedTreeLocalWind13stl_allocatorIS2_L18MemLabelIdentifier63ELi16EEE6insertENS_11__wrap_iterIPKS2_EERS8_
Uaj:_Collection_1_System_Collections_IList_Add_m1403891193_gshared
Fue:__ZN5physx13BigConvexData5VLoadERNS_13PxInputStreamE
k_g:_InternalEnumerator_1_System_Collections_IEnumerator_Reset_m169899350_AdjustorThunk
hLf:_ContentSizeFitter_OnEnable_m2854655864
aTi:_Type_GetConstructor_m1195697116
Sx:__ZN7mecanim9animation10ValueDelta8TransferI14SafeBinaryReadEEvRT_
Wim:_CrossPlatformInputManager_RegisterVirtualAxis_m3479801628
FEl:__ZL104RegionInfo_t1090270226_CustomAttributesCacheGenerator_RegionInfo_t1090270226____DisplayName_PropertyInfoP21CustomAttributesCache
Tt:__ZN18AnimatorController19TransferRuntimeDataI24GenerateTypeTreeTransferEEvRT_
H8d:__ZN5physx11NodeManager6resizeEj
mYj:_Canvas_get_scaleFactor_m3314757802
e_b:__ZN6Camera12RenderStereoENS_10RenderFlagE8CullFlagPNS_24PerformEyeRenderFunctionE
Vzb:__ZN20LocalFileSystemPosix10ToAbsoluteEPKc
_3a:__ZN20TierGraphicsSettings8TransferI19StreamedBinaryWriteILb0EEEEvRT_
wCm:b111
Cha:__GLOBAL__sub_I_runtime_input_0_cpp
IDk:__ZN6il2cpp2vm13ComObjectBase16DisconnectObjectEj
f2d:__ZNK5physx7NpScene28getSceneQueryStaticTimestampEv
CCi:_GenericComparer_1__ctor_m3652072706_gshared
kn:f0
hr:__ZN6Object17MainThreadCleanupEv
A3a:__Z32TransferEnumWithNameForceIntSizeI14SafeBinaryRead7HDRModeEvRT_RT0_PKc17TransferMetaFlags
wqm:_getcwd
GDe:__ZNSt3__26vectorI9CollisionNS_9allocatorIS1_EEE21__push_back_slow_pathIKS1_EEvRT_
R$h:_Decimal__ctor_m3650533794_AdjustorThunk
PUa:__ZN25ThreadsafeLinearAllocatorD2Ev
Lvc:__ZL50GetAndClearChangedTransformsForMultilpleSystemsJobP45GetChangedTransformsForMultipleSystemsJobDatajPK23TransformAccessReadOnlyPKyj
gae:__ZN5physx2Sq10AABBPruner11preallocateEj
evb:__Z21SendMessageToEveryoneRK17MessageIdentifier11MessageData
oma:__ZN21BillboardBatchManager16StaticInitializeEPv
YXh:_DateTime_AbsoluteDays_m4235097773
ija:__ZN12_GLOBAL__N_138ArchiveRedirectFileSystemStaticDestroyEPv
aCl:__ZL126U3CGetEnumeratorU3Ec__Iterator0_t1202911786_CustomAttributesCacheGenerator_U3CGetEnumeratorU3Ec__Iterator0_Dispose_m2078994225P21CustomAttributesCache
i5k:__Z74RuntimeInvoker_RuntimeObject_RuntimeObject_RuntimeObject_SByte_t1669577662PFvvEPK10MethodInfoPvPS4_
kCl:__ZL69Type_t_CustomAttributesCacheGenerator_Type_GetConstructor_m1195697116P21CustomAttributesCache
FMf:_DefaultControls_CreateScrollView_m3842770629
$db:__ZN12CubemapArray34UpdateFileTextureUploadInstructionEP26FileAssetUploadInstructionj
moc:__ZN20IntermediateRenderer10InitializeERK10Matrix4x4fRK4AABB4PPtrI8MaterialEiy17ShadowCastingModeb
zFl:__ZL94EnumBuilder_t2400448213_CustomAttributesCacheGenerator_EnumBuilder_GetConstructors_m3294436155P21CustomAttributesCache
rvl:__Z55RuntimeInvoker_TableRange_t3332867892_Int32_t2950945753PFvvEPK10MethodInfoPvPS4_
x1g:_InternalEnumerator_1_MoveNext_m1020308708_gshared
sPa:__Z23CreateSparseTextureGLES9TextureIDii14GraphicsFormati
qYe:_otv_Anchor_validate
B6c:__Z17UpdateSprites2TplIL27ParticleSystemCurveEvalMode1ELS0_1EEvfRK11MinMaxCurveS3_RK23ParticleSystemParticlesPf
g9h:_Guid_CompareTo_m243656946_AdjustorThunk
VYh:_DateTimeFormatInfo_Clone_m335051388
ERi:_TimeSpan_Negate_m1889505500_AdjustorThunk
bpj:_ReadOnlyCollection_1_System_Collections_ICollection_CopyTo_m2715087453_gshared
$Rc:__ZN14ParticleSystem4StopE26ParticleSystemStopBehavior
g6l:__ZL84Canvas_t3310196443_CustomAttributesCacheGenerator_Canvas_get_scaleFactor_m3314757802P21CustomAttributesCache
$bh:_Transform_1__ctor_m2810088858_gshared
Q4e:__ZNSt3__23mapIN20TextRenderingPrivate7FontRefEP11FT_FaceRec_NS_4lessIS2_EENS_9allocatorINS_4pairIKS2_S4_EEEEEixERS9_
iXa:__ZN17ArchiveFileSystem10AddStorageEP20ArchiveStorageReader
NCd:__ZN5physx19NpRigidBodyTemplateINS_18PxArticulationLinkEE27setMaxDepenetrationVelocityEf
rQd:__ZN5physx2Sc9ClothCore16setStretchConfigENS_22PxClothFabricPhaseType4EnumERKNS_20PxClothStretchConfigE
Z5c:__Z19UpdateSingleRow2TplIL27ParticleSystemCurveEvalMode4ELS0_1EEvfRK11MinMaxCurveS3_RK23ParticleSystemParticlesPfbiii
R0c:__ZN9SubModule8TransferI19StreamedBinaryWriteILb0EEEEvRT_
qIe:_PxCreateFoundation
T8j:__ZN6il2cpp2vm13MetadataCache37GetParameterDefaultValueDataFromIndexEi
dvl:__Z83RuntimeInvoker_Void_t1185182177_RaycastResultU5BU5DU26_t530874788_Int32_t2950945753PFvvEPK10MethodInfoPvPS4_
Uel:__Z50RuntimeInvoker_SByte_t1669577662_SByte_t1669577662PFvvEPK10MethodInfoPvPS4_
rPf:_Graphic_OnFillVBO_m1026749972
j1j:__ZN6il2cpp2vm5Class15GetEnumBaseTypeEP11Il2CppClass
Zmb:__ZN18StreamedBinaryReadILb0EE21TransferSTLStyleArrayI13dynamic_arrayI12BoneWeights4Lj16EEEEvRT_17TransferMetaFlags
ARg:_Context_set_WriteSequenceNumber_m942577065
Ee:_glVertexAttrib4fv
bUh:_X509CertificateEnumerator_Reset_m4026698923
$Dk:__ZNK6il2cpp5utils13VmStringUtils23CaseInsensitiveComparerclERKNSt3__212basic_stringIcNS3_11char_traitsIcEENS3_9allocatorIcEEEEPKc
Gck:_WheelHit_get_forwardSlip_m320593428
NJf:_CanvasScaler_SetScaleFactor_m3006968999
Bxl:__Z78RuntimeInvoker_Boolean_t97287965_Navigation_t3049316579_Navigation_t3049316579PFvvEPK10MethodInfoPvPS4_
bfb:__ZNK9Texture2D16GetNpotTexelSizeEv
dEg:_NumberFormatter_Init_m3576155222
GWa:__ZL33FileEntryInfoListToFolderContentsRKN4core12basic_stringIcNS_20StringStorageDefaultIcEEEERK19dynamic_block_arrayI13FileEntryInfoLj32EERNSt3__23setIS3_NSB_4lessIS3_EENSB_9allocatorIS3_EEEE
Jgg:_ArrayListWrapper_IndexOf_m3692065720
ODf:_EventSystem_set_sendNavigationEvents_m983981895
DWc:__Z20EvaluateSlowThreadedRK11MinMaxCurveRNS_5CacheERKN4math7_float4ES7_
Xbg:__ZN21InterfaceFuncInvoker1ItP12Il2CppObjectE6InvokeEjP11Il2CppClassS1_S1_
cAa:__ZN9GfxDevice22GetDefaultVertexBufferE26GfxDefaultVertexBufferTypej
Tki:_Array_InternalArray__ICollection_Contains_TisInt64_t3736567304_m2911357929_gshared
$Zb:__ZNK6Camera16GetTargetDisplayEv
T9i:_Collection_1_Remove_m3022471627_gshared
Oqm:___fseeko_unlocked
YRf:_Object_ToString_m1740002499
Gqm:_sscanf
Kmd:__ZN5physx3Cct17CapsuleControllerC2ERKNS_16PxControllerDescERNS_9PxPhysicsEPNS_7PxSceneE
Bmb:__ZN14SafeBinaryRead21TransferSTLStyleArrayINSt3__26vectorI17BlendShapeChannelNS1_9allocatorIS3_EEEEEEvRT_17TransferMetaFlags
CVb:__Z17BeginSplashScreenv
lgj:_Array_Resize_TisUILineInfo_t4195266810_m3763058392_gshared
cGg:_SByte_ToString_m3584531119_AdjustorThunk
Hva:__ZN9ShaderLab16SerializedShader8TransferI19StreamedBinaryWriteILb0EEEEvRT_
wVj:__ZL25UnresolvedVirtualCall_153P12Il2CppObjectiiPK10MethodInfo
lL:__ZN7mecanim9animation18CreateAvatarMemoryEPKNS0_14AvatarConstantERNS_6memory9AllocatorE
Feg:_Convert_ToInt32_m1876369743
JKg:_ModulusRing__ctor_m2420310199
Vmg:_Convert_ToDateTime_m626620011
myi:_DefaultComparer__ctor_m3289136477_gshared
bbh:_Enumerator_System_Collections_IDictionaryEnumerator_get_Key_m2500634048_AdjustorThunk
H6c:__Z17UpdateSprites2TplIL27ParticleSystemCurveEvalMode2ELS0_4EEvfRK11MinMaxCurveS3_RK23ParticleSystemParticlesPf
ZJ:__ZN7mecanim8skeleton16SkeletonPoseCopyIN4math4trsXENS2_7affineXEEEvPKNS0_13SkeletonPoseTIT_EEPNS5_IT0_EE
WKb:__Z18Transfer_BlittableI19StreamedBinaryWriteILb0EELb0EaEvRK29SerializationCommandArgumentsR31RuntimeSerializationCommandInfo
pIi:_List_1_Remove_m3037048099_gshared
xGa:__ZN18GfxFramebufferGLES18GetFramebufferNameERK20GfxRenderTargetSetup
CAf:__ZN5physx3Pvd17PvdPropertyFilterINS_2Sn17RepXVisitorWriterINS_27PxVehicleDifferential4WDataEEEE14handleAccessorILj546ENS_22PxRepXPropertyAccessorILj546ES4_ffEEEEvRKT0_
pPh:_IPAddress__ctor_m921977496
xuh:_InputField_MoveDown_m1455948167
wIc:__Z30Event_Get_Custom_PropCharacterP12Il2CppObject
boa:__ZN13PlayableGraph27SchedulePlayableDestructionERK9HPlayable
BXe:_cff_get_mm_var
Vid:__ZN5physx6shdfnd5ArrayINS_12PxDebugPointENS0_19ReflectionAllocatorIS2_EEE15growAndPushBackERKS2_
Tym:_glGetFramebufferAttachmentParameteriv__wrapper
mhh:_ChannelServices_GetCurrentChannelInfo_m3041604116
uhf:__Z13RegisterClassI20UnityConnectSettingsEvv
J4g:_InternalEnumerator_1__ctor_m2635640285_AdjustorThunk
RDb:__Z22scripting_array_length17ScriptingArrayPtr
Tzg:_SynchronizedReader_Peek_m148942882
IBe:__ZN8Collider13AwakeFromLoadE17AwakeFromLoadMode
Kuj:_Predicate_1_Invoke_m2308795536_gshared
meb:__ZN14SafeBinaryRead20TransferTypelessDataEjPvi
KZd:__ZN5physx6shdfnd13ReadWriteLockC2Ev
Mxm:b34
z2e:_Horizontal_Sweep_Init
fW:__ZN13dynamic_arrayI12SoundChannelLj4EE9push_backERKS0_
Eea:__Z19GetActiveColorSpacev
a0c:__ZN17SizeBySpeedModule8TransferI18StreamedBinaryReadILb0EEEEvRT_
tZe:_UNITY_tt_face_load_kern
o0f:_MonoMethodInfo_GetDeclaringType_m2924452727
PWb:__ZN13sorted_vectorINSt3__24pairIiN17InstancingBatcher12PropertyTypeEEEN10vector_mapIiS3_NS0_4lessIiEE13stl_allocatorIS4_L18MemLabelIdentifier1ELi16EEE13value_compareESA_E21sort_clear_duplicatesEv
Oaf:__ZZN2UI14CanvasRenderer15InitializeClassEvEN38FunctorImpl_909kCanvasHierarchyChanged4CallEPviR11MessageData
e9:__Z6StrCmpPKcS0_
NAh:_Scrollbar_OnInitializePotentialDrag_m3588541308
Yxa:__Z21CheckGpuProgramUsable20ShaderGpuProgramType
rjc:__ZN13ProduceHelperI14Texture2DArrayLb0EE7ProduceE10MemLabelId18ObjectCreationMode
Dck:_WheelHit_t3881526332_marshal_pinvoke_cleanup
xAk:__ZN6il2cpp2os9Directory20GetFileSystemEntriesERKNSt3__212basic_stringIcNS2_11char_traitsIcEENS2_9allocatorIcEEEESA_iiPi
r9f:_Array_System_Collections_IList_Add_m1063688101
$Ed:__ZN5physx6shdfnd5ArrayIPvNS0_19ReflectionAllocatorINS_2Cm5BlockIhLj128EEEEEE4copyINS0_15InlineAllocatorILj256ES7_EEEEvRKNS1_IS2_T_EE
dcm:__ZL66Navigation_t3049316579_CustomAttributesCacheGenerator_m_SelectOnUpP21CustomAttributesCache
_3e:__ZN20TextRenderingPrivate19NativeTextGenerator5SetupEv
k5b:__ZNK15SharedLightData24GetFinalShadowResolutionEv
SGj:_PatternCompiler_EmitAlternationEnd_m2444359097
VVl:__ZL91GameObject_t1113636619_CustomAttributesCacheGenerator_GameObject_get_activeSelf_m1767405923P21CustomAttributesCache
FDl:__ZL57CollectionBase_t2727926298_CustomAttributesCacheGeneratorP21CustomAttributesCache
GId:__ZN5physx6shdfnd8PoolBaseINS_16NpConnectorArrayENS0_19ReflectionAllocatorIS2_EEE15disposeElementsEv
Asb:__ZN12AspectRatios8TransferI18StreamedBinaryReadILb0EEEEvRT_
iJe:__ZN14PhysicsManager19CreatePvdConnectionEv
aoc:__ZN10GameObject14CopyPropertiesERS_
nJc:__Z44Register_UnityEngine_GUIStyle_get_fixedWidthv
Tli:_Array_InternalArray__ICollection_Remove_TisLink_t544317964_m1280781374_gshared
hAk:__ZNSt3__214__split_bufferIN6il2cpp2os10ThreadImpl10APCRequestERNS_9allocatorIS4_EEEC2EjjS7_
Gbg:_BitConverter_DoubleWordsAreSwapped_m1474345095
Eib:__ZNK13ScreenManager12IsFullScreenEv
ahg:_FixedSizeArrayListWrapper_set_Capacity_m4221053039
hrm:_rand
cwf:__Z35setPxVehicleDriveSimData_ClutchDataPN5physx21PxVehicleDriveSimDataERKNS_19PxVehicleClutchDataE
etc:__ZN13MeshScripting10CreateMeshE21ScriptingObjectOfTypeI4MeshE
Xzj:_ListPool_1__cctor_m3480273184_gshared
PHd:__ZNK5physx12NpConstraint9getActorsERPNS_12PxRigidActorES3_
cEh:_Slider_FindSelectableOnLeft_m1667068522
DBk:__ZN6il2cpp5utils9PathUtils7CombineIcEENSt3__212basic_stringIT_NS3_11char_traitsIS5_EENS3_9allocatorIS5_EEEERKNS0_10StringViewIS5_EERKSA_
TEf:__ZN23InterfaceActionInvoker1IP25BaseEventData_t3903027533E6InvokeEjP11Il2CppClassP12Il2CppObjectS1_
IYk:_Quaternion_INTERNAL_CALL_Internal_ToEulerRad_m1913372122
NEb:__ZN14SafeBinaryRead21TransferSTLStyleArrayINSt3__26vectorI17AnimationCurveTplIfE13stl_allocatorIS4_L18MemLabelIdentifier1ELi16EEEEEEvRT_17TransferMetaFlags
Fhg:_SynchronizedArrayListWrapper_Contains_m3809499313
ixe:__ZN5physx6shdfnd8PoolBaseIN17PxcPoolMallocData10PoolData16ENS0_19ReflectionAllocatorIS3_EEE15disposeElementsEv
jBe:__ZN9Rigidbody23UpdateInterpolationNodeEv
Thk:__ZN15dense_hashtableINSt3__24pairIK10KeyWrapperINS1_IPK11Il2CppImageP11Il2CppClassEEEjEES9_17ReflectionMapHashIS8_EN14dense_hash_mapIS9_jSD_NS9_14EqualsComparerINS0_8equal_toIS8_EEEENS0_9allocatorISB_EEE9SelectKeyESI_SK_E12expand_arrayEjN21dense_hash_map_traits17integral_constantIbLb0EEE
GIg:_HMACSHA256__ctor_m346174875
pNj:_GUIContent_set_tooltip_m738967743
G7b:__Z22PrepareOptimizedPlanesPK5PlaneiPKN4math7_float4E
s_g:_InternalEnumerator_1__ctor_m1559487635_gshared
R2:__ZN11UnityEngine15CloudWebService17WebFileDownloaderINS0_20WebRequestRestClientENS0_23WebRequestRestHeaderMapEE10InitializeERKN4core12basic_stringIcNS5_20StringStorageDefaultIcEEEE
mma:__ZN17UniqueIDGenerator15CreatePureIndexEv
pEk:__ZN6il2cpp2vm3CCW9CreateCCWEP12Il2CppObject
dw:__ZN11UnityEngine9Animation28GenericAnimationBindingCache15DidReloadDomainEv
I0d:__ZN5physx7NpScene8addActorERNS_7PxActorE
xTe:__ZN15TerrainCollider22FetchPoseFromTransformEv
qtb:__ZNSt3__26vectorIN15ResourceManager10DependencyE13stl_allocatorIS2_L18MemLabelIdentifier52ELi16EEE6assignINS_11__wrap_iterIPS2_EEEENS_9enable_ifIXaasr21__is_forward_iteratorIT_EE5valuesr16is_constructibleIS2_NS_15iterator_traitsISC_E9referenceEEE5valueEvE4typeESC_SC_
ov:__ZN19StreamedBinaryWriteILb0EE8TransferIN7mecanim9animation23BlendDirectDataConstantEEEvRT_PKc17TransferMetaFlags
nSe:__ZN20SpeedTreeWindManager7GetWindERK4AABBRP18SpeedTreeLocalWindRK18SpeedTreeWindAsset
y0j:__ZN15dense_hashtableINSt3__24pairIK10KeyWrapperIPK22Il2CppGenericParameterEP11Il2CppClassEES6_N6il2cpp5utils11PointerHashIS4_EEN14dense_hash_mapIS6_S9_SE_NS6_14EqualsComparerINS0_8equal_toIS5_EEEENS0_9allocatorISA_EEE9SelectKeyESJ_SL_E14squash_deletedEv
fbb:__ZN9ShaderLabL27GetDesiredRenderTextureDescEPK6Camera
DLl:__ZL131RSACryptoServiceProvider_t2683512874_CustomAttributesCacheGenerator_RSACryptoServiceProvider_t2683512874____PublicOnly_PropertyInfoP21CustomAttributesCache
Yti:_Array_InternalArray__Insert_TisMark_t3471605523_m2854535880_gshared
hJa:__ZN6prcoreL29inner_stretch_rgb565_bilinearEPKNS_9InnerInfoE
umc:__ZZL23RegisterLightPropertiesR22GenericPropertyBindingEN18Wrapper_LightRange13SetFloatValueEPvf
F2l:__ZL52HumanBone_t2465339518_CustomAttributesCacheGeneratorP21CustomAttributesCache
hz:__ZN14SafeBinaryRead21TransferSTLStyleArrayI13dynamic_arrayI11KeyframeTplI11QuaternionfELj4EEEEvRT_17TransferMetaFlags
MYl:__ZL81Scene_t2348375561_CustomAttributesCacheGenerator_Scene_GetNameInternal_m992487900P21CustomAttributesCache
Zmh:_MethodReturnDictionary__cctor_m278392388
Y5:__ZNK9Transform18TransformDirectionERK8Vector3f
bte:__ZN5physx21PxsBodyTransformVault6updateEv
WXa:__ZNK17ArchiveFileSystem12GetAssetGUIDERK13FileEntryData
Qxa:__ZNSt3__26vectorIN9ShaderLab20SerializedSubProgram15MatrixParameterENS_9allocatorIS3_EEE21__push_back_slow_pathIKS3_EEvRT_
l_k:_Rect_op_Equality_m3986168348
bYe:_otv_MarkLigPos_validate
vIh:_PrimalityTests_RabinMillerTest_m1471415870
vwf:__ZN5physx2Sn21RepXVisitorReaderBaseINS_16PxVehicleDriveNWEE15complexPropertyINS_22PxRepXPropertyAccessorILj690ES2_NS_23PxVehicleDriveSimDataNWES6_EEKNS_36PxVehicleDriveSimDataNWGeneratedInfoEEEvPjRKT_RT0_
Pad:__ZL29GeomMTDCallback_CapsuleConvexRN5physx6PxVec3ERfRKNS_10PxGeometryERKNS_11PxTransformES5_S8_
eYf:_GenericTypeParameterBuilder_GetCustomAttributes_m580748276
C7j:__ZN15dense_hashtableINSt3__24pairIK10KeyWrapperIPK11Il2CppClassEPKcEES6_N6il2cpp5utils11PointerHashIS3_EEN14dense_hash_mapIS6_S9_SE_NS6_14EqualsComparerINS0_8equal_toIS5_EEEENS0_9allocatorISA_EEE9SelectKeyESJ_SL_E12resize_deltaEjj
dof:__ZN5physx2Sn21RepXVisitorReaderBaseINS_22PxVehicleWheelsDynDataEE8pushNameEPKc
Tsm:__ZNK10__cxxabiv120__si_class_type_info27has_unambiguous_public_baseEPNS_19__dynamic_cast_infoEPvi
OKg:_Kernel_LeftShift_m4140742987
MSf:_Assembly_GetManifestResourceInternal_m1224391897
TGa:__Z30AddDefaultStreamsToMeshBuffersR9GfxDeviceR11MeshBuffersj17ShaderChannelMaskS3_
Tia:__ZL16GetInterfaceImpl18UnityInterfaceGUID
C1j:__ZN6il2cpp2vmL17SetupFieldOffsetsENS0_15FieldLayoutKindEP11Il2CppClassjRKNSt3__26vectorIjNS4_9allocatorIjEEEE
nz:__ZNSt3__26vectorIN13AnimationClip15QuaternionCurveE13stl_allocatorIS2_L18MemLabelIdentifier26ELi16EEE10deallocateEv
eim:__ZL95CarController_t4228304488_CustomAttributesCacheGenerator_CarController_get_Skidding_m2607382877P21CustomAttributesCache
xDk:__ZN6il2cpp6icalls8mscorlib6System15MonoCustomAttrs27GetCustomAttributesInternalEP12Il2CppObjectP20Il2CppReflectionTypeb
J1g:_InternalEnumerator_1_get_Current_m1408339225_AdjustorThunk
E1e:_UNITY_TT_Set_MM_Blend
Dha:__GLOBAL__sub_I_runtime_math_random_0_cpp
oAj:_InternalAsyncResult_get_FromWrite_m4228047810
gcl:__Z53RuntimeInvoker_MonoEventInfo_t346866618_RuntimeObjectPFvvEPK10MethodInfoPvPS4_
Ecj:_Collection_1_CopyTo_m955200729_gshared
d9c:__ZNK5physx3Cct13BoxController11getPositionEv
PVb:__ZN14PreloadManager35WaitForAllAsyncOperationsToCompleteEv
_Vd:__ZN5physx14NpRigidDynamicC2ERKNS_11PxTransformE
PAi:_EqualityComparer_1__ctor_m1138336971_gshared
Ced:__Z27sweepCCTBox_HeightFieldGeomRKN5physx10PxGeometryERKNS_11PxTransformERKNS_2Gu3BoxERKNS_6PxVec3EfRNS_10PxSweepHitENS_7PxFlagsINS_9PxHitFlag4EnumEtEEf
d8:__ZNK18ScriptingObjectPtr17ToScriptingStringEv
XQ:__ZL31InitializeAudioScriptingClassesv
__b:__Z14SortGUIByDepthP10GUIElementS0_
sxf:__Z37getPxVehicleDriveDynData_UseAutoGearsPKN5physx21PxVehicleDriveDynDataE
Nji:_DecoderExceptionFallback_GetHashCode_m1820789965
cUc:__Z19UpdateProceduralTplIL27ParticleSystemCurveEvalMode0EEvRK20DualMinMaxPolyCurvesR23ParticleSystemParticlesPfRKN4math7_float4E
qil:__Z69RuntimeInvoker_UInt32_t2560061978_Int32_t2950945753_SByte_t1669577662PFvvEPK10MethodInfoPvPS4_
KK:__ZN12_GLOBAL__N_120ProcessRootMotionMixER33AnimationPlayableEvaluationOutputR35AnimationPlayableEvaluationConstantR32AnimationPlayableEvaluationInputS1_f
zLj:_UriParser__cctor_m3655686731
xad:__ZN5physx3Cct9SweepTest18updateTouchedGeomsEPKNS0_30InternalCBData_FindTouchedGeomERKNS0_13UserObstaclesERKNS_17PxExtendedBounds3ERKNS_19PxControllerFiltersERKNS_6PxVec3E
$wh:_LayoutRebuilder_U3Cs_RebuildersU3Em__0_m589488547
AGe:_PxCloseExtensions
Zwl:__Z53RuntimeInvoker_KeyValuePair_2_t71524366_RuntimeObjectPFvvEPK10MethodInfoPvPS4_
vAb:__ZNK20LocalFileSystemPosix21GetAvailableDiskSpaceEPKcRy
bia:__ZNSt3__26__treeIiNS_4lessIiEENS_9allocatorIiEEE7destroyEPNS_11__tree_nodeIiPvEE
xza:__ZNK9GfxDevice14GetWorldMatrixEv
RYg:_InternalEnumerator_1_MoveNext_m3619293991_gshared
C2k:_Transform_set_parent_m786917804
rCk:__ZN15dense_hashtableINSt3__24pairIK10KeyWrapperIPK19Il2CppGenericMethodEP10MethodInfoEES6_N6il2cpp8metadata23Il2CppGenericMethodHashEN14dense_hash_mapIS6_S9_SD_NS6_14EqualsComparerINSC_26Il2CppGenericMethodCompareEEENS0_9allocatorISA_EEE9SelectKeyESH_SJ_E13set_empty_keyERKSA_
IDh:_Slider_get_value_m739683640
Lyb:__Z19scripting_array_new17ScriptingClassPtrjj
Tng:_Convert_ToInt32_m2128774575
VV:__ZN11SoundHandle13CreateChannelEb
ZPi:_WaitCallback_BeginInvoke_m3012509827
Dgb:__ZN14SafeBinaryRead21TransferSTLStyleArrayI13dynamic_arrayI12LightmapDataLj4EEEEvRT_17TransferMetaFlags
Sta:__ZNSt3__26vectorIN9ShaderLab20SerializedSubProgram16TextureParameterENS_9allocatorIS3_EEE6assignIPS3_EENS_9enable_ifIXaasr21__is_forward_iteratorIT_EE5valuesr16is_constructibleIS3_NS_15iterator_traitsISA_E9referenceEEE5valueEvE4typeESA_SA_
d6j:__ZN13Il2CppHashMapIN6il2cpp5utils13dynamic_arrayIPK10Il2CppTypeLj4EEEPFvvENS0_8metadata19Il2CppSignatureHashENS9_22Il2CppSignatureCompareENSt3__29allocatorINSC_4pairIK10KeyWrapperIS6_ES8_EEEEEC2EjRKSA_RKSB_
uBc:__Z51Quaternion_CUSTOM_INTERNAL_CALL_Internal_ToEulerRadRK11QuaternionfR8Vector3f
r9k:__Z122RuntimeInvoker_Void_t1185182177_RuntimeObject_RuntimeObject_ContractionU5BU5DU26_t2277527001_Level2MapU5BU5DU26_t359320357PFvvEPK10MethodInfoPvPS4_
ukk:__ZN15dense_hashtableINSt3__24pairIK10KeyWrapperIPK22Il2CppGenericParameterEPK24MonoGenericParameterInfoEES6_N6il2cpp5utils11PointerHashIS4_EEN14dense_hash_mapIS6_SA_SF_NS6_14EqualsComparerINS0_8equal_toIS5_EEEENS0_9allocatorISB_EEE9SelectKeyESK_SM_E15set_deleted_keyERKSB_
aGg:_SByte_TryParse_m2431806379
aRl:__ZL64ObjectDisposedException_t21392786_CustomAttributesCacheGeneratorP21CustomAttributesCache
ugc:__ZN6prcoreL11inner_clearILj2EEEvPhjjj
BVl:__ZL92Debug_t3317548046_CustomAttributesCacheGenerator_Debug_LogWarningFormat_m1153215311____args2P21CustomAttributesCache
EHg:_DSACryptoServiceProvider_get_KeySize_m786836990
x4j:__ZNSt3__218uninitialized_fillIPNS_4pairIK10KeyWrapperIPKcEP11Il2CppClassEES9_EEvT_SB_RKT0_
dQd:__ZNK5physx2Sc9ClothCore20getNbCollisionPlanesEv
ph:_emscripten_exit_fullscreen
y7d:__ZN5physx6shdfnd5ArrayINS_9PxBounds3ENS0_15InlineAllocatorILj192ENS0_19ReflectionAllocatorIS2_EEEEE8recreateEj
Tfe:__ZNK5physx23PxsBroadPhaseContextSap7getTypeEv
hve:__ZNK5physx13GuMeshFactory17getNbHeightFieldsEv
lJe:__ZN14PhysicsManager19CreateDynamicsSceneEbb14BroadphaseType16ContactPairsModeRK4AABBi
Y2l:__ZL85AudioClip_t3680889665_CustomAttributesCacheGenerator_AudioClip_get_length_m4269890037P21CustomAttributesCache
XRf:_Object_MemberwiseClone_m1474068832
szk:__ZN6il2cpp6icalls8mscorlib6System6String19InternalAllocateStrEi
VQc:__Z29Transfer_Blittable_ArrayFieldI8JSONRead11QuaternionfEvRT_R9ArrayInfoRK23StaticTransferFieldInfo
aag:_Array_SetValue_m282347242
uae:__ZNK5physx2Gu12OBBAABBTestsILb1EEclENS_6shdfnd3aos5Vec3VES5_
s3j:_MinMaxGradient_get_color_m246991568
Tyc:__Z45Register_UnityEngine_Camera_get_targetDisplayv
ulc:__ZNK24RendererAnimationBinding15GenerateBindingERKN4core12basic_stringIcNS0_20StringStorageDefaultIcEEEEbRN11UnityEngine9Animation14GenericBindingE
QPh:_IPv6Address__ctor_m3704187391
t$b:__Z15GetFlareManagerv
khc:__ZN15ApplicationInfo24GetApplicationIdentifierEv
S9c:__ZN5physx3Cct9SweepTestD2Ev
hUa:__ZN9Behaviour8TransferI18StreamedBinaryReadILb0EEEEvRT_
$H:__ZN8Animator13GetAvatarRootEv
ejd:__ZN26IntersectAnyVsMeshCallbackILi0ELb0EED2Ev
gpm:___toread
WTb:__ZNSt3__26vectorI10vector_mapIiiNS_4lessIiEE13stl_allocatorINS_4pairIiiEEL18MemLabelIdentifier38ELi16EEES4_IS9_LS7_38ELi16EEE26__swap_out_circular_bufferERNS_14__split_bufferIS9_RSA_EE
kKg:_BigInteger_get_Rng_m3283260184
utm:___cxa_is_pointer_type
EN:__ZN8Animator22ScriptingStringToCRC32ERK11ICallString
KRl:__ZL55EventHandler_t1348719766_CustomAttributesCacheGeneratorP21CustomAttributesCache
MK:__ZN7mecanim9animation16EvaluateAvatarDXEPKNS0_14AvatarConstantEPKNS0_11AvatarInputEPNS0_12AvatarMemoryEPNS0_15AvatarWorkspaceEPNS0_12AvatarOutputE
ONa:__ZN4gles20DestroyRenderSurfaceEP7ApiGLESP17RenderSurfaceGLES
kjj:_Array_InternalArray__get_Item_TisKeyValuePair_2_t2530217319_m2886833132_gshared
bCh:_ScrollRect_OnEndDrag_m3202230060
trc:__ZN11PlayerPrefs6SetIntERKN4core12basic_stringIcNS0_20StringStorageDefaultIcEEEEi
nEc:__Z34Transform_CUSTOM_SetAsFirstSiblingP12Il2CppObject
ifk:__ZNK15dense_hashtableINSt3__24pairIK10KeyWrapperINS1_IPK14Il2CppAssemblyP11Il2CppClassEEEjEES9_17ReflectionMapHashIS8_EN14dense_hash_mapIS9_jSD_NS9_14EqualsComparerINS0_8equal_toIS8_EEEENS0_9allocatorISB_EEE9SelectKeyESI_SK_E10test_emptyEj
Kdd:__ZN12_GLOBAL__N_141SphereMeshContactGenerationCallback_ScaleD0Ev
N0c:__ZN21RotationBySpeedModule8TransferI19StreamedBinaryWriteILb0EEEEvRT_
Jkd:__ZN5physx3Cct17CapsuleController16setContactOffsetEf
k9k:__Z63RuntimeInvoker_Void_t1185182177_RuntimeObject_SByte_t1669577662PFvvEPK10MethodInfoPvPS4_
u_l:__ZL57SetupCoroutine_t2062820429_CustomAttributesCacheGeneratorP21CustomAttributesCache
muh:_InputField_Delete_m3471899192
cQl:__ZL79Convert_t2465617642_CustomAttributesCacheGenerator_Convert_ToUInt64_m1627266664P21CustomAttributesCache
xxa:__ZN20GpuProgramParameters23AddMatrixParamWithFlagsEPKcii15ShaderParamTypeiiiihP16PropertyNamesSet
LIl:__ZL91UrlAttribute_t221584584_CustomAttributesCacheGenerator_UrlAttribute_IsContextOK_m1228378186P21CustomAttributesCache
Jhh:_RemotingConfiguration_get_ProcessId_m2180277012
Pca:__ZN17PersistentManager40GlobalToLocalSerializedFileIndexInternalERK26SerializedObjectIdentifier
O$:__ZN11UnityEngine15CloudWebService17SessionEventQueue14ParseEventDataERKN4core12basic_stringIcNS2_20StringStorageDefaultIcEEEE
pHd:__ZN12GeomQueryAnyIN5physx10PxSweepHitEE7geomHitERKNS0_2Sq17SceneQueryManagerERKNS0_15MultiQueryInputERKNS3_9ShapeDataERKNS0_10PxGeometryERKNS0_11PxTransformENS0_7PxFlagsINS0_9PxHitFlag4EnumEtEEjPS1_fbPNS0_9PxBounds3E
XEa:__ZN13TranslateGLES4InitERK12GraphicsCaps16GfxDeviceLevelGL
SQb:__Z29Transfer_Blittable_ArrayFieldI18StreamedBinaryReadILb0EE10ColorRGBAfEvRT_R9ArrayInfoRK23StaticTransferFieldInfo
Ucd:__ZN43CapsuleHeightfieldContactGenerationCallback7onEventEjPj
eDe:__ZThn4_N12MemoryStream4readEPvj
lck:_NativeTypeAttribute_set_CodegenOptions_m3839252515
Nzi:_EqualityComparer_1_get_Default_m180770000_gshared
ptg:_Int64_System_IConvertible_ToUInt16_m848637338_AdjustorThunk
Yam:__ZL74GraphicRaycaster_t2999697109_CustomAttributesCacheGenerator_m_BlockingMaskP21CustomAttributesCache
Rpi:_Array_InternalArray__IndexOf_TisLink_t544317964_m455584088_gshared
$4i:_Enumerator_get_Current_m2282646120_AdjustorThunk
Roj:_ReadOnlyCollection_1_IndexOf_m2539022912_gshared
Nim:__ZL70U3CCountStartU3Ec__Iterator0_t113046106_CustomAttributesCacheGeneratorP21CustomAttributesCache
LLh:_KeyGeneratedEventHandler__ctor_m1990062371
HZd:__ZN5physx6shdfnd8internal8HashBaseIPNS_13NpVolumeCacheES4_NS0_4HashIS4_EENS1_11HashSetBaseIS4_S6_NS0_9AllocatorELb0EE6GetKeyES8_Lb0EE15reserveInternalEj
Tcm:__ZL66Selectable_t3250028441_CustomAttributesCacheGenerator_m_TransitionP21CustomAttributesCache
hLk:__ZN6il2cpp2os6Memory12AlignedAllocEjj
rKd:__ZN5physx6shdfnd8internal8HashBaseIPKNS_6PxBaseES5_NS0_4HashIS5_EENS1_11HashSetBaseIS5_S7_NS0_9AllocatorELb0EE6GetKeyES9_Lb0EE6createERKS5_Rb
yee:__ZN5physx28solveFrictionCoulombPreBlockEPKNS_23PxcSolverConstraintDescEjRNS_16PxcSolverContextE
OEh:_Text_set_alignByGeometry_m3828822280
qcl:__Z77RuntimeInvoker_Void_t1185182177_Int64_t3736567304_ResourceInfoU26_t1611441338PFvvEPK10MethodInfoPvPS4_
VEk:__ZN6il2cpp8metadataL7CompareEPK10Il2CppTypeS3_
NGb:__Z18Transfer_BlittableI17RemapPPtrTransferLb0E11ColorRGBA32EvRK29SerializationCommandArgumentsR31RuntimeSerializationCommandInfo
bNh:_HybridDictionary__ctor_m1681134385
Aba:__ZN21ScalableBufferManager11GetInstanceEv
yvf:__ZN5physx18RepXPropertyFilterINS_2Sn17RepXVisitorReaderINS_19PxVehicleEngineDataEEEEclILj526ES3_ffEEvRKNS_14PxPropertyInfoIXT_ET0_T1_T2_EEj
iPb:__Z18Transfer_BlittableI18StreamedBinaryReadILb0EELb1E10ColorRGBAfEvRK29SerializationCommandArgumentsR31RuntimeSerializationCommandInfo
Tdb:__ZN12CubemapArray23VirtualRedirectTransferER17RemapPPtrTransfer
ORi:_TimeSpan_op_LessThan_m1594498345
Jwc:__ZL27GetComponentsImplementationILb0ELi0EEbR10GameObjectbRK17CompareParametersRK39GetComponentsImplementation_ReturnValue
tbj:_Collection_1_set_Item_m2355850893_gshared
UVj:__ZL25UnresolvedVirtualCall_177P12Il2CppObject40CustomAttributeTypedArgument_t2723150157S1_PK10MethodInfo
ESb:__ZN9Scripting36IsSystemCollectionsGenericDictionaryE17ScriptingClassPtr
hyj:_UnityEvent_1_FindMethod_Impl_m322741469_gshared
nJl:__ZL92ConstructionCallDictionary_t686578562_CustomAttributesCacheGenerator_U3CU3Ef__switchU24map24P21CustomAttributesCache
$Fd:__ZN5physx12NpConstraint12actorDeletedEPNS_12PxRigidActorE
ndm:__ZL64Slider_t3903728902_CustomAttributesCacheGenerator_m_WholeNumbersP21CustomAttributesCache
W2k:_Enumerator_get_Current_m2591725252
DWl:__ZL108TouchScreenKeyboard_t731888065_CustomAttributesCacheGenerator_TouchScreenKeyboard_Open_m231964201____secure4P21CustomAttributesCache
taa:__ZL16ReadTypeTreeImplILb0EEbR8TypeTreeRK16TypeTreeIteratorRPKhS6_i
gXh:_Interval_Contains_m110351300_AdjustorThunk
Mng:_Convert_ToInt32_m3048308591
Rv:__ZN25RuntimeAnimatorControllerD2Ev
_em:__ZL77LayoutUtility_t2745813735_CustomAttributesCacheGenerator_U3CU3Ef__amU24cache6P21CustomAttributesCache
ozh:_RectMask2D_OnCanvasHierarchyChanged_m3195492255
b$h:_DateTimeOffset_Equals_m3030958070
Lod:__ZN5physx2Sc8ShapeSim18reinsertBroadPhaseEv
t8a:__ZNK22BuiltinResourceManager21GetResourceInstanceIDEPKN5Unity4TypeERKN4core12basic_stringIcNS4_20StringStorageDefaultIcEEEE
wAc:__Z42Register_UnityEngine_RectOffset_set_bottomv
XIc:__Z28GUIStyleState_CUSTOM_CleanupP12Il2CppObject
NYh:_DateTimeFormatInfo_GetMonthName_m2034512315
d1b:__ZN28LightProbeProxyVolumeContext8CopyFromERKS_
WNb:__ZN18StreamedBinaryReadILb1EE8TransferI13dynamic_arrayI8BitFieldLj4EEEEvRT_PKc17TransferMetaFlags
zpj:_ReadOnlyCollection_1_System_Collections_Generic_IListU3CTU3E_Insert_m2489506856_gshared
dga:__ZN23TransformChangeDispatch32QueueTransformChangeIfHasChangedER18TransformHierarchy
nGh:_SimpleCollator_ToDashTypeValue_m6184468
xml:__Z105RuntimeInvoker_RuntimeObject_Vector3_t3722313464_Vector3_t3722313464_Single_t1397266774_Int32_t2950945753PFvvEPK10MethodInfoPvPS4_
PNa:__ZN7ApiGLES18DeleteRenderbufferERj
vsd:__ZN5physx6shdfnd5ArrayIPvNS0_15InlineAllocatorILj256ENS0_19ReflectionAllocatorINS_16NpConnectorArrayEEEEEE15growAndPushBackERKS2_
rMa:__ZL23ProgramUniformMatrix4fvPK7ApiGLESjiihPKv
YNa:__ZN7ApiGLES13CreateTextureEjj14GraphicsFormatiiiii
Nag:_Array_new_gap_m262136975
fie:__ZN5physx14SingleAABBTaskC2Ev
wta:__ZN9ShaderLab20SerializedSubProgram15MatrixParameter8TransferI14SafeBinaryReadEEvRT_
Lwc:__ZL27GetComponentsImplementationILb0ELi1EEbR10GameObjectbRK17CompareParametersRK39GetComponentsImplementation_ReturnValue
jTh:_X509Store__ctor_m275383717
UGh:_SimpleCollator_LastIndexOfOrdinalIgnoreCase_m2984667899
n0e:_Round_Down_To_Grid
Qze:__ZN5physx12storeIndicesEjjPKjRNS_14PxOutputStreamEb
KOa:__ZN13RenderTexture7ReleaseEv
sOc:__Z18Transfer_BlittableI8JSONReadLb1EN4math12int3_storageEEvRK29SerializationCommandArgumentsR31RuntimeSerializationCommandInfo
Knb:__ZN10MeshFilter23VirtualRedirectTransferER14SafeBinaryRead
zem:__ZL64LayoutGroup_t2436138090_CustomAttributesCacheGenerator_m_PaddingP21CustomAttributesCache
R6f:_X509CertificateEnumerator_MoveNext_m2269241175
Unb:__ZN12MeshRenderer17MainThreadCleanupEv
mfc:__Z8BuildCapILb0EEvjRPhRKN4math8float4x4EPK15LineBuilderDataRKfRKNS2_7_float4ERK11ColorRGBA32SA_bRKNS2_7_float2E
n1j:__ZN6il2cpp2vmL10InitLockedEP11Il2CppClassRKNS_2os12FastAutoLockE
ERa:__ZN22CreateGpuProgramOutput12CreateParamsEv
gS:__ZN10ObjectPoolIN4FMOD7ChannelENS0_8ChannelIEE7GetFreeEi
Lpj:_ReadOnlyCollection_1_System_Collections_IList_Insert_m177536056_gshared
ZNf:_FontData_get_font_m2720086288
SCd:__ZNK5physx18NpArticulationLink11getChildrenEPPNS_18PxArticulationLinkEj
h$g:_InternalEnumerator_1_System_Collections_IEnumerator_get_Current_m548105685_gshared
NEa:__ZNK14GfxContextGLES13GetDefaultFBOEv
ivl:__Z99RuntimeInvoker_Void_t1185182177_UILineInfoU5BU5DU26_t2468919161_Int32_t2950945753_Int32_t2950945753PFvvEPK10MethodInfoPvPS4_
gdg:_Byte_System_IConvertible_ToType_m2251112646
Tbj:_Collection_1_Contains_m692247505_gshared
Zol:__Z81RuntimeInvoker_Char_t3634460470_RuntimeObject_Int32_t2950945753_Int16_t2552820387PFvvEPK10MethodInfoPvPS4_
Aqe:__Z15atomIntegrationfPKPN5physx11PxsBodyCoreEPKPNS_12PxsRigidBodyEjPKNS_2Cm13SpatialVectorEPNS_13PxcSolverBodyEPNS_17PxcSolverBodyDataEPS9_RjSH_
kZh:_DateTime_get_Hour_m4153505178_AdjustorThunk
gVb:__ZN14GraphicsHelper5ClearE13GfxClearFlagsRK10ColorRGBAffjR17ShaderPassContext
tei:_Evidence_Equals_m1478353107
kFj:_CostDelegate__ctor_m4027655829
MYd:__ZN5physx13NpRigidStatic11createShapeERKNS_10PxGeometryEPKPNS_10PxMaterialEtNS_7PxFlagsINS_11PxShapeFlag4EnumEhEE
$qc:__Z13GetImagePixelI10ColorRGBAfET_PKhii13TextureFormat15TextureWrapModeS5_ii
s_i:_List_1_System_Collections_IList_set_Item_m1842844683_gshared
fAj:_ObjectPool_1__ctor_m2535233435_gshared
Pyj:_EventFunction_1__ctor_m4292798223_gshared
Kpk:__ZN6il2cpp2vm6Thread49CheckCurrentThreadForInterruptAndThrowIfNecessaryEv
W4h:_Enum_ToObject_m1136033697
Mea:__ZNSt3__23mapIN9ShaderLab16FastPropertyNameEN18UnityPropertySheet11UnityTexEnvENS_4lessIS2_EENS_9allocatorINS_4pairIKS2_S4_EEEEEixERS9_
SMa:__ZNK13TranslateGLES25GetTextureTargetDimensionEj
ySf:_RankException__ctor_m3453633632
xwd:__ZN5physx11NpAggregate22removeActorAndReinsertERNS_7PxActorEb
ovl:__Z96RuntimeInvoker_Void_t1185182177_Vector3U5BU5DU26_t3038522815_Int32_t2950945753_Int32_t2950945753PFvvEPK10MethodInfoPvPS4_
Ymj:_ReadOnlyCollection_1_System_Collections_IList_Remove_m1842121503_gshared
aye:__ZZL19ExtractHullPolygonsRjRN5physx2Gu9ContainerERKNS0_17ConvexHullBuilderEPS2_S3_EN5Local9FloodFillES3_PKNS0_11AdjTriangleEjPb
abl:__Z32RuntimeInvoker_Double_t594665363PFvvEPK10MethodInfoPvPS4_
dwg:_File_OpenRead_m2936789020
zDc:__Z47Texture2D_CUSTOM_INTERNAL_CALL_GetPixelBilinearP12Il2CppObjectffR10ColorRGBAf
S7:__ZN9Scripting12LogExceptionE21ScriptingExceptionPtriPKcb
Qll:__Z94RuntimeInvoker_Void_t1185182177_RuntimeObject_PlayableGraph_t3515989261_RuntimeObject_IntPtr_tPFvvEPK10MethodInfoPvPS4_
qj:_emscripten_glVertexAttrib4f
eUk:_Logger_GetString_m3669755330
Q5g:_InternalEnumerator_1_System_Collections_IEnumerator_Reset_m4072625129_AdjustorThunk
txa:__ZNSt3__26vectorIN20GpuProgramParameters14ConstantBufferENS_9allocatorIS2_EEE8__appendEj
TTh:_X509CertificateCollection_AddRange_m3683116910
i2g:_InternalEnumerator_1_Dispose_m1837758743_AdjustorThunk
So:FUNCTION_TABLE_vf
Shh:_SinkProviderData__ctor_m1624738837
p2b:__ZN11HaloManager21ReleaseGeometryJobMemEP25DynamicVBOGeometryJobData
Tvg:_DirectoryNotFoundException__ctor_m1689636868
tol:__Z88RuntimeInvoker_RuntimeObject_RuntimeObject_SByte_t1669577662_RuntimeObject_RuntimeObjectPFvvEPK10MethodInfoPvPS4_
fzd:__ZN5physx14NpArticulation26setMaxProjectionIterationsEj
$ld:__ZN5physx3Cct15ObstacleContext14removeObstacleEj
qnj:_ReadOnlyCollection_1_System_Collections_Generic_IListU3CTU3E_get_Item_m978644313_gshared
Ocj:_Collection_1_get_Item_m2253972692_gshared
o_f:_RefEmitPermissionSet_t484390987_marshal_pinvoke_cleanup
oUf:_CustomAttributeTypedArgument_Equals_m2261980307
_F:__ZN7mecanim12statemachine24CreateStateMachineMemoryEPKNS0_20StateMachineConstantERNS_6memory9AllocatorE
dCa:__ZN9GfxDevice18SetGlobalDepthBiasEff
jak:__ZN6il2cpp6icalls8mscorlib6System8MonoType12get_AssemblyEP20Il2CppReflectionType
Hxg:_IsolatedStorageException__ctor_m3386787868
v_c:__ZN4PPtrI12MeshRendererE8TransferI14SafeBinaryReadEEvRT_
kfc:__Z16BuildLineSegmentILb0EEvjRPhRKN4math8float4x4EPK15LineBuilderDataRKfSA_11ColorRGBA32
rWh:_RepeatContext_get_Start_m1076992038
hsj:_ReadOnlyCollection_1_IndexOf_m3669095250_gshared
Ej:_emscripten_glGetPointerv
lWd:__ZNK5physx15NpActorTemplateINS_14PxRigidDynamicEE13getActorFlagsEv
j_f:_PropertyBuilder_SetValue_m3164486317
dij:_Dictionary_2_Do_CopyTo_TisKeyValuePair_2_t3842366416_TisRuntimeObject_m1564656153_gshared
zK:__ZN8Animator22ApplyBuiltinRootMotionEv
cwk:__ZN15dense_hashtableI10KeyWrapperIP18Il2CppGenericClassES3_N6il2cpp8metadata22Il2CppGenericClassHashEN14dense_hash_setIS3_S6_NS3_14EqualsComparerINS5_25Il2CppGenericClassCompareEEENSt3__29allocatorIS3_EEE8IdentityESA_SD_E5clearEv
qVb:__Z26ApplyMaterialPassWithCacheRK18SharedMaterialDataR17ShaderPassContextP6ShaderPN9ShaderLab4PassEibPKNS6_10GrabPassesEPNS6_11SubProgramsEPK22DeviceRenderStateBlock
fFe:__ZN5physx7profile8ZoneImplINS_28PxProfileNameProviderForwardEE17handleBufferFlushEPKhj
zfl:__Z55RuntimeInvoker_DateTime_t3738529785_TimeSpan_t881159249PFvvEPK10MethodInfoPvPS4_
uwd:__ZN5physx2Sc5ActorC2ERNS0_16InteractionSceneEhNS0_14IslandNodeInfo4TypeE
KDg:_MulticastDelegate_KPM_m22863605
P2g:_InternalEnumerator_1_get_Current_m1897120917_AdjustorThunk
iDg:_MonoType_ReorderParamArrayArguments_m2458683451
Tph:_FormatterConverter_ToInt16_m4282804414
hdl:__Z81RuntimeInvoker_Void_t1185182177_Int64_t3736567304_RuntimeObject_Int64_t3736567304PFvvEPK10MethodInfoPvPS4_
NHf:_StandaloneInputModule_ProcessTouchPress_m4019232747
_vg:_FileStream__ctor_m3151488352
Lag:_Array_swap_m547389985
fRg:_ClientSessionInfo_Finalize_m2165787049
cRd:__ZN5physx15NpActorTemplateINS_7PxClothEED2Ev
mVi:_UInt32_ToString_m2420423038
qXi:_List_1_System_Collections_IList_Add_m634558835_gshared
asj:_ReadOnlyCollection_1_System_Collections_IList_get_IsFixedSize_m1923250479_gshared
N6l:__ZL105CanvasRenderer_t2598313366_CustomAttributesCacheGenerator_CanvasRenderer_set_popMaterialCount_m1224846275P21CustomAttributesCache
stg:_Int64_System_IConvertible_ToUInt64_m2815650160
Cwg:_FileStream_get_Length_m426703983
HPd:__ZN5physx2Sc9ClothCore16setRestPositionsEPKNS_6PxVec4E
zdh:_Enumerator__ctor_m1558933899_AdjustorThunk
bol:__Z78RuntimeInvoker_MoveDirection_t1216237838_Single_t1397266774_Single_t1397266774PFvvEPK10MethodInfoPvPS4_
Wve:__ZN5physx2Gu12TriangleMesh4loadERNS_13PxInputStreamE
B2i:_List_1_Remove_m2092085040_gshared
xec:__ZL13MotionHandleriPK27EmscriptenDeviceMotionEventPv
DQ:__ZN12AudioManager5ResetEv
q6k:__Z67RuntimeInvoker_Boolean_t97287965_RuntimeObject_SByteU26_t3619038962PFvvEPK10MethodInfoPvPS4_
v7k:__Z143RuntimeInvoker_Boolean_t97287965_RuntimeObject_Int32_t2950945753_RuntimeObject_SByte_t1669577662_DoubleU26_t1739162597_ExceptionU26_t3600731591PFvvEPK10MethodInfoPvPS4_
Roc:__ZN15DirectorManager18ScheduleGraphStartERK14HPlayableGraph
inj:_ReadOnlyCollection_1_get_Count_m1336304542_gshared
gfm:__ZL111LayoutUtility_t2745813735_CustomAttributesCacheGenerator_LayoutUtility_U3CGetPreferredHeightU3Em__6_m3049688934P21CustomAttributesCache
cLa:__ZN6prcoreL17RemapGenericFloatI17TexFormatRGBAHalf15TexFormatRGHalfEEvPKNS_9InnerInfoE
hkk:__ZNK15dense_hashtableINSt3__24pairIK10KeyWrapperIPK14Il2CppAssemblyEPK22Il2CppMonoAssemblyNameEES6_N6il2cpp5utils11PointerHashIS4_EEN14dense_hash_mapIS6_SA_SF_NS6_14EqualsComparerINS0_8equal_toIS5_EEEENS0_9allocatorISB_EEE9SelectKeyESK_SM_E10test_emptyEj
ABk:__ZN6il2cpp6icalls8mscorlib6System11Environment20GetWindowsFolderPathEi
pmg:_Convert_ToBoolean_m2833752130
aXe:_UNITY_FT_Stream_ReadFields
OE:__ZN7mecanim5human18HumanPoseBlendNodeERNS0_9HumanPoseEPS1_f
wWe:_UNITY_FT_RoundFix
__:__ZN23CloudWebServicesManager23VirtualRedirectTransferER17RemapPPtrTransfer
hIk:_GC_is_heap_ptr
emj:_ReadOnlyCollection_1__ctor_m2122524688_gshared
Wy:__Z14resize_trimmedINSt3__26vectorI24CompressedAnimationCurve13stl_allocatorIS2_L18MemLabelIdentifier26ELi16EEEEEvRT_j
Led:__ZNK5physx2Gu15HeightFieldUtil12traceSegmentI24ConvexVsHeightfieldSweepLb0ELb0ELb1EEEvRKNS_6PxVec3ES6_PT_PS5_
eJh:_ASN1_DecodeTLV_m1200977460
rSk:_UnityEventBase_PrepareInvoke_m1785382128
Lue:__ZNK5physx12PxConvexMesh19getConcreteTypeNameEv
Dpj:_ReadOnlyCollection_1_System_Collections_Generic_IListU3CTU3E_set_Item_m1584697503_gshared
Wnb:__ZNK12MeshRenderer22GetTypeVirtualInternalEv
Seg:_Char_System_IConvertible_ToUInt32_m3901815580
gAh:_Scrollbar_set_onValueChanged_m346467699
kfd:__ZN5physx2Gu19gjkLocalPenetrationINS0_9TriangleVENS0_17ShrunkConvexHullVEEEjRKT_RKT0_RKNS_6shdfnd3aos6FloatVERNSB_5Vec3VESG_SG_RSC_PhSI_Rhb
Hfl:__Z157RuntimeInvoker_Int32_t2950945753_RuntimeObject_Int32_t2950945753_Int32_t2950945753_Int32_t2950945753_SByte_t1669577662_SByte_t1669577662_Int32U26_t1369213839PFvvEPK10MethodInfoPvPS4_
Kzj:_ListPool_1_Release_m957266927_gshared
$Jl:__ZL105ConfigHandler_t4192437216_CustomAttributesCacheGenerator_ConfigHandler_ValidatePath_m3895556516____paths1P21CustomAttributesCache
jT:__ZN4FMOD6System17setSoftwareFormatEi17FMOD_SOUND_FORMATii18FMOD_DSP_RESAMPLER
Sgd:__ZN5physx2Gu15GJKLocalRayCastERNS0_9TriangleVERNS0_4BoxVERKNS_6shdfnd3aos6FloatVERKNS6_5Vec3VESC_RS7_RSA_SE_fb
nye:__ZN5physx18AdjacenciesBuilderC2Ev
Jod:__ZN5physx2Sc13ShapeIterator4initERKNS0_8ActorSimE
Zra:__ZN14SafeBinaryRead19TransferSTLStyleMapINSt3__23mapIN4core12basic_stringIcNS3_20StringStorageDefaultIcEEEES7_NS1_4lessIS7_EE13stl_allocatorINS1_4pairIKS7_S7_EEL18MemLabelIdentifier1ELi16EEEEEEvRT_17TransferMetaFlags
u9e:__ZN2UI6Canvas27UpdateEventIndexesRecursiveERi
U$:__ZN11UnityEngine15CloudWebService16SessionContainer21PrepareDataErrorEventERN4core12basic_stringIcNS2_20StringStorageDefaultIcEEEE
$Ef:_ExecuteEvents_get_pointerUpHandler_m3515704212
Nfg:_ArrayList_set_Item_m2003485935
pCk:__ZNSt3__218uninitialized_copyIPNS_4pairIK10KeyWrapperIPK19Il2CppGenericMethodEP10MethodInfoEESB_EET0_T_SD_SC_
h4f:_SatelliteContractVersionAttribute__ctor_m3630863995
$Pl:__ZL79Convert_t2465617642_CustomAttributesCacheGenerator_Convert_ToUInt64_m3102114524P21CustomAttributesCache
UGf:_MouseButtonEventData_PressedThisFrame_m1060658845
ACf:_AxisEventData_get_moveVector_m270528189
qLb:__Z19TransferField_ArrayI19StreamedBinaryWriteILb0EE27Converter_SimpleNativeClassI8GUIStyleEEvRK23StaticTransferFieldInfoR31RuntimeSerializationCommandInfoRT0_
pnj:_ReadOnlyCollection_1_System_Collections_Generic_IListU3CTU3E_RemoveAt_m3969985996_gshared
cPj:_SymmetricTransform_CFB_m1755507252
TAf:__ZN5physx46solveTankInternaDynamicsEnginePlusDrivenWheelsERKNS_19ImplicitSolverInputEPKbPKfPNS_20ImplicitSolverOutputE
HKd:__ZN5physx14NpArticulationC2Ev
LBm:_emscripten_glCopyTexSubImage2D__wrapper
xib:__ZNK13ScreenManager12GetIsFocusedEv
VPf:_GraphicRegistry_GetGraphicsForCanvas_m4219276355
Erg:_NumberFormatter_FastToDecHex_m699829267
gOc:__Z35Transfer_Blittable_FixedBufferFieldI8JSONReadiEvRK29SerializationCommandArgumentsR31RuntimeSerializationCommandInfo
dwa:__ZN15SerializeTraitsIN9ShaderLab16FastPropertyNameEE8TransferI19StreamedBinaryWriteILb0EEEEvRS1_RT_
LYc:__ZN22ParticleSystemRenderer16UpdateCachedMeshEv
IKl:__ZL59StreamingContext_t3711869237_CustomAttributesCacheGeneratorP21CustomAttributesCache
m9j:__ZNSt3__213__vector_baseIN6il2cpp2os19SocketHandleWrapperENS_9allocatorIS3_EEED2Ev
rCl:__ZL48_Type_t3588564251_CustomAttributesCacheGeneratorP21CustomAttributesCache
$5l:__ZL107TerrainData_t657004131_CustomAttributesCacheGenerator_TerrainData_GetAlphamapResolutionInternal_m1173327220P21CustomAttributesCache
$_c:__ZN12LightsModule8TransferI24GenerateTypeTreeTransferEEvRT_
Kam:__ZL81FontUpdateTracker_t1839077620_CustomAttributesCacheGenerator_U3CU3Ef__mgU24cache0P21CustomAttributesCache
Hc:invoke_viiffi
HEl:__ZL103RegionInfo_t1090270226_CustomAttributesCacheGenerator_RegionInfo_t1090270226____NativeName_PropertyInfoP21CustomAttributesCache
hcc:__ZN13sorted_vectorINSt3__24pairIN4core12basic_stringIcNS2_20StringStorageDefaultIcEEEEPK17MessageIdentifierEEN10vector_mapIS6_S9_NS0_4lessIS6_EENS0_9allocatorISA_EEE13value_compareESF_E10insert_oneERKSA_
yK:__ZNSt3__227__insertion_sort_incompleteIRPFbPKN8Animator11AnimatorJobES4_EPS4_EEbT0_S9_T_
F$:__ZNSt3__26__treeINS_12__value_typeIN4core12basic_stringIcNS2_20StringStorageDefaultIcEEEEjEENS_19__map_value_compareIS6_S7_NS_4lessIS6_EELb1EEE13stl_allocatorIS7_L18MemLabelIdentifier88ELi16EEE4findIS6_EENS_15__tree_iteratorIS7_PNS_11__tree_nodeIS7_PvEEiEERKT_
a4f:_ResourceSet_ReadResources_m3663669011
UUk:_Mathf_CeilToInt_m432108984
Qdb:__ZNK12CubemapArray20GetRuntimeMemorySizeEv
xRi:_TimeSpan_FromHours_m1109641064
dTa:__ZN9GfxDevice5FlushEv
uua:__Z14resize_trimmedINSt3__26vectorIN9ShaderLab18SerializedPropertyENS0_9allocatorIS3_EEEEEvRT_j
hVj:__ZL25UnresolvedVirtualCall_138P12Il2CppObject17Color_t2555686324faaPK10MethodInfo
iGb:__Z18Transfer_BlittableI17RemapPPtrTransferLb0EN4math12int3_storageEEvRK29SerializationCommandArgumentsR31RuntimeSerializationCommandInfo
P5c:__Z20UpdateWholeSheet2TplIL27ParticleSystemCurveEvalMode3ELS0_3EEvfRK11MinMaxCurveS3_RK23ParticleSystemParticlesPf
V$d:__ZN5physx6shdfnd8PoolBaseINS_2Sc9ActorPairENS0_19ReflectionAllocatorIS3_EEE12allocateSlabEv
j7j:__ZN6il2cpp2vm13MetadataCache38GetMethodInfoFromMethodDefinitionIndexEi
MDf:_EventSystem_set_current_m38955169
brh:_TypeMetadata__ctor_m646635308
TTj:__ZL24UnresolvedVirtualCall_68P12Il2CppObjectS0_iS0_S0_S0_S0_S0_S0_PK10MethodInfo
nFj:_CostDelegate_EndInvoke_m2797921932
vjb:__ZN10VertexData8TransferI24GenerateTypeTreeTransferEEvRT_
O3h:_Double_IsInfinity_m820013146
bcg:__ZN21InterfaceFuncInvoker1I19Decimal_t2948259380P12Il2CppObjectE6InvokeEjP11Il2CppClassS2_S2_
WBk:__ZN13Il2CppHashMapIPK19Il2CppGenericMethodP10MethodInfoN6il2cpp8metadata23Il2CppGenericMethodHashENS6_26Il2CppGenericMethodCompareENSt3__29allocatorINS9_4pairIK10KeyWrapperIS2_ES4_EEEEEC2EjRKS7_RKS8_
pKi:_List_1_TrimExcess_m440552561_gshared
l0k:_Screen_get_dpi_m495672463
_Ni:_UTF8Encoding_InternalGetByteCount_m2120178851
R3k:_Vector3__ctor_m1719387948
Kvf:__Z31getPxVehicleEngineDataMMaxOmegaPKN5physx19PxVehicleEngineDataE
a7b:__ZL10CullLightsRK22SceneCullingParametersR11CullResults
ppg:_Convert_ToUInt64_m3170916409
Z2j:_MainModule_set_startSize_m1275429743_AdjustorThunk
VF:__ZN7mecanim12statemachine20GetBlendTreeConstantERKNS0_13StateConstantEi
Y0d:__ZN5physx7NpScene21setDominanceGroupPairEhhRKNS_20PxDominanceGroupPairE
dtg:_Int64_System_IConvertible_ToInt16_m4062196970_AdjustorThunk
EDg:_MonoType_GetGenericTypeDefinition_m3201894896
pgc:__Z40GetTemporaryCachePathApplicationSpecificv
jAa:__ZN9GfxDevice16EndAsyncJobFrameEv
$pl:__Z99RuntimeInvoker_Int32_t2950945753_Ray_t3785851493_RuntimeObject_Single_t1397266774_Int32_t2950945753PFvvEPK10MethodInfoPvPS4_
Eik:__ZNK15dense_hashtableINSt3__24pairIK10KeyWrapperINS1_IPK12PropertyInfoP11Il2CppClassEEEjEES9_17ReflectionMapHashIS8_EN14dense_hash_mapIS9_jSD_NS9_14EqualsComparerINS0_8equal_toIS8_EEEENS0_9allocatorISB_EEE9SelectKeyESI_SK_E10test_emptyERK30dense_hashtable_const_iteratorISB_S9_SD_SM_SI_SK_E
mZe:_UNITY_tt_face_load_hhea
aWf:_DerivedType_get_Assembly_m2979298667
QMe:__ZN14SplatMaterials20UpdateSplatMaterialsEPK11TerrainDataP8Materialb
Bl:___syscall3
OUd:__ZNK5physx15NpActorTemplateINS_16PxParticleSystemEE7getNameEv
El:___syscall6
GBa:__ZN9GfxDevice15GetNextCPUFenceEv
Gl:___syscall4
T0:__ZN11UnityEngine15CloudWebService20WebRequestRestClient17GetResponseStatusEv
snh:_ReturnMessage__ctor_m2352989078
DLf:_ColorTween_ValidTarget_m376919233
qBb:__ZNSt3__26__treeINS_12__value_typeIN4core12basic_stringIcNS2_20StringStorageDefaultIcEEEEPN16MemoryFileSystem4NodeEEENS_19__map_value_compareIS6_SA_NS_4lessIS6_EELb1EEE13stl_allocatorISA_L18MemLabelIdentifier55ELi16EEE7destroyEPNS_11__tree_nodeISA_PvEE
QAl:__ZL70RuntimeArray_CustomAttributesCacheGenerator_Array_get_Length_m21610649P21CustomAttributesCache
Mxk:__ZN6il2cpp2vm3RCW14QueryInterfaceILb1EEEP14Il2CppIUnknownP15Il2CppComObjectRK10Il2CppGuid
MQg:_TlsServerCertificateRequest__ctor_m1334974076
Png:_Convert_ToInt32_m1613163543
Qvl:__Z52RuntimeInvoker_TimeSpan_t881159249_Int32_t2950945753PFvvEPK10MethodInfoPvPS4_
Rxh:_MatEntry__ctor_m1949610076
Rmj:_ReadOnlyCollection_1_System_Collections_ICollection_CopyTo_m3127175806_gshared
Vl:_emscripten_glShaderBinary
h0l:__ZL80Logger_t274032455_CustomAttributesCacheGenerator_U3ClogEnabledU3Ek__BackingFieldP21CustomAttributesCache
f1:__ZN15DownloadHandler19OnFinishReceiveDataEv
tUi:_UInt16_ToString_m760649087
nAb:__ZNK20LocalFileSystemPosix6ExistsERK13FileEntryData
igl:__Z21RuntimeInvoker_Guid_tPFvvEPK10MethodInfoPvPS4_
zil:__Z46RuntimeInvoker_CipherAlgorithmType_t1174400495PFvvEPK10MethodInfoPvPS4_
Aud:__ZN5physx35NpArticulationJointGetBodiesFromScbERNS_3Scb17ArticulationJointERPNS0_4BodyES5_
eue:__ZNK5physx2Sc15ClothFabricCore16getTetherLengthsEPfj
_Ok:_Camera_GetAllCameras_m668492922
r1l:__ZL109Physics_t2310948930_CustomAttributesCacheGenerator_Physics_RaycastAll_m3084184534____queryTriggerInteraction4P21CustomAttributesCache
Scf:__Z58Register_UnityEngine_Canvas_GetETC1SupportedCanvasMaterialv
NRi:_TimeSpan_op_Inequality_m2467851530
PNb:__ZN17AnimationCurveTplIfE8TransferI18StreamedBinaryReadILb1EEEEvRT_
dhj:_Array_Sort_TisUIVertex_t4057497605_m3996333845_gshared
tRg:_Context_get_ReceivedConnectionEnd_m4011125537
Hci:_ToBase64Transform_get_CanReuseTransform_m702204640
kff:__ZN18UnityConnectClientD2Ev
kll:__Z53RuntimeInvoker_PropertyName_t3749835189_RuntimeObjectPFvvEPK10MethodInfoPvPS4_
zFg:_SByte_System_IConvertible_ToDouble_m2381680501
ebg:_Swapper_BeginInvoke_m1688449973
Xlk:_il2cpp_set_data_dir
N5d:__ZN5physx2Sc13ConstraintSim8getForceERNS_6PxVec3ES3_
T0l:__ZL78Physics_t2310948930_CustomAttributesCacheGenerator_Physics_Raycast_m4145022031P21CustomAttributesCache
s_a:__ZN16LevelGameManager23VirtualRedirectTransferER19StreamedBinaryWriteILb0EE
Dil:__Z81RuntimeInvoker_Void_t1185182177_RuntimeObject_Int32_t2950945753_Int64_t3736567304PFvvEPK10MethodInfoPvPS4_
qjb:__Z32TransferEnumWithNameForceIntSizeI14SafeBinaryRead16GfxPrimitiveTypeEvRT_RT0_PKc17TransferMetaFlags
raa:__ZN13dynamic_arrayIcLj1EE6insertEPcPKcS3_
E_l:__ZL92Mesh_t3648964284_CustomAttributesCacheGenerator_Mesh_SetTriangles_m2205169959____baseVertex3P21CustomAttributesCache
Shk:__ZN15dense_hashtableINSt3__24pairIK10KeyWrapperINS1_IPK11Il2CppImageP11Il2CppClassEEEjEES9_17ReflectionMapHashIS8_EN14dense_hash_mapIS9_jSD_NS9_14EqualsComparerINS0_8equal_toIS8_EEEENS0_9allocatorISB_EEE9SelectKeyESI_SK_E5clearEv
Ldl:__Z86RuntimeInvoker_Boolean_t97287965_Int16_t2552820387_Int16_t2552820387_Int32_t2950945753PFvvEPK10MethodInfoPvPS4_
yOl:__ZL80Convert_t2465617642_CustomAttributesCacheGenerator_Convert_ToBoolean_m2807110707P21CustomAttributesCache
zad:__ZN5physx15PxGeometryQuery18computePenetrationERNS_6PxVec3ERfRKNS_10PxGeometryERKNS_11PxTransformES6_S9_
czj:_IndexedSet_1_IndexOf_m241693686_gshared
Vkj:_Collection_1_System_Collections_IList_Add_m1802516464_gshared
gof:__ZN5physx35PxVehicleWheelsDynDataGeneratedInfoC2Ev
gFg:_RuntimeMethodHandle_Equals_m3301340296_AdjustorThunk
KVi:_UInt64_System_IConvertible_ToSingle_m925613075_AdjustorThunk
PJe:__ZN5Unity12PhysicsQueryC2Ev
rTj:__ZL24UnresolvedVirtualCall_40P12Il2CppObjectS0_PK10MethodInfo
dAj:_ListPool_1__cctor_m704263611_gshared
jPb:__Z18Transfer_BlittableI18StreamedBinaryReadILb0EELb0E4AABBEvRK29SerializationCommandArgumentsR31RuntimeSerializationCommandInfo
vtb:__ZN24GenerateTypeTreeTransfer19TransferSTLStyleMapINSt3__28multimapIN4core12basic_stringIcNS3_20StringStorageDefaultIcEEEE4PPtrI6ObjectENS1_4lessIS7_EE13stl_allocatorINS1_4pairIKS7_SA_EEL18MemLabelIdentifier52ELi16EEEEEEvRT_17TransferMetaFlags
jM:__ZN16MecanimAnimation24DeleteAnimatedPropertiesERP26IAnimatedPropertyEvaluator
$Yj:_CanvasRenderer_SetMaterial_m824577244
N_c:__ZN11ColorModule8TransferI24GenerateTypeTreeTransferEEvRT_
KZb:__Z14DrawGUITextureRK5RectTIfEP7Texture11ColorRGBA32P8Materiali
dXl:__ZL101Quaternion_t2301928331_CustomAttributesCacheGenerator_Quaternion_LookRotation_m3197602968____upwards1P21CustomAttributesCache
kWl:__ZL84RectOffset_t1369453676_CustomAttributesCacheGenerator_RectOffset_Cleanup_m2552807639P21CustomAttributesCache
lnj:_ReadOnlyCollection_1_System_Collections_Generic_ICollectionU3CTU3E_Add_m2686599243_gshared
kJ:__ZN9BlobWrite8TransferI22OffsetPtrArrayTransferIKN4math7_float4EEEEvRT_PKc17TransferMetaFlags
x_b:__ZN22RenderingCommandBuffer20ExecuteCommandBufferER17ShaderPassContextR15RenderNodeQueuejP13dynamic_arrayINSt3__24pairIN9ShaderLab16FastPropertyNameEP13RenderTextureEELj4EE16ComputeQueueTypeSA_
S2k:_Transform_IsChildOf_m224006092
iab:__ZN15TextureSettings8TransferI24GenerateTypeTreeTransferEEvRT_
RNc:__ZN9JSONWrite8TransferI4AABBEEvRT_PKc17TransferMetaFlags
HYa:__ZN25MultiBlocksMemoryFileData9SetLengthEy
dIi:_List_1_Clear_m2154023298_gshared
vCf:_AbstractEventData_get_used_m2991176710
p1g:_InternalEnumerator_1_get_Current_m3191242573_AdjustorThunk
skm:_Joystick_UpdateVirtualAxes_m1439422241
nql:__Z94RuntimeInvoker_Void_t1185182177_ObjectU5BU5DU26_t712384779_Int32_t2950945753_Int32_t2950945753PFvvEPK10MethodInfoPvPS4_
Jtl:__Z71RuntimeInvoker_Void_t1185182177_CustomAttributeNamedArgument_t287865710PFvvEPK10MethodInfoPvPS4_
lre:__ZNK18ScBeforeSolverTask7getNameEv
_hj:_Dictionary_2_Do_ICollectionCopyTo_TisRuntimeObject_m1855083806_gshared
xPj:_Aes__ctor_m178909601
Teb:__ZNK9Texture2D20GetRuntimeMemorySizeEv
cFc:__ZN11Marshalling39CreateNullExceptionForUnityEngineObjectE18ScriptingObjectPtr
vee:__ZN5physx14solve1D4_BlockEPKNS_23PxcSolverConstraintDescEjRNS_16PxcSolverContextE
XJc:__ZN5Unity9rapidjson13GenericReaderINS0_4UTF8IcEES3_13JSONAllocatorE9ParseTrueILj0ENS0_19GenericStringStreamIS3_EENS0_15GenericDocumentIS3_S4_S4_EEEEvRT0_RT1_
L3k:_Vector2_op_Implicit_m4260192859
cn:_emscripten_glUniform2iv
_Og:_CipherSuite_get_Context_m1621551997
TDd:__ZN5physx2Sc8ShapeSim17onTransformChangeEv
Yad:__ZL33GeomMTDCallback_ConvexHeightFieldRN5physx6PxVec3ERfRKNS_10PxGeometryERKNS_11PxTransformES5_S8_
xDi:_Enumerator_Dispose_m1204547613_AdjustorThunk
TTe:_UNITY_FT_Outline_Transform
tDc:__Z60Register_UnityEngine_Sprites_DataUtility_Internal_GetMinSizev
Kqc:__ZNSt3__26vectorI5RectTIfENS_9allocatorIS2_EEE8__appendEj
Q1j:__ZN6il2cpp2vm5Class10GetMethodsEP11Il2CppClassPPv
etf:__ZN5physx6shdfnd5ArrayINS_17PxVehicleTireDataENS0_15InlineAllocatorILj320ENS0_19ReflectionAllocatorIS2_EEEEE8recreateEj
yif:__ZNK25UnityWebRequestJavaScript17GetUploadProgressEv
_2b:__Z30AddDefaultStreamsToMeshBuffersR9GfxDeviceR11MeshBuffersRK16DrawBuffersRange17ShaderChannelMaskS6_
ARc:__Z43ParticleSystemRenderer_RenderMultipleMeshesIL21SpriteMaskInteraction1EEvRK15RenderNodeQueueRK18RenderMultipleData17ShaderChannelMask
NYi:_List_1_GetEnumerator_m1430071802_gshared
bNa:__ZN7ApiGLES17DeleteFramebufferERN2gl6HandleILNS0_10ObjectTypeE9EEES3_
GQa:__ZN15UniformTFMethod13MapBoneBufferEj
p8e:__ZN2UI14CanvasRendererD2Ev
Djj:_Array_InternalArray__get_Item_TisParameterModifier_t1461694466_m29553316_gshared
qSf:_OverflowException__ctor_m4029085969
vtg:_Int64_CompareTo_m1928360444_AdjustorThunk
Cje:__ZN5physx26PxcPCMContactCapsuleConvexERKNS_2Gu13GeometryUnionES3_RKNS_11PxTransformES6_RKfRNS_10PxcNpCacheERNS0_13ContactBufferE
hkf:__ZN5physx28PxVehicleComputeSprungMassesEjPKNS_6PxVec3ERS1_fjPf
olk:__ZN15dense_hashtableINSt3__24pairIK10KeyWrapperINS1_IPK9EventInfoP11Il2CppClassEEEjEES9_17ReflectionMapHashIS8_EN14dense_hash_mapIS9_jSD_NS9_14EqualsComparerINS0_8equal_toIS8_EEEENS0_9allocatorISB_EEE9SelectKeyESI_SK_E15set_deleted_keyERKSB_
oUb:__Z9SetupArgviPPKc
dog:_Convert_ToInt64_m2075031821
awb:__ZN13dynamic_arrayIP10UnitySceneLj4EE9push_backERKS1_
E0g:_InternalEnumerator_1__ctor_m236665673_gshared
$oh:_RemotingException__ctor_m1015537352
GCm:_glTexParameteri__wrapper
yxd:__ZN5physx10PxsContext17addParticleSystemEPNS_15PxsParticleDataERKNS_26PxvParticleSystemParameterEb
uvd:__ZN5physx3Scb5Scene13addRigidNoSimINS0_4BodyELb1ELb1EEEvRT_RNS0_13ObjectTrackerE
Lca:__ZN12ImmediatePtrI10GameObjectE8TransferI19StreamedBinaryWriteILb0EEEEvRT_
Udb:__ZN12CubemapArray23VirtualRedirectTransferER24GenerateTypeTreeTransfer
$Sj:__ZL24UnresolvedVirtualCall_22P12Il2CppObjectS0_iS0_S0_S0_PK10MethodInfo
Zaa:__ZN12FileAccessor4OpenER15FileSystemEntry14FilePermission16FileAutoBehavior
I3a:__ZNSt3__26vectorI4PPtrI6ShaderE13stl_allocatorIS3_L18MemLabelIdentifier53ELi16EEE8__appendEj
wAk:__ZN6il2cpp2os9Directory6CreateERKNSt3__212basic_stringIcNS2_11char_traitsIcEENS2_9allocatorIcEEEEPi
kva:__ZN4PPtrI6ShaderE8TransferI18StreamedBinaryReadILb0EEEEvRT_
igd:__ZL19sweepBoxVsTrianglesjPKN5physx10PxTriangleERKNS_2Gu3BoxERKNS_6PxVec3EfRNS_10PxSweepHitENS_7PxFlagsINS_9PxHitFlag4EnumEtEEbPKj
cga:__ZN23TransformChangeDispatch32QueueTransformChangeIfHasChangedERK15TransformAccess
$cb:__ZNSt3__26vectorINS_4pairIN9ShaderLab16FastPropertyNameEN18UnityPropertySheet11UnityTexEnvEEENS_9allocatorIS6_EEE21__push_back_slow_pathIKS6_EEvRT_
Hck:_WheelHit_get_forwardSlip_m320593428_AdjustorThunk
qYa:__ZN15ArchiveReadFile5WriteEyPKvPy
ISf:_Assembly_get_FullName_m293988418
Luc:__Z15WeldVertexArrayR13dynamic_arrayI8Vector3fLj4EERS_I12BoneWeights4Lj4EERS_IjLj4EES7_
B:tempValue
Jdc:__Z29StdTemplateConversionFunctionIaiEbPvR14SafeBinaryRead
TLk:__ZN6il2cpp8metadata24Il2CppGenericContextHash4HashEPK20Il2CppGenericContext
X0g:_InternalEnumerator_1_get_Current_m356936020_AdjustorThunk
Tcj:_Collection_1_CheckWritable_m1583234367_gshared
Ksg:_Int32_ToString_m141394615_AdjustorThunk
y8:__Z29scripting_class_from_fullnamePKcS0_S0_
xvg:_Directory_GetCurrentDirectory_m219218555
y7f:_SmallXmlParser_UnexpectedEndError_m1914362401
sG:__ZN26AnimatorControllerPlayable18DeallocateBindingsEv
nKl:__ZL61FormatterTypeStyle_t3400733584_CustomAttributesCacheGeneratorP21CustomAttributesCache
fbd:__ZN5physx2Gu29ConvexVsMeshContactGeneration20generateLastContactsEv
uYc:__ZNK4PPtrI12MeshRendererEptEv
lml:__Z85RuntimeInvoker_Boolean_t97287965_Ray_t3785851493_Single_t1397266774_Int32_t2950945753PFvvEPK10MethodInfoPvPS4_
gsd:__ZNK5physx2Gu22SupportMapRelativeImplINS0_4BoxVEE14doSupportSweepERKNS_6shdfnd3aos5Vec3VE
UFa:__ZN14DelayedDeletorI15dense_hashtableINSt3__24pairIK9TextureIDiEES3_14GfxGenericHashIS3_EN14GfxDoubleCacheIS3_iS7_NS1_8equal_toIS3_EEN31GfxDoubleCacheConcurrencyPolicy11LocklessGetE42GfxDoubleCacheDefaultEmptyDeletedGeneratorIS3_EE9SelectKeyESA_13stl_allocatorIS5_L18MemLabelIdentifier24ELi16EEEEclEv
kW:__ZN11AudioSource19CreateOpenALRolloffEfff
gZe:_UNITY_FT_Stream_ReadAt
ISd:__ZN5physx2Sc17ParticleSystemSim16getParticleStateEv
A$j:_Physics_Raycast_m3336206959
rqe:__ZN5physx6shdfnd5ArrayINS_25PxsCompoundContactManagerENS0_19ReflectionAllocatorIS2_EEE8recreateEj
MQi:_TimeSpan__ctor_m1896986612_AdjustorThunk
s6j:__ZN15dense_hashtableINSt3__24pairIK10KeyWrapperIN6il2cpp5utils13dynamic_arrayIPK10Il2CppTypeLj4EEEEPFvvEEESA_NS3_8metadata19Il2CppSignatureHashEN14dense_hash_mapISA_SD_SG_NSA_14EqualsComparerINSF_22Il2CppSignatureCompareEEENS0_9allocatorISE_EEE9SelectKeyESK_SM_E9set_valueEPSE_RKSE_
_kf:__ZN5physx15PxVehicleWheels5setupEPNS_9PxPhysicsEPNS_14PxRigidDynamicERKNS_22PxVehicleWheelsSimDataEjj
W5f:_ArgumentException__ctor_m1216717135
nZk:_Ray_ToString_m1732834890_AdjustorThunk
m6c:__Z19UpdateSingleRow2TplIL27ParticleSystemCurveEvalMode3ELS0_1EEvfRK11MinMaxCurveS3_RK23ParticleSystemParticlesPfbiii
Ud:_glReadBuffer
i_i:_List_1_System_Collections_IList_Contains_m3860993176_gshared
nhe:__ZN5physx14PxsAABBManagerC2ERNS_2Cm13EventProfilerERNS_19PxcScratchAllocatorE
cX:__ZN11AudioModule22CreateAudioClipFromWWWEP10IWWWStreamPKcbbi
Hkc:__ZN9Texture2DC2E10MemLabelId18ObjectCreationMode
hrh:_ObjectRecord_get_IsUnsolvedObjectReference_m1163921033
xUi:_UInt32_System_IConvertible_ToBoolean_m1763673183_AdjustorThunk
Sof:__Z48getPxVehicleTireLoadFilterDataMMinNormalisedLoadPKN5physx27PxVehicleTireLoadFilterDataE
a0k:_SceneManager_INTERNAL_CALL_GetActiveScene_m1427626561
lSk:_UnityEvent_AddListener_m2276267359
vaf:__Z13RegisterClassIN2UI11CanvasGroupEEvv
yjl:__Z35RuntimeInvoker_RangeInt_t2094684618PFvvEPK10MethodInfoPvPS4_
IMj:_GUIStyle_Draw_m810654952
wgc:__ZN6prcoreL11inner_clearILj4EEEvPhjjj
C1l:__ZL102Rigidbody_t3916780224_CustomAttributesCacheGenerator_Rigidbody_INTERNAL_get_angularVelocity_m526824782P21CustomAttributesCache
tmh:_MethodCall_get_Args_m148309537
Wmh:_DictionaryEnumerator_get_Value_m2166220004
hRj:_PCMReaderCallback_BeginInvoke_m3391809637
JQl:__ZL72LoaderOptimization_t1484956347_CustomAttributesCacheGenerator_DomainMaskP21CustomAttributesCache
i8k:__Z74RuntimeInvoker_Void_t1185182177_RuntimeObject_StreamingContext_t3711869237PFvvEPK10MethodInfoPvPS4_
BHk:_GC_initialize_offsets
aoa:__ZNK8Playable6HandleEv
Msh:_SetPropertyUtility_SetColor_m2229203028
rtm:___cxa_guard_abort
hah:_Enumerator_MoveNext_m481679286_gshared
c4b:__Z30SetupBakedOcclusionForGeometrybRK26SharedLightmapSettingsDataRK15LightmapIndicesR17ShaderPassContext
d9:__ZN14MessageHandler28MessageIDToMessageIdentifierEi
Rjb:__ZNK11SpriteAtlas20GetRuntimeRenderDataEPK6Sprite
nvg:_FileSystemInfo__ctor_m3035148496
$Qg:_Context_get_SessionId_m1086671147
yNk:_AssetBundleCreateRequest_t3119663542_marshal_pinvoke_cleanup
asg:_Int32_System_IConvertible_ToDecimal_m2190376994_AdjustorThunk
bEi:_KeyValuePair_2_set_Key_m2121548577_AdjustorThunk
qwl:__Z46RuntimeInvoker_RefEmitPermissionSet_t484390987PFvvEPK10MethodInfoPvPS4_
oll:__Z57RuntimeInvoker_PropertyName_t3749835189_Int32_t2950945753PFvvEPK10MethodInfoPvPS4_
J4e:__ZN20TextRenderingPrivate15DynamicFontData36GetFaceForCharacterIfAvailableInFontERKNS_7FontRefERK13dynamic_arrayI4PPtrIN13TextRendering4FontEELj4EEj
qE:__ZN7mecanim14ValueArrayCopyILb0EEEvPKNS_10ValueArrayEPS1_
UN:__Z51Register_UnityEngine_Animator_get_hasBoundPlayablesv
p8i:_Collection_1_CopyTo_m3142835220_gshared
le:emscriptenWebGLGetUniform
Ap:FUNCTION_TABLE_iiiiiiiiiii
MMj:_GUI_CallWindowDelegate_m3309453386
yeh:_ValueCollection_System_Collections_IEnumerable_GetEnumerator_m2535969909_gshared
zXe:_cff_set_mm_blend
FXk:_PlayableHandle_GetHashCode_m1297878485_AdjustorThunk
mid:__ZN5physx2Gu19sweepCapsuleCapsuleERKNS0_7CapsuleES3_RKNS_6PxVec3EfRfRS4_S8_jRt
Pce:__ZN5physx2Gu29EPASupportMapPairRelativeImplINS0_9TriangleVENS0_11ConvexHullVEED0Ev
fab:__Z32TransferEnumWithNameForceIntSizeI14SafeBinaryRead13TextureFormatEvRT_RT0_PKc17TransferMetaFlags
J8b:__ZL10CleanUpJobP20CullingGroupsJobData
Z2b:__Z20IsRunningNativeTestsv
ivg:_DirectoryInfo_get_Exists_m3142069876
Wqb:__ZN11TimeManager23VirtualRedirectTransferER17RemapPPtrTransfer
Eue:__ZN5physx13BigConvexData4LoadERNS_13PxInputStreamE
BZb:__ZN13RenderManager15BatchModeUpdateEv
Nuj:_Predicate_1__ctor_m327447107_gshared
gTh:_X509Chain_get_CertificateAuthorities_m804805415
$ib:__ZN14SafeBinaryRead21TransferSTLStyleArrayI13dynamic_arrayI8Vector2fLj4EEEEvRT_17TransferMetaFlags
DFl:__ZL123GenericTypeParameterBuilder_t1988827940_CustomAttributesCacheGenerator_GenericTypeParameterBuilder_IsSubclassOf_m2266644074P21CustomAttributesCache
Oca:__ZN17PersistentManager51InstanceIDToLocalSerializedObjectIdentifierInternalEiR31LocalSerializedObjectIdentifier
o$k:_Vector2_get_one_m738793577
brc:__ZNK4Mesh14GetIndexFormatEv
F3k:_Vector2_get_magnitude_m2752892833_AdjustorThunk
jDi:_GenericEqualityComparer_1__ctor_m4072188982_gshared
DEd:__ZN5physx2Sc8ActorSim24postDominanceGroupChangeEv
YHc:__ZN8GUIState12GetControlIDEi9FocusType
cxk:__ZN14dense_hash_mapI10KeyWrapperIP12Il2CppObjectEN6il2cpp2gc9CachedCCWENS4_5utils11PointerHashIS1_EENS3_14EqualsComparerINSt3__28equal_toIS2_EEEENSB_9allocatorINSB_4pairIKS3_S6_EEEEE13set_empty_keyERSH_
Pd:_glVertexAttribIPointer
wMi:_StringBuilder_ToString_m3317489284
uMa:__ZN13dynamic_arrayI21ComputeShaderResourceLj4EE9push_backERKS0_
Crc:__ZNK6Sprite10GetPaddingE20SpriteRenderDataMode
vFd:__ZN5physx2Cm8PtrTable5clearERNS0_22PtrTableStorageManagerE
tmi:_Array_InternalArray__ICollection_Remove_TisUInt32_t2560061978_m733727733_gshared
vGg:_CryptographicException__ctor_m503735289
Llf:__ZN5physx27PxVehicleDifferentialNWData20setDrivenWheelStatusEj
Yld:__ZN5physx3Cct15ObstacleContext7releaseEv
zlh:_ConstructionCall_get_CallSiteActivationAttributes_m3498917408
$de:__ZN5physx27solveFrictionBlockWriteBackEPKNS_23PxcSolverConstraintDescEjRNS_16PxcSolverContextEPNS_25PxcThresholdStreamElementEjPi
qmh:_RemotingConfiguration_get_ApplicationName_m593755586
B5k:__Z93RuntimeInvoker_Boolean_t97287965_Int32_t2950945753_SByte_t1669577662_ExceptionU26_t3600731591PFvvEPK10MethodInfoPvPS4_
U0b:__ZN14qsort_internal5QSortIP15RODataDepthPassi17ROSorterDepthPassEEvT_S4_T0_T1_
SZe:_UNITY_ft_glyphslot_alloc_bitmap
qKe:__ZN13PhysicsModule21SetAutoSyncTransformsEbb
iUg:_RSASslSignatureDeformatter_SetHashAlgorithm_m895570787
bxk:__ZN14dense_hash_mapI10KeyWrapperIP12Il2CppObjectEN6il2cpp2gc9CachedCCWENS4_5utils11PointerHashIS1_EENS3_14EqualsComparerINSt3__28equal_toIS2_EEEENSB_9allocatorINSB_4pairIKS3_S6_EEEEEC2EjRKS9_RKSE_
GEj:_X509CrlEntry__ctor_m4013514048
E4l:__ZL90GUIUtility_t1868551600_CustomAttributesCacheGenerator_GUIUtility_set_mouseUsed_m1308175216P21CustomAttributesCache
f5j:__ZN15dense_hashtableI10KeyWrapperIPK17Il2CppGenericInstES4_N6il2cpp8metadata21Il2CppGenericInstHashEN14dense_hash_setIS4_S7_NS4_14EqualsComparerINS6_24Il2CppGenericInstCompareEEENSt3__29allocatorIS4_EEE8IdentityESB_SE_E16reset_thresholdsEv
Vkl:__Z87RuntimeInvoker_Color_t2555686324_Color_t2555686324_Color_t2555686324_Single_t1397266774PFvvEPK10MethodInfoPvPS4_
L2e:_ft_raster1_render
kfm:__ZL96ListPool_1_t890186770_CustomAttributesCacheGenerator_ListPool_1_U3Cs_ListPoolU3Em__0_m1361788228P21CustomAttributesCache
MFc:__Z47Register_UnityEngine_Mesh_RecalculateBoundsImplv
wAa:__ZN9GfxDevice27UpdateComputeSkinPoseBufferEP9GfxBufferP12SkinMeshInfo
LGi:_Enumerator_get_Current_m3382684163_AdjustorThunk
sYg:_InternalEnumerator_1_System_Collections_IEnumerator_Reset_m3677481164_AdjustorThunk
qmm:_AeroplaneUserControl2Axis_Awake_m2256580094
jii:_String_LastIndexOf_m3451222878
bsm:__ZNKSt3__221__basic_string_commonILb1EE20__throw_length_errorEv
tAi:_EqualityComparer_1_System_Collections_IEqualityComparer_Equals_m245992594_gshared
Qj:_JS_SystemInfo_GetMemory
FCh:_Selectable_get_allSelectables_m868218263
hqi:_Array_InternalArray__IndexOf_TisParameterModifier_t1461694466_m1227120810_gshared
cOa:__ZN18GfxFramebufferGLES13ReadbackImageER14ImageReferenceiiiiii
zKc:__ZN5Unity9rapidjson6WriterI16TempBufferWriterNS0_4UTF8IcEES4_13JSONAllocatorE11WriteStringEPKcj
Q9k:__Z202RuntimeInvoker_Boolean_t97287965_RuntimeObject_Int32U26_t1369213839_Int32_t2950945753_Int32_t2950945753_RuntimeObject_SByte_t1669577662_Int32_t2950945753_ContractionU26_t961830454_ContextU26_t3937453398PFvvEPK10MethodInfoPvPS4_
Lrh:_SerializationInfo_SetType_m3923964808
HJa:__ZN6prcoreL12RemapGenericI17TexFormatARGB888815TexFormatRGB565EEvPKNS_9InnerInfoE
QR:__ZN4FMOD7Channel19setReverbPropertiesEPK29FMOD_REVERB_CHANNELPROPERTIES
bzg:_StreamReader_Dispose_m156389394
O7:__ZN13MonoBehaviour22GetScriptFullClassNameEv
mnk:_il2cpp_object_get_class
Aci:_SymmetricAlgorithm_get_Padding_m1011382560
yZc:__ZN11MinMaxCurve19GetWritableMinCurveEv
O9h:_RIPEMD160Managed_JJ_m112143231
yqe:__ZN5physx6shdfnd4sortIPNS_15PxsContactPatchENS_27SortBoundsPredicateManifoldENS0_19ReflectionAllocatorIS3_EEEEvPT_jRKT0_RKT1_j
q0b:__ZN13BatchRendererC2ER15RenderLoopStatsRK15RenderNodeQueuebb
o8g:_Comparer_1__ctor_m191896560_gshared
oHh:_PreviousInfo_t2148130204_marshal_pinvoke_back
hBb:__ZNK16MemoryFileSystem9EnumerateEPKcP19dynamic_block_arrayI13FileEntryInfoLj32EEbPPv19FileEnumerationFlag
mSb:__ZN13MonoBehaviour9CallAwakeEv
N8a:__ZN20SphericalHarmonicsL211AddWeightedERKS_f
_$d:__ZN5physx2Sc24ElementInteractionMarker12onDeactivateEj
D8k:__Z82RuntimeInvoker_RuntimeObject_Int64_t3736567304_Int64_t3736567304_Int64_t3736567304PFvvEPK10MethodInfoPvPS4_
Xzh:__Z14bankers_roundff
vHb:__Z19TransferField_ArrayI17RemapPPtrTransfer27Converter_SimpleNativeClassI8GUIStyleEEvRK23StaticTransferFieldInfoR31RuntimeSerializationCommandInfoRT0_
Eqa:__ZL22StaticInitializeShaderPv
jLc:__ZN9JSONWrite8TransferI10ColorRGBAfEEvRT_PKc17TransferMetaFlags
Ytk:__ZNK15dense_hashtableINSt3__24pairIK10KeyWrapperIP14Il2CppIUnknownEjEES5_N6il2cpp5utils11PointerHashIS3_EEN14dense_hash_mapIS5_jSB_NS5_14EqualsComparerINS0_8equal_toIS4_EEEENS0_9allocatorIS7_EEE9SelectKeyESG_SI_E10test_emptyERK30dense_hashtable_const_iteratorIS7_S5_SB_SK_SG_SI_E
rld:__ZN5physx3Cct26CharacterControllerManager16createControllerERKNS_16PxControllerDescE
T4g:_InternalEnumerator_1__ctor_m3913006324_AdjustorThunk
Z8:__Z25scripting_method_get_name18ScriptingMethodPtr
tUg:_SslCipherSuite_ComputeKeys_m661027754
OFb:__Z19TransferField_ArrayI14SafeBinaryRead16Converter_StringEvRK23StaticTransferFieldInfoR31RuntimeSerializationCommandInfoRT0_
z3i:_List_1_RemoveAll_m4058864288_gshared
tmg:_Convert_ToBoolean_m481380807
pUc:__ZN14ParticleSystem17SimulateParticlesER24ParticleSystemUpdateDataR23ParticleSystemParticlesjRKfPj
o1h:_Decimal_Equals_m2486655999
DHk:_GC_exit_check
vTf:_AssemblyName_SetPublicKeyToken_m582470133
Tx:__ZN7mecanim9animation9DenseClip8TransferI14SafeBinaryReadEEvRT_
E4c:__ZL24GenerateParticleGeometryIL24ParticleSystemRenderMode0ELb1ELb1EL25ParticleSystemRenderSpace4EEvPfRK22ParticleSystemTempDataRK26ParticleSystemRendererDataRK21ParticleSystemModulesRK23ParticleSystemParticlesRK31ParticleSystemParticlesTempData
NDk:__ZThn4_N6il2cpp2vm13ComObjectBase18ReleaseMarshalDataEP13Il2CppIStream
UU:__ZNK4PPtrI9AudioClipEcvPS0_Ev
vlj:_Collection_1_set_Item_m11553568_gshared
x6:__Z20UnlockObjectCreationv
_0f:_MonoField_ToString_m2518484388
aKh:_DSAManaged_get_Random_m923751780
qch:_Transform_1_Invoke_m2385719192_gshared
P7c:__ZN10SizeModuleC2E10MemLabelId
X3k:_Vector3_set_Item_m1772472431_AdjustorThunk
$Vh:_Interpreter_PopulateGroup_m4042796257
pEb:__ZN15SerializeTraitsI13dynamic_arrayIyLj8EEE19ResizeSTLStyleArrayERS1_i
zcc:__ZNSt3__26vectorINS_4pairIN4core12basic_stringIcNS2_20StringStorageDefaultIcEEEES6_EE13stl_allocatorIS7_L18MemLabelIdentifier38ELi16EEE6insertENS_11__wrap_iterIPKS7_EERSD_
MSk:_RenderPipelineManager_DoRenderLoop_Internal_m3799666479
_Xl:__ZL78Sprite_t280657092_CustomAttributesCacheGenerator_Sprite_get_packed_m1179604684P21CustomAttributesCache
bJ:__ZN9BlobWrite8TransferI22OffsetPtrArrayTransferI9OffsetPtrIN7mecanim12statemachine18StateMachineMemoryEEEEEvRT_PKc17TransferMetaFlags
jKk:__ZN6il2cpp2os12Cryptography23GetCryptographyProviderEv
K6:__ZN4core8hash_mapIiP6ObjectNS_4hashIiEENSt3__28equal_toIiEEE4growEi
J6:__ZN4core8hash_mapIiP6ObjectNS_4hashIiEENSt3__28equal_toIiEEE4growEv
kaj:_Collection_1_System_Collections_IList_IndexOf_m3894953546_gshared
PNh:_NameObjectCollectionBase_Init_m2525481323
PCk:__ZN6il2cpp2vm6String8NewUtf16EPKDsi
sFg:_SByte_System_IConvertible_ToByte_m2268214252_AdjustorThunk
fAk:__ZN6il2cpp2os10ThreadImpl12QueueUserAPCEPFvPvES2_
V_i:_List_1_get_Capacity_m3047075120_gshared
GO:__Z32TransferEnumWithNameForceIntSizeI14SafeBinaryReadN10SampleClip17CompressionFormatEEvRT_RT0_PKc17TransferMetaFlags
UJj:_RegularExpression__ctor_m119502265
aff:__ZN22BaseUnityConnectClient10QueueEventERN11UnityEngine15CloudWebService17CloudServiceEventEPKcjb
Zmd:__ZN5physx12PxControllerD2Ev
mnj:_ReadOnlyCollection_1_System_Collections_Generic_ICollectionU3CTU3E_Clear_m522482168_gshared
RVf:_DerivedType_IsByRefImpl_m2585680005
Ubb:__ZN13dynamic_arrayI11ShaderTagIDLj4EE9push_backERKS0_
Clh:_ConstructionCall_InitMethodProperty_m2021094586
Thd:__ZNK5physx2Gu15HeightFieldUtil12traceSegmentI25CapsuleTraceSegmentReportLb0ELb0ELb1EEEvRKNS_6PxVec3ES6_PT_PS5_
Ekd:__ZN5physx3Cct17CapsuleController13setStepOffsetEf
ITc:__Z9UpdateTplIL27ParticleSystemCurveEvalMode1EEvRK11MinMaxCurveR23ParticleSystemParticlesjjbjRK8Vector2f
Bie:__ZN5physx10PxsContext23prepareCMDiscreteUpdateEPNS_10PxBaseTaskE
O9:__ZNK14SerializedFile12GetHighestIDEv
p2l:__ZL95TextGenerator_t3211863866_CustomAttributesCacheGenerator_TextGenerator_get_lineCount_m916872812P21CustomAttributesCache
Zdm:__ZL74CanvasScaler_t2767979955_CustomAttributesCacheGenerator_m_DefaultSpriteDPIP21CustomAttributesCache
YEd:__ZN5physx6shdfnd5ArrayIPvNS0_19ReflectionAllocatorINS_2Cm5BlockIhLj256EEEEEE4copyINS0_15InlineAllocatorILj256ES7_EEEEvRKNS1_IS2_T_EE
fg:_emscripten_glGetError
Zjk:__ZN15dense_hashtableINSt3__24pairIK10KeyWrapperIPK14Il2CppAssemblyEPK22Il2CppMonoAssemblyNameEES6_N6il2cpp5utils11PointerHashIS4_EEN14dense_hash_mapIS6_SA_SF_NS6_14EqualsComparerINS0_8equal_toIS5_EEEENS0_9allocatorISB_EEE9SelectKeyESK_SM_E14squash_deletedEv
BS:__Z14FMOD_FILE_SeekPvjS_
Faj:_Collection_1_RemoveAt_m2240641437_gshared
CId:__ZN5physx6shdfnd8PoolBaseINS_11NpAggregateENS0_19ReflectionAllocatorIS2_EEE15disposeElementsEv
s1l:__ZL81Physics_t2310948930_CustomAttributesCacheGenerator_Physics_RaycastAll_m2709753186P21CustomAttributesCache
w9a:__ZN7TextureC2E10MemLabelId18ObjectCreationMode
$vh:_LayoutGroup__ctor_m2162961217
fhd:__ZThn4_N16RayRTreeCallbackILi1ELb1EE14processResultsEjPj
CWi:_ValueType_t3640485471_marshal_pinvoke_cleanup
K9b:__ZNK13RenderTexture32CalculateNeedsInvertedProjectionEv
Mld:__ZN5physx2Gu17RadixSortBuffered4SortEPKfj
ng:emscriptenWebGLGet
uka:__Z19CanReplaceComponentRN5Unity9ComponentEPKNS_4TypeEPN4core12basic_stringIcNS5_20StringStorageDefaultIcEEEE
bBg:_UnmanagedMemoryStream_Flush_m1540584491
b9i:_Collection_1_GetEnumerator_m3986802482_gshared
Apg:_GuidParser_ParseGuid2_m1914838819
Akc:__ZN12CubemapArray11InitTextureEiii13TextureFormatb
ZJa:__ZN6prcoreL18BlitIntegerToFloatERK14ImageReferenceRS0_
BNh:_ListDictionary_get_SyncRoot_m4242825143
i3c:__ZN32CustomDataModulePropertyBindings13SetFloatValueER14ParticleSystemif
gvc:__Z17GetSceneBuildInfoRKN4core12basic_stringIcNS_20StringStorageDefaultIcEEEEiR14SceneBuildInfo
AXi:_List_1_System_Collections_IList_get_Item_m1112579679_gshared
Eog:_Convert_ToSingle_m3983149863
xXg:_InternalEnumerator_1_System_Collections_IEnumerator_get_Current_m55999184_gshared
$Th:_X509CertificateEnumerator_get_Current_m364341970
geh:_ValueCollection_System_Collections_Generic_ICollectionU3CTValueU3E_Contains_m1842955046_gshared
Ngk:__ZN24dense_hashtable_iteratorINSt3__24pairIK10KeyWrapperIPK10Il2CppTypeEjEES6_N6il2cpp8metadata14Il2CppTypeHashEN14dense_hash_mapIS6_jSB_NS6_14EqualsComparerINSA_26Il2CppTypeEqualityComparerEEENS0_9allocatorIS8_EEE9SelectKeyESF_SH_E30advance_past_empty_and_deletedEv
XOf:_Graphic_get_depth_m815589653
Hrd:__ZN27ConvexVsMeshOverlapCallbackC2ERKN5physx2Gu10ConvexMeshERKNS0_11PxMeshScaleERKNS0_2Cm23FastVertex2ShapeScalingERKNS0_11PxTransformESE_bRKNS1_3BoxE
Etc:__Z18SetIParticleSystemP15IParticleSystem
bLf:_ContentSizeFitter_get_horizontalFit_m2773126143
pzj:_U3CStartU3Ec__Iterator0__ctor_m2366347741_gshared
KJ:__ZN7mecanim5human13HumanFixTwistEPKNS0_5HumanEPNS_8skeleton13SkeletonPoseTIN4math4trsXEEES9_iiRKf
I3b:__ZL24AssignProjectorQueuesJobP30AssignProjectorQueuesJobHeader
Evi:_KeyValuePair_2_get_Key_m1218836954_gshared
L2f:_ParameterModifier_t1461694466_marshal_pinvoke
z6j:__ZN15dense_hashtableINSt3__24pairIK10KeyWrapperIN6il2cpp5utils13dynamic_arrayIPK10Il2CppTypeLj4EEEEPFvvEEESA_NS3_8metadata19Il2CppSignatureHashEN14dense_hash_mapISA_SD_SG_NSA_14EqualsComparerINSF_22Il2CppSignatureCompareEEENS0_9allocatorISE_EEE9SelectKeyESK_SM_E4swapERSP_
dqg:_Int16_System_IConvertible_ToUInt32_m3410279543
Bxa:__ZN9ShaderLab20SerializedSubProgram14SetConstBufferEPKci
LSc:__ZN11ShapeModule9ResetSeedERK27ParticleSystemReadOnlyState
Xck:__ZN6il2cpp2os4File5CloseEPNS0_10FileHandleEPi
_5j:__ZNSt3__27__sort5IRN6il2cpp5utils11collections13ArrayValueMapIPK10Il2CppType17Il2CppInteropData26InteropDataToTypeConverterNS1_8metadata14Il2CppTypeLessENSA_26Il2CppTypeEqualityComparerEE12SortComparerEPS8_EEjT0_SH_SH_SH_SH_T_
C1k:_Touch_get_fingerId_m859576425_AdjustorThunk
YJe:__ZN13PhysicsModule17SetRigidBodyStateER9RigidbodyRKN8IPhysics14RigidBodyStateE
wwf:__ZN5physx18RepXPropertyFilterINS_2Sn17RepXVisitorReaderINS_23PxVehicleDriveSimDataNWEEEEclILj663ENS_21PxVehicleDriveSimDataERKNS_19PxVehicleEngineDataES8_EEvRKNS_14PxPropertyInfoIXT_ET0_T1_T2_EEj
Hrl:__Z48RuntimeInvoker_Boolean_t97287965_Link_t544317964PFvvEPK10MethodInfoPvPS4_
JUe:_cf2_getStdVW
iZi:_List_1_System_Collections_ICollection_CopyTo_m2688165607_gshared
prl:__Z53RuntimeInvoker_UIVertex_t4057497605_Int32_t2950945753PFvvEPK10MethodInfoPvPS4_
bUi:_UInt16_CompareTo_m2664746316_AdjustorThunk
peh:_ValueCollection_GetEnumerator_m616748621_gshared
Oya:__ZN9GfxDevice13SetActiveTierE12GraphicsTier
D9d:__ZN5physx2Sq12BucketPruner11shiftOriginERKNS_6PxVec3E
XPc:__Z29Transfer_Blittable_ArrayFieldI8JSONReadjEvRT_R9ArrayInfoRK23StaticTransferFieldInfo
Xud:__ZN5physx6shdfnd5ArrayIPNS_2Sc16ArticulationCoreENS0_19ReflectionAllocatorIS4_EEE15growAndPushBackERKS4_
JHk:_GC_check_finalizer_nested
Vg:__setLetterbox
mdb:__ZNSt3__26__treeINS_12__value_typeIN9ShaderLab16FastPropertyNameEfEENS_19__map_value_compareIS3_S4_NS_4lessIS3_EELb1EEENS_9allocatorIS4_EEE12__find_equalIS3_EERPNS_16__tree_node_baseIPvEENS_21__tree_const_iteratorIS4_PNS_11__tree_nodeIS4_SE_EEiEESH_RKT_
YBh:_ScrollRect_OnScroll_m3861066534
Zoe:__ZN5physx19normalizePartitionsERNS_6shdfnd5ArrayIjNS0_19ReflectionAllocatorIjEEEEPNS_23PxcSolverConstraintDescEPKNS_13PxcSolverBodyEjjS5_
dgh:_Dictionary_2_ToTKey_m224697230_gshared
F0l:__ZL72FormerlySerializedAsAttribute_t2859083114_CustomAttributesCacheGeneratorP21CustomAttributesCache
fsh:_OnValidateInput_Invoke_m1009124904
Vcd:__ZN18ContactCapsuleMesh20processTriangleCacheILj16EEEbRN5physx2Gu13TriangleCacheIXT_EEE
IGj:_PatternCompiler_EmitFastRepeat_m3012952683
Gmb:__ZNSt3__26vectorI17BlendShapeChannelNS_9allocatorIS1_EEE6assignINS_11__wrap_iterIPS1_EEEENS_9enable_ifIXaasr21__is_forward_iteratorIT_EE5valuesr16is_constructibleIS1_NS_15iterator_traitsISA_E9referenceEEE5valueEvE4typeESA_SA_
Gec:__ZN11TimeManager11GetRealtimeEv
tWl:__ZL91RectOffset_t1369453676_CustomAttributesCacheGenerator_RectOffset_get_horizontal_m2663785949P21CustomAttributesCache
TWk:_Object_GetHashCode_m1944636947
Eqd:__ZN5physx2Sc16InteractionScene25removeFromActiveActorListERNS0_5ActorE
VS:__ZN29AudioEffectInternalDefinitionC2EP26UnityAudioEffectDefinitionb
Yrj:_ReadOnlyCollection_1_System_Collections_IList_Remove_m2434650390_gshared
uUi:_UInt16_ToString_m3056878594_AdjustorThunk
QL:__ZN4PPtrI6AvatarE8TransferI18StreamedBinaryReadILb0EEEEvRT_
xwi:_Dictionary_2_System_Collections_Generic_ICollectionU3CSystem_Collections_Generic_KeyValuePairU3CTKeyU2CTValueU3EU3E_Contains_m2803718146_gshared
zSc:__ZNK11MinMaxCurve20FindMinMaxIntegratedEv
Vmd:__ZN5physx3Ext21InertiaTensorComputer6rotateERKNS_7PxMat33E
YWh:_Interval_get_IsSingleton_m3386290029
Uek:__ZNSt3__2plIcNS_11char_traitsIcEENS_9allocatorIcEEEENS_12basic_stringIT_T0_T1_EERKS9_PKS6_
x1k:_Time_get_unscaledDeltaTime_m4270080131
Gsf:__ZN5physx3Pvd17PvdPropertyFilterINS_2Sn17RepXVisitorWriterINS_27PxVehicleTireLoadFilterDataEEEE14handleAccessorILj565ENS_22PxRepXPropertyAccessorILj565ES4_ffEEEEvRKT0_
coe:__ZN5physx22PxcDiscreteNarrowPhaseERNS_18PxcNpThreadContextERNS_13PxcNpWorkUnitE
GIa:_stbir_resize
upi:_Array_IndexOf_TisCustomAttributeTypedArgument_t2723150157_m3158556463_gshared
Vzi:_EqualityComparer_1_System_Collections_IEqualityComparer_GetHashCode_m360549782_gshared
e5h:_Environment_GetOSVersionString_m407782784
Mji:_DecoderExceptionFallback_Equals_m1082173956
kWg:_U3CGetEnumeratorU3Ec__Iterator0__ctor_m1150758267_gshared
jGl:__ZL69Assembly_t_CustomAttributesCacheGenerator_Assembly_GetName_m981771927P21CustomAttributesCache
Pnb:__ZN4PPtrI4MeshE8TransferI14SafeBinaryReadEEvRT_
Bje:__ZN5physx23PxcPCMContactCapsuleBoxERKNS_2Gu13GeometryUnionES3_RKNS_11PxTransformES6_RKfRNS_10PxcNpCacheERNS0_13ContactBufferE
NYa:__Z37ReadDirectoryInfo_UnityWebAndUnityRawR12FileAccessorRKN20ArchiveStorageHeader6HeaderERNS1_13DirectoryInfoE
eDj:_PKCS12_get_Keys_m3893933360
Fja:__ZNSt3__26__treeINS_12__value_typeIPKciEENS_19__map_value_compareIS3_S4_15compare_tstringIS3_ELb1EEENS_9allocatorIS4_EEE7destroyEPNS_11__tree_nodeIS4_PvEE
jnm:_CarController_get_Revs_m1338495832
Iti:_Array_InternalArray__Insert_TisIntPtr_t_m189626842_gshared
Vsg:_Int64_System_IConvertible_ToByte_m375085029_AdjustorThunk
nFh:_Locale_GetText_m3374010885
Kdj:_Collection_1_System_Collections_IEnumerable_GetEnumerator_m1598238343_gshared
QJg:_RijndaelManaged_CreateEncryptor_m263736311
tQi:_WaitCallback__ctor_m1893321019
U7l:__ZL109ExecuteEvents_t3484638744_CustomAttributesCacheGenerator_ExecuteEvents_U3Cs_HandlerListPoolU3Em__0_m391641698P21CustomAttributesCache
v3l:__ZL95AudioSource_t3935305588_CustomAttributesCacheGenerator_AudioSource_set_dopplerLevel_m2650955335P21CustomAttributesCache
S0b:__ZN20DynamicPropertySheet14SetValueQueuedEN9ShaderLab16FastPropertyNameEN19ShaderPropertySheet12PropertyTypeEjNS2_8SetFlagsE
d9e:__ZN2UI6Canvas26MarkAllNestedCanvasesDirtyEv
juk:__ZN6il2cpp2vm12ReboxIfBoxedEP14Il2CppIUnknownP11Il2CppClass
OTb:__ZN25PathNamePersistentManagerD2Ev
q6:__ZN17PersistentManager48IntegrateObjectAndUnlockIntegrationMutexInternalEi
tqa:__ZZ29InitializeSortingGroupManagerPvEN44PostLateUpdateSortingGroupsUpdateRegistrator7ForwardEv
A7l:__ZL55EventTrigger_t1076084509_CustomAttributesCacheGeneratorP21CustomAttributesCache
kfi:_SecurityElement_SearchForChildByTag_m900466299
Bq:__ZN6Object12SetHideFlagsENS_9HideFlagsE
gEe:__ZN9Rigidbody23VirtualRedirectTransferER14SafeBinaryRead
xog:_Convert_ToSingle_m3227075028
wzm:_emscripten_glGetFramebufferAttachmentParameteriv__wrapper
b_b:__ZN13RendererScene15InitializeUmbraEv
C6a:__Z28CalculateGlobalMatrixInverse23TransformAccessReadOnly
fWk:_MonoBehaviour__ctor_m1579109191
E5l:__ZL59GUITargetAttribute_t25796337_CustomAttributesCacheGeneratorP21CustomAttributesCache
jYc:__ZN23ParticleSystemParticles17SetUsesCustomDataEi
YCi:_GenericEqualityComparer_1_Equals_m3457564127_gshared
EKg:_BigInteger_ModInverse_m2426215562
oZg:_InternalEnumerator_1_System_Collections_IEnumerator_Reset_m2386791007_AdjustorThunk
Iji:_DecoderExceptionFallback__ctor_m4044614564
g$g:_InternalEnumerator_1_System_Collections_IEnumerator_Reset_m3011999097_AdjustorThunk
WSd:__ZNK5physx15PxsParticleData15getWorldBoundsVEv
_Be:__ZN15CapsuleCollider13AwakeFromLoadE17AwakeFromLoadMode
gBg:_LocalDataStoreSlot__cctor_m644942532
Rid:__ZN12_GLOBAL__N_124HfTrianglesEntityReport27onEventEjPj
A5l:__ZL80GUISkin_t1244372282_CustomAttributesCacheGenerator_m_verticalScrollbarDownButtonP21CustomAttributesCache
P1f:_MonoProperty_CachePropertyInfo_m2968057423
uVd:__ZN5physx22NpParticleBaseTemplateINS_16PxParticleSystemENS_16NpParticleSystemEE17setStaticFrictionEf
xif:__ZNK25UnityWebRequestJavaScript18GetDownloadedBytesEv
lZk:_Ray_GetPoint_m1852405345_AdjustorThunk
CEl:__ZL53RegionInfo_t1090270226_CustomAttributesCacheGeneratorP21CustomAttributesCache
o6l:__ZL85Canvas_t3310196443_CustomAttributesCacheGenerator_Canvas_get_sortingOrder_m1860900812P21CustomAttributesCache
Ozl:__ZL74Single_t1397266774_CustomAttributesCacheGenerator_Single_IsNaN_m4024467661P21CustomAttributesCache
XDd:__ZN5physx17PxsContactManager16resetCachedStateEv
pif:__ZN12HeaderHelper14SetUnvalidatedERKN4core12basic_stringIcNS0_20StringStorageDefaultIcEEEES6_b
TO:__ZN4FMOD6SoundI7releaseEv
TXd:__ZN5physx20NpRigidActorTemplateINS_14PxRigidDynamicEE15setActorSimFlagEb
E1g:_InternalEnumerator_1_get_Current_m1408339225_gshared
lWe:_cff_parse_num
pZa:__ZN10MemoryFile9SetLengthEy
cv:__ZN7mecanim10ValueArray8TransferI19StreamedBinaryWriteILb0EEEEvRT_
AJb:__ZN5RectTIiE8TransferI24GenerateTypeTreeTransferEEvRT_
pld:__ZNK5physx3Cct26CharacterControllerManager16getNbControllersEv
QSb:__Z28scripting_class_is_interface17ScriptingClassPtr
ki:_glTexStorage2D
Jkg:_SyncHashtable_get_Item_m2686606216
Ywa:__ZNK9ShaderLab10SubProgram14EnsureCompiledEv
eZf:_MethodBuilder_GetGenericArguments_m1765425737
EZh:_DateTime_CompareTo_m3687348273
yGk:_GC_push_marked
M_h:_DateTime_ToUniversalTime_m1945318289_AdjustorThunk
xGe:__ZN5physx7profile10DataBufferINS_6shdfnd6MutexTINS0_26WrapperReflectionAllocatorIhEEEENS0_14ScopedLockImplIS6_EEE17handleBufferFlushEPKhj
e4h:_Enum_t4135868527_marshal_pinvoke
P8:__Z18BuildScriptClassId17ScriptingClassPtr
GXj:_TextGenerator_Init_m1168488231
yLh:_RSAManaged_Finalize_m3915335854
Fr:__ZNK16LevelGameManager7GetNameEv
zmm:_JetParticleEffect_FindAeroplaneParent_m2989992714
QWa:__ZL31DeleteLastPathNameComponentImplRKN4core12basic_stringIcNS_20StringStorageDefaultIcEEEEPKc
Dhc:__Z13RegisterClassI18DelayedCallManagerEvv
i0j:_Rigidbody_AddTorque_m3171849690
nff:__ZN18UnityConnectClient15GetCloudServiceEv
JHb:__Z18Transfer_BlittableI24GenerateTypeTreeTransferLb0EiEvRK29SerializationCommandArgumentsR31RuntimeSerializationCommandInfo
Kre:__ZN5physx20PxsConstraintProjectEPKNS_13PxsConstraintEbf
CLd:__ZN5physx7NpShape7setFlagENS_11PxShapeFlag4EnumEb
W$g:_InternalEnumerator_1_get_Current_m2698009637_gshared
rdh:_Enumerator_System_Collections_IEnumerator_Reset_m278261807_gshared
JSb:__ZL28SerializationCommandGroupForRK31TransferFunctionScriptingTraits17ScriptingClassPtr17ScriptingFieldPtrRK20CoreScriptingClasses
W$a:__ZN10TagManager32RegisterDefaultTagsAndLayerMasksEv
GQi:_WaitHandle_Dispose_m738127030
h1i:_List_1_System_Collections_IList_get_IsReadOnly_m1729002068_gshared
Hel:__Z50RuntimeInvoker_Double_t594665363_Int32_t2950945753PFvvEPK10MethodInfoPvPS4_
Quj:_Predicate_1_EndInvoke_m1490920825_gshared
KQl:__ZL78LoaderOptimization_t1484956347_CustomAttributesCacheGenerator_DisallowBindingsP21CustomAttributesCache
Hne:__ZN5physx2Sc35ParticleElementRbElementInteraction12onDeactivateEj
fyf:__ZNK5physx27PxVehicleDriveGeneratedInfo23visitInstancePropertiesINS_18RepXPropertyFilterINS_2Sn17RepXVisitorWriterINS_16PxVehicleDriveNWEEEEEEEjT_j
Wnc:__ZN10GameObject28IsActiveIgnoreImplicitPrefabEv
H0i:_List_1_Remove_m3853969205_gshared
bHi:_Enumerator_System_Collections_IEnumerator_get_Current_m1540440674_gshared
hAf:__Z36getPxVehicleDrive4W_ConcreteTypeNamePKN5physx16PxVehicleDrive4WE
fgi:_Single_System_IConvertible_ToInt16_m809233024_AdjustorThunk
fkf:__ZN5physx23PxVehicleWheels4SimData17setSuspensionDataEjRKNS_23PxVehicleSuspensionDataE
nqm:_fmodf
ish:_InputField_UpdateLabel_m1837760870
WEa:__ZN4gles8InitCapsEP7ApiGLESP12GraphicsCapsR16GfxDeviceLevelGL
_Ia:__ZN6prcore14BlitImageFloatERK14ImageReferenceRS0_NS0_8BlitModeE
o3a:__Z24CalculateVertexLightDataRK15SharedLightDataR14GfxVertexLight
Ui:_glEnable
kik:__ZN15dense_hashtableINSt3__24pairIK10KeyWrapperINS1_IPK12PropertyInfoP11Il2CppClassEEEjEES9_17ReflectionMapHashIS8_EN14dense_hash_mapIS9_jSD_NS9_14EqualsComparerINS0_8equal_toIS8_EEEENS0_9allocatorISB_EEE9SelectKeyESI_SK_E15insert_noresizeERKSB_
D2g:_InternalEnumerator_1_MoveNext_m973048327_gshared
Vwa:__ZNK9ShaderLab7Program28BeginReadUnsupportedVariantsEv
Y9d:__ZN5physx2Sq10AABBPrunerC2Eb
Qfa:__ZN12CachedWriter11Align4WriteEv
cub:__ZNSt3__26vectorIN30RuntimeInitializeOnLoadManager9ClassInfoE13stl_allocatorIS2_L18MemLabelIdentifier13ELi16EEE7reserveEj
n5d:__ZN5physx2Sq8AABBTreeC2Ev
nGj:_PatternCompiler_EmitCategory_m851169746
wLc:__Z35Transfer_Blittable_FixedBufferFieldI9JSONWriteiEvRK29SerializationCommandArgumentsR31RuntimeSerializationCommandInfo
y_j:_HumanBone_t2465339518_marshal_pinvoke_cleanup
E2c:__ZN11TrailModuleD2Ev
hIh:_BigInteger_op_Subtraction_m1575155386
kG:__ZN26AnimatorControllerPlayable17ProcessRootMotionEP35AnimationPlayableEvaluationConstantP32AnimationPlayableEvaluationInputP33AnimationPlayableEvaluationOutput
UNg:_RSAManaged_ImportParameters_m1117427048
eKl:__ZL54SoapServices_t133988723_CustomAttributesCacheGeneratorP21CustomAttributesCache
HAg:_UnexceptionalStreamReader_Peek_m1842169584
Qlf:__ZN5physx21PxVehicleDriveDynDataC2Ev
Rdf:__ZN11UnityEngine7Connect15DeviceInfoEvent16CollectExtraInfoEv
gEk:__ZN6il2cpp2os11Environment22SetEnvironmentVariableERKNSt3__212basic_stringIcNS2_11char_traitsIcEENS2_9allocatorIcEEEESA_
Y4k:_TypeInferenceRuleAttribute__ctor_m2736695831
Mue:__ZN5physx2Gu10ConvexMeshD2Ev
MGg:_CryptographicException__ctor_m1422015889
ysf:__ZN5physx18RepXPropertyFilterINS_2Sn17RepXVisitorWriterINS_22PxVehicleWheelsSimDataEEEEclILj625ES3_KjjEEvRKNS_14PxPropertyInfoIXT_ET0_T1_T2_EEj
Qjk:__ZN6il2cpp2gc19AppendOnlyGCHashMapIPK10Il2CppTypeP20Il2CppReflectionTypeNS_8metadata14Il2CppTypeHashENS7_26Il2CppTypeEqualityComparerEEC2Ev
A4k:_Vector4_Equals_m1779210055_AdjustorThunk
p6a:__ZN17LightBakingOutput8TransferI19StreamedBinaryWriteILb0EEEEvRT_
zrm:_atoi
YZa:__ZN20ArchiveStorageReader10InitializeER15FileSystemEntryyb
Arm:_atol
Y8c:__Z60Register_UnityEngine_ParticleSystem_MainModule_GetStartColorv
$zf:__ZN5physx18RepXPropertyFilterINS_2Sn17RepXVisitorReaderINS_16PxVehicleDrive4WEEEEclILj674ENS_14PxVehicleDriveENS_21PxVehicleDriveDynDataES8_EEvRKNS_14PxPropertyInfoIXT_ET0_T1_T2_EEj
zEk:__ZThn8_N6il2cpp2vm13CachedCCWBaseINS0_13ManagedObjectEE6AddRefEv
oZf:_TypeBuilder_CreateType_m3375483507
gAf:__ZN5physx29PxVehicleDrive4WGeneratedInfoC2Ev
pjh:_RemotingServices_GetRealProxy_m2081098851
IJh:_BlockProcessor_Core_m189015002
z4j:__ZN15dense_hashtableINSt3__24pairIK10KeyWrapperIPKcEP11Il2CppClassEES5_N6il2cpp5utils11StringUtils12StringHasherIS4_EEN14dense_hash_mapIS5_S8_SE_NS5_14EqualsComparerINSB_13VmStringUtils21CaseSensitiveComparerEEENS0_9allocatorIS9_EEE9SelectKeyESJ_SL_EC2EjRKSE_RKSJ_RKSN_
Ezm:_emscripten_glScissor__wrapper
Fp:FUNCTION_TABLE_viifi
Ip:FUNCTION_TABLE_viiff
Pod:__ZNK5physx2Sc8ShapeSim10getBodySimEv
qSe:__ZN13SpeedTreeWind16CopySettingsFromEPKS_
b6f:_X501__cctor_m1166912714
v8l:__ZL102PointerEventData_t3807901092_CustomAttributesCacheGenerator_PointerEventData_set_lastPress_m2928324031P21CustomAttributesCache
tyh:_MaskUtilities_GetRectMasksForClip_m532898711
Z0e:_UNITY_tt_face_free_hdmx
FOk:_Bounds_ToString_m4208690781
Vnk:__ZN15dense_hashtableINSt3__24pairIK10KeyWrapperINS1_IP11Il2CppClassjEEES4_EES6_N6il2cpp8metadata14ArrayClassHashEN14dense_hash_mapIS6_S4_SB_NS6_14EqualsComparerINSA_17ArrayClassCompareEEENS0_9allocatorIS8_EEE9SelectKeyESF_SH_E5clearEv
oal:__Z88RuntimeInvoker_RuntimeObject_RuntimeObject_RuntimeObject_Int32_t2950945753_RuntimeObjectPFvvEPK10MethodInfoPvPS4_
Y3j:__ZNSt3__218uninitialized_copyIPNS_4pairIK10KeyWrapperIPK11Il2CppClassEPKcEESB_EET0_T_SD_SC_
Adk:__ZN6il2cpp2vm14TypeNameParser5ParseEb
zBg:_Math_Sqrt_m1297338011
uzg:_StreamWriter_Initialize_m3490883444
dTi:_Type_GetGenericArguments_m3500465462
VOe:__ZN13dynamic_arrayIsLj2EE18resize_initializedEjRKs12ResizePolicy
aFd:__ZN5physx6shdfnd5ArrayIPvNS0_19ReflectionAllocatorINS_2Cm5BlockIhLj128EEEEEE15growAndPushBackERKS2_
shf:__ZN23UnityPurchasingSettingsC2Ev
uob:__ZNK9Transform13GetWorldScaleEv
X$f:_Module_IsDefined_m2423524910
EVf:_DerivedType_create_unmanaged_type_m747846525
W4l:__ZL60EventType_t3528516131_CustomAttributesCacheGenerator_repaintP21CustomAttributesCache
$1a:__ZN17GPUFenceInternals7ReleaseEv
Scm:__ZL66Selectable_t3250028441_CustomAttributesCacheGenerator_m_NavigationP21CustomAttributesCache
d3f:_ResolveEventHandler__ctor_m1911137231
cud:__ZN5physx2Sc11Interaction10onActivateEj
Ahd:__ZNK5physx2Gu29EPASupportMapPairRelativeImplINS0_4BoxVENS0_11ConvexHullVEE6getDirEv
iMd:__ZN5physx14NpShapeManager15setupSceneQueryERNS_2Sq17SceneQueryManagerERKNS_12PxRigidActorERKNS_7NpShapeE
A$a:__Z9SetLocalS15TransformAccessRKN4math7_float3Ey
tpi:_Array_IndexOf_TisCustomAttributeNamedArgument_t287865710_m2817957199_gshared
Hta:__ZN15SerializeTraitsI13dynamic_arrayIN9ShaderLab21SerializedBindChannelELj4EEE19ResizeSTLStyleArrayERS3_i
alm:_TiltInput_OnEnable_m692757573
fCj:_ExtendedKeyUsageExtension_ToString_m2116504780
Xwb:__ZNK5Unity9Component38MarkGameObjectAndComponentDependenciesER27GarbageCollectorThreadState
Fre:__ZN22ScAfterIntegrationTask11runInternalEv
Nug:_BinaryReader_Read_m3708759962
mGf:_PointerEventData_IsPointerMoving_m1902409386
Nwd:__ZNK5physx2Sc9ClothCore23getExternalAccelerationEv
FW:__ZNK7Texture21GetShadowSamplingModeEv
Egd:__ZN5physx2Gu13coarseCullingERKNS_6PxVec3ES3_ffRKNS_10PxTriangleE
Lib:__ZN13ScreenManager21OnWindowRegainedFocusEv
_Pb:__Z18Transfer_BlittableI18StreamedBinaryReadILb0EELb1EdEvRK29SerializationCommandArgumentsR31RuntimeSerializationCommandInfo
BEa:__ZN9GfxDevice26CreateDefaultVertexBuffersEv
XAm:_emscripten_glVertexAttrib2fv__wrapper
xjf:__ZN13RuntimeStaticINSt3__26vectorIPN5physx15PxVehicleWheelsENS0_9allocatorIS4_EEEELb0EE13StaticDestroyEPv
QAe:__ZN11BoxCollider22FetchPoseFromTransformEv
hoe:__ZN5physx2Sc5Scene29processNarrowPhaseTouchEventsEv
UHa:__ZN4crnd12symbol_codec32decode_receive_static_data_modelERNS_25static_huffman_data_modelE
cfc:__ZN18ScriptingArguments8AddFloatEf
L1k:_TouchScreenKeyboard_Open_m3325559252
aRf:_Image_set_fillOrigin_m469806249
hTe:__ZN15TerrainColliderD2Ev
Fdf:__ZN11UnityEngine15PlatformWrapper16GetVRRenderScaleEv
Qyd:__ZN5physx6shdfnd5ArrayIPvNS0_15InlineAllocatorILj256ENS0_19ReflectionAllocatorINS_18NpArticulationLinkEEEEEE15growAndPushBackERKS2_
wMc:__Z18Transfer_BlittableI9JSONWriteLb0EaEvRK29SerializationCommandArgumentsR31RuntimeSerializationCommandInfo
o$:__ZN11UnityEngine15CloudWebService14DataDispatcher34OnSessionContainerArchivedAndReadyERNS0_16SessionContainerE
tWk:_ConnectionChangeEvent__ctor_m764126802
SKg:_Kernel_Multiply_m193213393
QUc:__ZN23ParticleSystemParticles20SetUsesTriggerEventsEb
vCg:_IntComparer__ctor_m2901422390
cmd:__ZNK5physx3Cct15ObstacleContext11getObstacleEj
e3f:_ResolveEventHandler_Invoke_m1337322179
jLl:__ZL50HMACMD5_t2742219965_CustomAttributesCacheGeneratorP21CustomAttributesCache
G7g:_Comparer_1__ctor_m1078828713_gshared
dKb:__Z18Transfer_BlittableI19StreamedBinaryWriteILb0EELb0E8Vector3fEvRK29SerializationCommandArgumentsR31RuntimeSerializationCommandInfo
VFi:_Enumerator_VerifyState_m2621680056_gshared
PKj:_UriParser_InternalRegister_m3643767086
l2l:__ZL106TextGenerator_t3211863866_CustomAttributesCacheGenerator_TextGenerator_INTERNAL_get_rectExtents_m183810018P21CustomAttributesCache
dsa:__ZN14SafeBinaryRead19TransferSTLStyleMapINSt3__23mapIN4core12basic_stringIcNS3_20StringStorageDefaultIcEEEEiNS1_4lessIS7_EENS1_9allocatorINS1_4pairIKS7_iEEEEEEEEvRT_17TransferMetaFlags
y_h:_DateTimeFormatInfo_get_RawAbbreviatedDayNames_m1257850285
yai:_RSACryptoServiceProvider_EncryptValue_m944137256
Phk:__ZN15dense_hashtableINSt3__24pairIK10KeyWrapperINS1_IPK11Il2CppImageP11Il2CppClassEEEjEES9_17ReflectionMapHashIS8_EN14dense_hash_mapIS9_jSD_NS9_14EqualsComparerINS0_8equal_toIS8_EEEENS0_9allocatorISB_EEE9SelectKeyESI_SK_ED2Ev
j$e:_gray_move_to
J$h:_DBNull_System_IConvertible_ToSingle_m13713620
Hem:__ZL127U3CDelayedSetDirtyU3Ec__Iterator0_t3170500204_CustomAttributesCacheGenerator_U3CDelayedSetDirtyU3Ec__Iterator0_Reset_m160466733P21CustomAttributesCache
Erl:__Z59RuntimeInvoker_Boolean_t97287965_KeyValuePair_2_t3699644050PFvvEPK10MethodInfoPvPS4_
hPk:_CameraCallback__ctor_m899467377
rmj:_ReadOnlyCollection_1_System_Collections_IList_Contains_m1327645028_gshared
nRf:_Image_GetDrawingDimensions_m3060965396
d2l:__ZL69FontTextureRebuildCallback_t2467502454_CustomAttributesCacheGeneratorP21CustomAttributesCache
wTi:_TypeLoadException__ctor_m1154572625
Axc:__Z30RegisterValidateMethodCallbackiPF18ScriptingMethodPtrS_17ScriptingClassPtrP6ObjectEPKc
Kzb:__ZN20LocalFileSystemPosixD0Ev
Xzl:__ZL75Decimal_t2948259380_CustomAttributesCacheGenerator_Decimal__ctor_m593929528P21CustomAttributesCache
zRg:_Context_get_WriteSequenceNumber_m1115956887
o8f:_Activator_CreateInstanceInternal_m1337209899
lij:_Dictionary_2_Do_ICollectionCopyTo_TisKeyValuePair_2_t2401056908_m1169495264_gshared
ZVc:__Z25GetTransformationMatricesPN4math8float3x3ES1_bbRK10Matrix4x4fS4_
aLf:_ContentSizeFitter__ctor_m2349275633
ZRl:__ZL56TypeConverter_t2249118273_CustomAttributesCacheGeneratorP21CustomAttributesCache
Z0c:__ZN4PPtrI14ParticleSystemE8TransferI19StreamedBinaryWriteILb0EEEEvRT_
N8d:__ZN5physx13IslandManager6resizeEj
pbj:_Collection_1_RemoveAt_m3506636491_gshared
w_e:_tt_cmap_init
OQc:__ZN8JSONRead8TransferI9BoundsIntEEvRT_PKc17TransferMetaFlagsb
dAf:__ZN5physx2Sn21RepXVisitorReaderBaseINS_16PxVehicleDrive4WEE15complexPropertyINS_22PxRepXPropertyAccessorILj674ENS_14PxVehicleDriveENS_21PxVehicleDriveDynDataES7_EEKNS_34PxVehicleDriveDynDataGeneratedInfoEEEvPjRKT_RT0_
Va:invoke_viidi
O6c:__Z17UpdateSprites2TplIL27ParticleSystemCurveEvalMode0ELS0_2EEvfRK11MinMaxCurveS3_RK23ParticleSystemParticlesPf
Itd:__ZN5physx6shdfnd8PoolBaseINS_2Cm5BlockIPvLj16EEENS0_19ReflectionAllocatorIS5_EEE17releaseEmptySlabsEv
OOf:_Graphic_OnRectTransformDimensionsChange_m3695755375
uFg:_SByte_System_IConvertible_ToChar_m1489191771_AdjustorThunk
uR:__ZN9AudioClip7CleanupEv
Nul:__Z76RuntimeInvoker_Void_t1185182177_Int32_t2950945753_PlayableBinding_t354260709PFvvEPK10MethodInfoPvPS4_
SWh:_Interval_t1802865632_marshal_pinvoke_cleanup
fpk:__ZNK15dense_hashtableINSt3__24pairIK10KeyWrapperIP11Il2CppClassES4_EES5_N6il2cpp8metadata16SZArrayClassHashEN14dense_hash_mapIS5_S4_SA_NS5_14EqualsComparerINS9_19SZArrayClassCompareEEENS0_9allocatorIS7_EEE9SelectKeyESE_SG_E12test_deletedEj
iPf:_Graphic_GraphicUpdateComplete_m1502194795
Omd:__ZL20updateMassAndInertiabRN5physx11PxRigidBodyEPKfjPKNS_6PxVec3Eb
b5g:_InternalEnumerator_1__ctor_m63033851_AdjustorThunk
pPc:__Z18Transfer_BlittableI8JSONReadLb0EdEvRK29SerializationCommandArgumentsR31RuntimeSerializationCommandInfo
KGe:__ZN5physx24NpPtrTableStorageManagerC2Ev
Jt:__ZN7mecanim9animation21BlendTreeNodeConstant35Transfer_4_0_BackwardsCompatibilityI14SafeBinaryReadEEvRT_
Ekh:_SynchronizationAttribute_EnterContext_m1660729920
Mcf:__Z44Register_UnityEngine_Canvas_set_sortingOrderv
oYj:_Canvas_get_referencePixelsPerUnit_m3420541976
xmj:_ReadOnlyCollection_1_System_Collections_ICollection_get_SyncRoot_m2522539235_gshared
YLj:_Event_get_current_m2393892120
zQj:_VertexHelper_Clear_m627349662
z9j:__ZN6il2cpp2vm21ThreadPoolCompartment13QueueWorkItemEP17Il2CppAsyncResult
yza:__ZNK9GfxDevice13GetViewMatrixEv
cBg:_UnmanagedMemoryStream_Dispose_m2681886347
E1d:__ZN5physx7NpScene15flushSimulationEb
jYg:_InternalEnumerator_1_System_Collections_IEnumerator_get_Current_m1295084274_gshared
wKd:__ZN5physx6shdfnd8PoolBaseINS_10NpMaterialENS0_19ReflectionAllocatorIS2_EEE12allocateSlabEv
laa:__ZN8TypeTree8BlobReadERPKhS1_ib
GVl:__ZL87Display_t1387065949_CustomAttributesCacheGenerator_Display_GetSystemExtImpl_m2808197389P21CustomAttributesCache
Dag:_Array_Reverse_m3714848183
iNf:_Dropdown_ClearOptions_m4085591601
nKf:_CanvasUpdateRegistry_InternalRegisterCanvasElementForGraphicRebuild_m3522560454
Uvi:_KeyValuePair_2__ctor_m880186442_gshared
qye:__ZN5physx18ReducedVertexCloudC2EPKNS_6PxVec3Ej
zub:__ZN18LoadSceneOperation23GetAllowSceneActivationEv
Klm:_AeroplaneAudio_Awake_m3218817607
u0a:__ZN6CameraD0Ev
fpa:__ZN31CanvasBatchIntermediateRenderer16StaticInitializeEPv
Odj:_Collection_1_System_Collections_IList_IndexOf_m837396833_gshared
CF:__ZN7mecanim12AndValueMaskILb0EEEvPKNS_14ValueArrayMaskEPS1_
Stb:__ZN14SafeBinaryRead21TransferSTLStyleArrayINSt3__26vectorIi13stl_allocatorIiL18MemLabelIdentifier13ELi16EEEEEEvRT_17TransferMetaFlags
EKi:_EncoderFallback__cctor_m3806755293
VYg:_InternalEnumerator_1__ctor_m962177456_AdjustorThunk
g5e:_raccess_guess_apple_double
ZLa:__ZL18ProgramUniform1uivPK7ApiGLESjiihPKv
skl:__Z65RuntimeInvoker_Boolean_t97287965_RuntimeObject_Single_t1397266774PFvvEPK10MethodInfoPvPS4_
Q3c:__ZN27ShapeModulePropertyBindings13GetFloatValueERK14ParticleSystemi
Kkc:__ZN14Texture2DArray13RebuildMipMapEv
y3j:__ZN13Il2CppHashSetIPK17Il2CppGenericInstN6il2cpp8metadata21Il2CppGenericInstHashENS4_24Il2CppGenericInstCompareENSt3__29allocatorI10KeyWrapperIS2_EEEEC2EjRKS5_RKS6_
eDb:__Z18Transfer_BlittableI14SafeBinaryReadLb1EaEvRK29SerializationCommandArgumentsR31RuntimeSerializationCommandInfo
mBk:__ZN6il2cpp2gc16GarbageCollector14RemoveWeakLinkEPPv
Cxa:__ZN9ShaderLab20SerializedSubProgram14AddVectorParamEPKcii15ShaderParamTypei
KZi:_List_1_GetEnumerator_m563931292_gshared
PWl:__ZL96Input_t1431474628_CustomAttributesCacheGenerator_Input_INTERNAL_get_mouseScrollDelta_m2841988821P21CustomAttributesCache
dnm:_CarAIControl_SetTarget_m862053676
Paf:__ZN2UI14CanvasRenderer12CleanupClassEv
MCd:__ZNK5physx19NpRigidBodyTemplateINS_18PxArticulationLinkEE27getMinCCDAdvanceCoefficientEv
Rlg:_Enumerator__ctor_m3362421874
aml:__Z117RuntimeInvoker_CSSSize_t3377836552_IntPtr_t_Single_t1397266774_Int32_t2950945753_Single_t1397266774_Int32_t2950945753PFvvEPK10MethodInfoPvPS4_
rFm:_emscripten_glIsFramebuffer__wrapper
myk:__ZN6il2cpp2vm6Object3BoxEP11Il2CppClassPv
Vpk:__ZN6il2cpp2vm6Thread7SetNameEP12Il2CppThreadP12Il2CppString
Eq:__ZN6Object23VirtualRedirectTransferER19StreamedBinaryWriteILb1EE
WUb:__ZN13ScreenManager18SetAllowCursorLockEb
I0:__ZN11UnityEngine15CloudWebService10RestClientINS0_23WebRequestRestHeaderMapEE16SetRequestHeaderERKN4core12basic_stringIcNS4_20StringStorageDefaultIcEEEESA_
Xtb:__ZN30RuntimeInitializeOnLoadManager15ClassMethodInfo8TransferI14SafeBinaryReadEEvRT_
rlh:_ConstructionCall_InitDictionary_m2824447813
fxd:__ZNK5physx2Sc10ClothShape8isActiveEv
gUc:__ZN23ParticleSystemParticles14element_assignEjj
Y2f:_TargetException__ctor_m3701535709
hsf:__ZN5physx3Pvd17PvdPropertyFilterINS_2Sn17RepXVisitorWriterINS_16PxVehicleNoDriveEEEE14handleAccessorILj640ENS_22PxRepXPropertyAccessorILj640ENS_15PxVehicleWheelsENS_22PxVehicleWheelsDynDataESA_EEEEvRKT0_
uY:__ZL22InitializeModule_Audiov
q9d:__ZN5physx2Sq11PruningPoolD0Ev
WAb:__ZN16MemoryFileSystem8IsLockedERK13FileEntryData
ihe:__ZN3MBP15removeBoxPrunerEj
Frk:__ZN6il2cpp6icalls8mscorlib6System2IO6MonoIO5WriteEiP11Il2CppArrayiiPi
q4c:__ZN14ParticleSystem23OnGeometryJobsScheduledEj
dVk:_Mathf_InverseLerp_m4155825980
Ubl:__Z92RuntimeInvoker_RuntimeObject_RuntimeObject_RuntimeObject_SByte_t1669577662_SByte_t1669577662PFvvEPK10MethodInfoPvPS4_
Hl:_emscripten_glBindRenderbuffer
tXi:_List_1_System_Collections_IList_Insert_m1011775503_gshared
yHk:_GC_dirty_init
Sxf:__Z39getPxVehicleDriveDynDataMGearSwitchTimePKN5physx21PxVehicleDriveDynDataE
Jvk:__ZN6il2cpp2vm5Image33GetCachedMemoryMappedResourceFileEP24Il2CppReflectionAssembly
_xk:__ZN6il2cpp2vm5Field14GetValueObjectEP9FieldInfoP12Il2CppObject
laf:__ZNK2UI6Canvas16GetTargetDisplayEv
wrl:__Z69RuntimeInvoker_Void_t1185182177_Int32_t2950945753_Vector2_t2156229523PFvvEPK10MethodInfoPvPS4_
ced:__ZL15SweepBoxCapsulePKN5physx3Cct9SweepTestEPKNS0_11SweptVolumeEPKNS0_11TouchedGeomERKNS_14PxExtendedVec3ERKNS_6PxVec3ERNS0_12SweptContactE
Wma:__ZN6Object17FindObjectsOfTypeEPKN5Unity4TypeER13dynamic_arrayIPS_Lj4EEb
Npc:__ZNSt3__26vectorINS_4pairIiiEE13stl_allocatorIS2_L18MemLabelIdentifier1ELi16EEE21__push_back_slow_pathIKS2_EEvRT_
cNc:__ZN9JSONWrite8TransferI4PPtrI9Texture2DEEEvRT_PKc17TransferMetaFlags
v8i:_Collection_1_Remove_m3611142372_gshared
gSb:__ZN13MonoBehaviour17RemoveFromManagerEv
V3k:_Vector3_get_Item_m668685504_AdjustorThunk
Ose:__ZN5physx2Sc19ParticlePacketShapeD2Ev
x0f:_MonoEventInfo_GetEventInfo_m873645389
gib:__ZL11DecodeValuePPKcS0_
TMj:_GUIUtility_get_pixelsPerPoint_m2369948084
Yei:_WindowsIdentity_System_Runtime_Serialization_IDeserializationCallback_OnDeserialization_m3428853631
T3:__ZN13MemoryManagerC2Ev
SPa:__ZN12SkinMeshInfo10DeallocateEPS_
m4j:__ZNK15dense_hashtableINSt3__24pairIK10KeyWrapperIPKcEP11Il2CppClassEES5_N6il2cpp5utils11StringUtils12StringHasherIS4_EEN14dense_hash_mapIS5_S8_SE_NS5_14EqualsComparerINSB_13VmStringUtils21CaseSensitiveComparerEEENS0_9allocatorIS9_EEE9SelectKeyESJ_SL_E8min_sizeEjj
zBh:_ScrollRect_SetDirty_m214267968
bv:__ZN15SerializeTraitsI22OffsetPtrArrayTransferIN7mecanim13ValueConstantEEE8TransferI19StreamedBinaryWriteILb0EEEEvRS3_RT_
EZa:__ZN20ArchiveStorageReader28AcquireAndPrefillUnusedBlockEjPNS_11CacheResultE
mcg:_Boolean_System_IConvertible_ToDateTime_m603510836
Ekc:__Z12NHxRoughnessIA4_tEvP9Texture2DPT_iiii
jJh:_ASN1_get_Value_m1857007406
ona:__ZN18AsyncUploadManagerD2Ev
yyb:__ZN9Transform5ResetEv
P1h:_Decimal_op_Explicit_m1842265407
QJb:__Z22TransferField_NonArrayI24GenerateTypeTreeTransfer16Converter_StringEvRK23StaticTransferFieldInfoR31RuntimeSerializationCommandInfoRT0_
eZj:_CanvasRenderer_SetAlphaTexture_m2009567627
RWe:_UNITY_FT_CMap_New
JYg:_InternalEnumerator_1_get_Current_m4241643334_AdjustorThunk
MXg:_InternalEnumerator_1_MoveNext_m154749640_AdjustorThunk
PUb:__Z17MainLoopKeepalivePv
zwd:__ZN5physx7NpScene16addActorInternalERNS_7PxActorE
jdm:__ZL62Slider_t3903728902_CustomAttributesCacheGenerator_m_HandleRectP21CustomAttributesCache
j5j:__ZN15dense_hashtableI10KeyWrapperIPK17Il2CppGenericInstES4_N6il2cpp8metadata21Il2CppGenericInstHashEN14dense_hash_setIS4_S7_NS4_14EqualsComparerINS6_24Il2CppGenericInstCompareEEENSt3__29allocatorIS4_EEE8IdentityESB_SE_E12expand_arrayEjN21dense_hash_map_traits17integral_constantIbLb0EEE
Z2g:_InternalEnumerator_1_get_Current_m1588647567_AdjustorThunk
WSf:_Assembly_UnprotectedGetName_m600830855
RHl:__ZL51GCHandle_t3351438187_CustomAttributesCacheGeneratorP21CustomAttributesCache
wge:__ZN5physx17MBPUpdateWorkTaskD2Ev
V7b:__Z14CalcHullBoundsPK8Vector3fPKhhRK5PlaneRK10Matrix4x4fR10MinMaxAABB
Bsh:_InputField_get_caretBlinkRate_m3620074524
uW:__ZNK14SoundHandleAPI12GetFrequencyEv
N0b:__Z19SetupLODFadeKeywordR17ShaderPassContexti
kVd:__ZN5physx22NpParticleBaseTemplateINS_16PxParticleSystemENS_16NpParticleSystemEE23setExternalAccelerationERKNS_6PxVec3E
Uai:_RSAPKCS1SignatureFormatter_CreateSignature_m3191980616
tbb:__ZN10builtintex16GetDefaultTexEnvE16TextureDimensionb
uPa:__ZL25CheckCopyTextureArgumentsRK7ApiGLESP11GLESTextureS3_
c4c:__ZN24UVModulePropertyBindings13AddPropertiesER10vector_mapIi22ParticleModulePropertyNSt3__24lessIiEENS2_9allocatorINS2_4pairIiS1_EEEEE
JXi:_List_1_AsReadOnly_m2400800347_gshared
dEm:_glDeleteShader__wrapper
ovf:__Z30getPxVehicleGearsDataMNbRatiosPKN5physx18PxVehicleGearsDataE
nJb:__Z29Transfer_Blittable_ArrayFieldI24GenerateTypeTreeTransferyEvRT_R9ArrayInfoRK23StaticTransferFieldInfo
GWi:_ValueType_Equals_m1524437845
kpf:__ZN5physx3Pvd17PvdPropertyFilterINS_2Sn17RepXVisitorReaderINS_17PxVehicleTireDataEEEE27extendedDualIndexedPropertyILj605ES4_jjfEEvjRKNS_33PxExtendedDualIndexedPropertyInfoIXT_ET0_T1_T2_T3_EEjj
fS:__ZN4FMOD7SystemI9playSoundE17FMOD_CHANNELINDEXPNS_5SoundEbPPNS_7ChannelE
aql:__Z123RuntimeInvoker_RuntimeObject_Ray_t3785851493_RuntimeObject_Single_t1397266774_Int32_t2950945753_RuntimeObject_RuntimeObjectPFvvEPK10MethodInfoPvPS4_
KZ:__Z42Register_UnityEngine_AudioSource_set_pitchv
ytg:_Int64_GetHashCode_m703091690
XJe:__ZN13PhysicsModule31GetColliderComponentsInChildrenERK10GameObjectbbR13dynamic_arrayIPN5Unity9ComponentELj4EE
cqb:__ZN19StreamedBinaryWriteILb0EE21TransferSTLStyleArrayINSt3__26vectorI17SubstanceEnumItemNS2_9allocatorIS4_EEEEEEvRT_17TransferMetaFlags
RLj:_Event_get_commandName_m4275147343
BF:__ZN27AnimationLayerMixerPlayable17LayerMixerProcessEP35AnimationPlayableEvaluationConstantP32AnimationPlayableEvaluationInputP33AnimationPlayableEvaluationOutputM17AnimationPlayableFvS1_S3_S5_EMS_FvS1_S3_S5_ESA_MS_FvS5_S1_S3_S5_ifE
W1h:_Decimal_op_Implicit_m4256234411
yqf:__Z41getPxVehicleSuspensionDataMSpringStrengthPKN5physx23PxVehicleSuspensionDataE
v8k:__Z60RuntimeInvoker_RuntimeObject_RuntimeObject_Int16_t2552820387PFvvEPK10MethodInfoPvPS4_
Zyg:_StreamReader__ctor_m3941437302
e3c:__ZN27ColorModulePropertyBindings13GetFloatValueERK14ParticleSystemi
wEc:__Z57Register_UnityEngine_Transform_INTERNAL_get_localRotationv
EPh:_IPv6Address_get_Address_m1389170741
Ktb:__ZN30RuntimeInitializeOnLoadManager23VirtualRedirectTransferER17RemapPPtrTransfer
awm:dynCall_viif
mTf:_AssemblyName_get_Flags_m1616840602
A3g:_InternalEnumerator_1_MoveNext_m1590908934_AdjustorThunk
TXl:__ZL86Material_t340375123_CustomAttributesCacheGenerator_Material_DisableKeyword_m1245091008P21CustomAttributesCache
Qzg:_StringReader_ReadLine_m2337102945
Hre:__ZN5physx2Sc24ConstraintProjectionTree11projectPoseERNS0_19ConstraintGroupNodeE
Usf:__ZN5physx2Sn21RepXVisitorWriterBaseINS_22PxVehicleWheelsSimDataEE23extendedIndexedPropertyINS_3Pvd36PxPvdExtendedIndexedPropertyAccessorILj617ES2_KjNS_6PxVec3EEEKNS_18PxUnknownClassInfoEEEvPjRKT_RT0_
d5c:__ZL32TransformParticleMeshAnimatedUVsILb1EEvRK16ParticleMeshDataiRK22ParticleSystemTempDataRK31ParticleSystemParticlesTempData11ColorRGBA32RK26ParticleSystemRendererDataRK21ParticleSystemModulesRK10Matrix4x4fRK10Matrix3x3fRK8Vector3fRK23ParticleSystemParticlesjPPhPPf
mH:__ZN17AnimationPlayable26DisconnectNoTopologyChangeEPS_i
Vcg:_Boolean_Equals_m2410333903_AdjustorThunk
YLb:__Z35Transfer_Blittable_FixedBufferFieldI18StreamedBinaryReadILb1EEiEvRK29SerializationCommandArgumentsR31RuntimeSerializationCommandInfo
vck:_WheelCollider_get_radius_m3792867012
wBd:__ZN5physx2Sc21ArticulationJointCore28setSwingLimitContactDistanceEf
oCd:__ZNK5physx20NpRigidActorTemplateINS_18PxArticulationLinkEE14getConstraintsEPPNS_12PxConstraintEjj
Iwm:dynCall_viifffi
E3i:_List_1_ToArray_m1990123684_gshared
D1:__ZN13UploadHandlerD2Ev
fum:dynCall_viiiiiffi
P8c:__Z46ParticleSystem_MainModule_CUSTOM_GetStartColorP12Il2CppObjectR18MonoMinMaxGradient
ed:_emscripten_glBlendFuncSeparate
uaj:_Collection_1_Add_m809543251_gshared
f8:__Z20scripting_string_newPKc
MCc:__Z43Material_CUSTOM_Internal_CreateWithMaterialP12Il2CppObjectS0_
ZJj:_Parser_IsSingleline_m326238187
Qig:_CollectionBase_get_Count_m1708965601
hIg:_HMAC__ctor_m97939284
ioj:_ReadOnlyCollection_1_System_Collections_IList_get_Item_m1005238747_gshared
Quk:__ZNK24NamespaceAndNamePairHashclERKNSt3__24pairIPKcS3_EE
FWi:_ValueType_DefaultEquals_m2927252100
UKc:__ZN9JSONWrite12AppendToNodeEPN5Unity9rapidjson12GenericValueINS1_4UTF8IcEE13JSONAllocatorEEPKcRS6_
qJh:_ASN1_ToString_m1340204511
mTh:_X509Store_get_Certificates_m2149701265
OCd:__ZNK5physx19NpRigidBodyTemplateINS_18PxArticulationLinkEE27getMaxDepenetrationVelocityEv
$oj:_ReadOnlyCollection_1_System_Collections_Generic_IListU3CTU3E_set_Item_m711370667_gshared
p9l:__ZL144StandaloneInputModule_t2760469101_CustomAttributesCacheGenerator_StandaloneInputModule_t2760469101____allowActivationOnMobileDevice_PropertyInfoP21CustomAttributesCache
Ive:__ZThn8_N5physx2Gu11HeightFieldD1Ev
vMi:_StringBuilder_set_Chars_m3548656617
Pck:__ZN6il2cpp2os4File17GetFileAttributesERKNSt3__212basic_stringIcNS2_11char_traitsIcEENS2_9allocatorIcEEEEPi
fYd:__ZN5physx19NpRigidBodyTemplateINS_14PxRigidDynamicEED0Ev
EAd:__ZNK5physx19PxArticulationJoint19getConcreteTypeNameEv
etl:__Z59RuntimeInvoker_Int32_t2950945753_X509ChainStatus_t133602714PFvvEPK10MethodInfoPvPS4_
sK:__ZNSt3__26__sortIRPFbPKN8Animator11AnimatorJobES4_EPS4_EEvT0_S9_T_
LP:__ZN17AudioCustomFilterD2Ev
lIc:__ZN11IMGUIModule26SetDeveloperConsoleVisibleEb
Otl:__Z56RuntimeInvoker_Void_t1185182177_MonoResource_t4103430009PFvvEPK10MethodInfoPvPS4_
Fyb:__ZN9Transform16ResetReplacementEv
rFk:_GC_unpromote_black_lists
hEl:__ZL64DebuggerBrowsableState_t747501856_CustomAttributesCacheGeneratorP21CustomAttributesCache
LNa:__ZN18GfxFramebufferGLES18ReleaseFramebufferEP17RenderSurfaceBaseP14GfxContextGLES
fOc:__Z18Transfer_BlittableI8JSONReadLb1EiEvRK29SerializationCommandArgumentsR31RuntimeSerializationCommandInfo
RWf:_EnumBuilder_GetEvent_m4074915332
S2:__ZN19CloudServiceHandler34HandleSaveFileWebRequestPlayerLoopEv
bTl:__ZL82BigInteger_t2902905090_CustomAttributesCacheGenerator_BigInteger__ctor_m2474659844P21CustomAttributesCache
_G:__ZN7mecanim21ValueArrayReverseCopyEPKNS_18ValueArrayConstantEPKNS_10ValueArrayES2_PS3_PKi
tP:__Z31GetParentSampleClipFromInstancePN11SoundHandle8InstanceE
sAj:_InternalAsyncResult_get_BytesRead_m3975435112
bjc:__ZNK28RectTransformPropertyBinding13GetFloatValueERKN11UnityEngine9Animation10BoundCurveE
Djd:__ZN5physx11PxHitBufferINS_12PxOverlapHitEE14processTouchesEPKS1_j
gac:__ZN6Camera22StandaloneCustomRenderENS_10RenderFlagEP6ShaderRKN4core12basic_stringIcNS3_20StringStorageDefaultIcEEEEPNS_21PerformRenderFunctionE
Ppi:_Array_InternalArray__IndexOf_TisKeyValuePair_2_t2401056908_m4118889689_gshared
ntb:__ZNSt3__26vectorI4PPtrI6ObjectE13stl_allocatorIS3_L18MemLabelIdentifier52ELi16EEE6assignINS_11__wrap_iterIPS3_EEEENS_9enable_ifIXaasr21__is_forward_iteratorIT_EE5valuesr16is_constructibleIS3_NS_15iterator_traitsISD_E9referenceEEE5valueEvE4typeESD_SD_
$kj:_Collection_1_System_Collections_ICollection_get_IsSynchronized_m500240145_gshared
vSl:__ZL68X509CertificateCollection_t3399372417_CustomAttributesCacheGeneratorP21CustomAttributesCache
lZd:__ZL22addOrRemoveRigidObjectILb0ELb0ELb0ELb1EN5physx3Scb11RigidStaticEEvRNS0_2Sc5SceneERT3_b
mMk:__ZN6il2cpp2os16ThreadLocalValue8GetValueEPPv
pSh:_X509Certificate2_get_PublicKey_m370665820
clh:_AsyncResult_AsyncProcessMessage_m2076471000
zY:__ZN13AudioListener17ReadExtensionNameEi
Yc:invoke_iiidii
Urd:__ZNK5physx2Gu19SupportMapLocalImplINS0_11ConvexHullVEE18doWarmStartSupportEiRNS_6shdfnd3aos5Vec3VE
Y7i:_Collection_1_System_Collections_Generic_ICollectionU3CTU3E_get_IsReadOnly_m1419845799_gshared
Utd:__ZN5physx6shdfnd4sortIPvNS0_4LessIS2_EENS0_19ReflectionAllocatorINS_2Cm5BlockIS2_Lj8EEEEEEEvPT_jRKT0_RKT1_j
cY:__ZN9AudioClip15InitializeClassEv
dKd:__ZNK5physx9NpPhysics11getNbShapesEv
rq:setThrew
Qnh:_SoapMethodAttribute_get_XmlNamespace_m4029617514
vkc:__ZL21BuildEmptyCubeTexturePKci11ColorRGBA3217TextureColorSpace
qXj:_FontTextureRebuildCallback_BeginInvoke_m304512862
r0k:_SelectionBaseAttribute__ctor_m2749097321
gsa:__ZN14SafeBinaryRead21TransferSTLStyleArrayINSt3__26vectorIN9ShaderLab20SerializedSubProgramENS1_9allocatorIS4_EEEEEEvRT_17TransferMetaFlags
mqi:_Array_InternalArray__IndexOf_TisX509ChainStatus_t133602714_m48896230_gshared
hYa:__ZN19dynamic_block_arrayI13FileEntryInfoLj32EE4growEj
oOc:__Z15Transfer_StringI8JSONReadLb1EEvRK29SerializationCommandArgumentsR31RuntimeSerializationCommandInfo
uKa:__ZN6prcoreL17RemapGenericFloatI17TexFormatRGBFloat15TexFormatRGHalfEEvPKNS_9InnerInfoE
p7l:__ZL95WheelCollider_t2307365979_CustomAttributesCacheGenerator_WheelCollider_GetGroundHit_m3421107888P21CustomAttributesCache
Dhi:_String_IndexOf_m3406607758
jZe:_sfnt_load_face
F4e:_UNITY_FT_Render_Glyph_Internal
xsk:__ZNSt3__212basic_stringIDsNS_11char_traitsIDsEENS_9allocatorIDsEEE21__grow_by_and_replaceEjjjjjjPKDs
jXe:_UNITY_ft_service_list_lookup
OGb:__Z18Transfer_BlittableI17RemapPPtrTransferLb1E11ColorRGBA32EvRK29SerializationCommandArgumentsR31RuntimeSerializationCommandInfo
JHc:__ZN5IMGUI21SelectReceivingWindowER8GUIStateb
xIg:_HMAC_Initialize_m3157696427
Wcd:__ZN5physx2Gu20intersectTriangleBoxERKNS_6PxVec3ES3_S3_S3_S3_
aAg:_SynchronizedWriter_Write_m2529550287
_Id:__ZN5physx10NpMaterial8setFlagsENS_7PxFlagsINS_14PxMaterialFlag4EnumEtEE
$$i:_List_1_System_Collections_ICollection_CopyTo_m3643417403_gshared
s3:__ZN13BaseAllocator13TryDeallocateEPv
TLb:__Z29Transfer_Blittable_ArrayFieldI19StreamedBinaryWriteILb0EEfEvRT_R9ArrayInfoRK23StaticTransferFieldInfo
cAj:_ListPool_1_Release_m1363449253_gshared
iRh:_X509SubjectKeyIdentifierExtension__ctor_m2055934916
jGi:_Enumerator_Dispose_m2531396701_AdjustorThunk
lej:_Collection_1_set_Item_m480139225_gshared
EAb:__ZN16MemoryFileSystem5WriteER13FileEntryDatayPvPy
j2a:__ZNSt3__26vectorIN12FlareManager10FlareEntryENS_9allocatorIS2_EEE21__push_back_slow_pathIKS2_EEvRT_
npm:_sprintf
L$l:__ZL67NativeContainerAttribute_t2600515814_CustomAttributesCacheGeneratorP21CustomAttributesCache
fxc:__ZN9Scripting25CreateNullExceptionObjectE18ScriptingObjectPtr
tLh:_PrivateKeyInfo_DecodeRSA_m2889346634
nQ:__ZN13AudioListener17RemoveFromManagerEv
$d:_glAttachShader
lLf:_ContentSizeFitter_SetLayoutHorizontal_m2833273874
$Ee:__ZN5physx6shdfnd8internal8HashBaseINS0_4PairIKtPKcEEtNS0_4HashItEENS1_11HashMapBaseItS6_S9_NS_7profile26WrapperReflectionAllocatorIS6_EEE6GetKeyESD_Lb1EE6createERS4_Rb
L5:__ZNK6Camera19GetProjectionMatrixEv
dte:__ZNK5physx2Cm12DelegateTaskINS_2Sc5SceneEXadL_ZNS3_18clothPreprocessingEPNS_10PxBaseTaskEEEE7getNameEv
x2d:__ZNK5physx7NpScene24getWakeCounterResetValueEv
wXd:__ZN5physx20NpRigidActorTemplateINS_14PxRigidDynamicEE17resolveReferencesERNS_24PxDeserializationContextE
i6c:__Z19UpdateSingleRow2TplIL27ParticleSystemCurveEvalMode2ELS0_4EEvfRK11MinMaxCurveS3_RK23ParticleSystemParticlesPfbiii
bth:_InputField_SetToCustomIfContentTypeIsNot_m2813459946
m5k:__Z49RuntimeInvoker_DateTime_t3738529785_RuntimeObjectPFvvEPK10MethodInfoPvPS4_
aqe:__ZNK5physx16PxsSolverEndTask7getNameEv
n9h:_Guid_GetHashCode_m3042133858_AdjustorThunk
Pje:__ZN5physx2Gu32PCMConvexVsMeshContactGeneration20generateLastContactsEv
G7:__Z38PreallocateObjectFromPersistentManagerib
GLj:_Event_t2956885303_marshal_pinvoke_cleanup
R1l:__ZL57SphereCollider_t2077223608_CustomAttributesCacheGeneratorP21CustomAttributesCache
iJd:__ZThn12_N5physx10NpMaterialD0Ev
hWh:_Interpreter_Backtrack_m2828876822
_eb:__ZNK9Texture2D20GetUnscaledTextureIDEv
$Fl:__ZL103TypeBuilder_t1073948154_CustomAttributesCacheGenerator_TypeBuilder_DefineDefaultConstructor_m2168449784P21CustomAttributesCache
KFg:_SByte_System_IConvertible_ToType_m4075253447
uMh:_StrongName_get_PublicKey_m1841537984
rze:__ZN5physx6shdfnd4sortIjNS_19SortBoundsPredicateENS0_19ReflectionAllocatorIjEEEEvPT_jRKT0_RKT1_j
iCm:_glFenceSync__wrapper
ILd:__ZN5physx7NpShape14onRefCountZeroEv
H2k:_Transform_INTERNAL_get_worldToLocalMatrix_m2730237241
xUc:__ZNK14ParticleSystem7GetLoopEv
jbg:_AssemblyLoadEventHandler_Invoke_m1462077361
Qye:__ZL15TestContainmentRKN5physx6PxVec3EPKfjPKNS_2Gu15HullPolygonDataE
aul:__Z51RuntimeInvoker_Void_t1185182177_HitInfo_t3229609740PFvvEPK10MethodInfoPvPS4_
dfb:__ZNK9Texture2D26CanReuploadDataToGfxDeviceEv
RQb:__ZN18StreamedBinaryReadILb0EE21TransferSTLStyleArrayI13dynamic_arrayI4AABBLj4EEEEvRT_17TransferMetaFlags
sMl:__ZL63CodeAccessPermission_t2681295399_CustomAttributesCacheGeneratorP21CustomAttributesCache
jvb:__Z29ClearRepeatingLogMessageStatev
k1g:_InternalEnumerator_1_get_Current_m3191242573_gshared
Xdg:_Byte_Equals_m1161982810_AdjustorThunk
stl:__Z53RuntimeInvoker_Int32_t2950945753_UICharInfo_t75501106PFvvEPK10MethodInfoPvPS4_
Rve:__ZN5physx2Gu11HeightField12loadFromDescERKNS_17PxHeightFieldDescEb
mjc:__ZN15QualitySettings12CleanupClassEv
Kma:__ZN21EnlightenSceneMappingaSERKS_
f3i:_List_1_GrowIfNeeded_m278824317_gshared
PTa:__ZN7ApiGLESD2Ev
q$a:__ZN9Transform47ClearTransformHierarchyAndApplyToSerializedDataEv
D$d:__ZN5physx6shdfnd8PoolBaseINS_2Gu30LargePersistentContactManifoldENS0_19ReflectionAllocatorIS3_EEE12allocateSlabEv
DPc:__ZN8JSONRead21TransferSTLStyleArrayINSt3__26vectorI8MonoPPtr13stl_allocatorIS3_L18MemLabelIdentifier1ELi16EEEEEEvRT_17TransferMetaFlags
rug:_IntPtr_op_Explicit_m536245531
Tuf:__ZN5physx2Sn21RepXVisitorReaderBaseINS_19PxVehicleClutchDataEE8pushNameEPKc
A0a:__ZN6Camera23VirtualRedirectTransferER19StreamedBinaryWriteILb0EE
ywm:dynCall_fidi
Kfk:__ZN15dense_hashtableINSt3__24pairIK10KeyWrapperINS1_IPK9FieldInfoP11Il2CppClassEEEjEES9_17ReflectionMapHashIS8_EN14dense_hash_mapIS9_jSD_NS9_14EqualsComparerINS0_8equal_toIS8_EEEENS0_9allocatorISB_EEE9SelectKeyESI_SK_E12resize_deltaEjj
Tne:__ZN5physx20getVertexEdgeIndicesERKNS_2Gu11HeightFieldEjjjPNS_8EdgeDataE
bYi:_List_1_TrimExcess_m3433550210_gshared
J4d:__ZN5physx6shdfnd5ArrayIPNS_2Sc8BodyCoreENS0_19ReflectionAllocatorIS4_EEE6resizeEjRKS4_
M4j:__ZNK15dense_hashtableINSt3__24pairIK10KeyWrapperIPK19Il2CppGenericMethodEPK26Il2CppGenericMethodIndicesEES6_N6il2cpp8metadata23Il2CppGenericMethodHashEN14dense_hash_mapIS6_SA_SE_NS6_14EqualsComparerINSD_26Il2CppGenericMethodCompareEEENS0_9allocatorISB_EEE9SelectKeyESI_SK_E8min_sizeEjj
sld:__ZN5physx3Cct26CharacterControllerManager16createControllerERNS_9PxPhysicsEPNS_7PxSceneERKNS_16PxControllerDescE
aNj:_GUILayoutEntry__ctor_m2229197035
Y1:__ZN11UnityEngine15CloudWebService14RestDownloaderD2Ev
lWf:_EnumBuilder_get_Assembly_m1175292766
ddc:__Z29StdTemplateConversionFunctionIjhEbPvR14SafeBinaryRead
Qda:__ZN15dense_hashtableINSt3__24pairIKN9ShaderLab7Program23ShaderKeywordSetAndHashEPKNS2_10SubProgramEEES4_NS3_24ShaderKeywordHashFunctorEN14dense_hash_mapIS4_S8_SA_NS0_8equal_toIS4_EE13stl_allocatorIS9_L18MemLabelIdentifier67ELi16EEE9SelectKeyESD_SG_E15insert_noresizeERKS9_
shj:_Array_swap_TisCustomAttributeNamedArgument_t287865710_TisCustomAttributeNamedArgument_t287865710_m881919420_gshared
Opb:__ZN14SubstanceInput8TransferI24GenerateTypeTreeTransferEEvRT_
dxc:__ZNK13MonoBehaviour13GetScriptTypeEv
Yve:__ZN5physx6shdfnd8internal8HashBaseIPNS_2Gu12TriangleMeshES5_NS0_4HashIS5_EENS1_11HashSetBaseIS5_S7_NS0_9AllocatorELb1EE6GetKeyES9_Lb1EE15reserveInternalEj
JUg:_SslClientStream_set_ClientCertSelectionDelegate_m1261530976
Dxf:__Z39setPxVehicleDriveDynData_GearSwitchTimePN5physx21PxVehicleDriveDynDataEf
Se:_SDL_FreeRW
Q7d:__ZN5physx6shdfnd8PoolBaseINS_2Cm5BlockIhLj128EEENS0_19ReflectionAllocatorIS4_EEE15disposeElementsEv
ytf:__ZN5physx3Pvd17PvdPropertyFilterINS_2Sn17RepXVisitorWriterINS_23PxVehicleSuspensionDataEEEE14handleAccessorILj590ENS_22PxRepXPropertyAccessorILj590ES4_ffEEEEvRKT0_
Bul:__Z79RuntimeInvoker_Void_t1185182177_Int32_t2950945753_ParameterModifier_t1461694466PFvvEPK10MethodInfoPvPS4_
Bbf:__Z34CanvasRenderer_Get_Custom_PropCullP12Il2CppObject
UTd:__ZN5physx3Scb14ParticleSystem14setRestOffsetsEjRKNS_16PxStrideIteratorIKjEERKNS2_IKfEE
SCe:__ZN12MeshCollider11CreateShapeEPvPK9RigidbodyRK8Vector3f
$V:__ZN20SoundChannelInstance8getDelayE14FMOD_DELAYTYPEPjS1_
QJk:__ZNSt3__26__treeINS_12__value_typeIPvxEENS_19__map_value_compareIS2_S3_NS_4lessIS2_EELb1EEENS_9allocatorIS3_EEE12__find_equalIS2_EERPNS_16__tree_node_baseIS2_EESF_RKT_
fea:__ZNSt3__26vectorIN20GpuProgramParameters15StructParameterENS_9allocatorIS2_EEEC2ERKS5_
OWg:_ArrayReadOnlyList_1_Contains_m232667507_gshared
kel:__Z77RuntimeInvoker_Boolean_t97287965_IntPtr_t_Int32_t2950945753_SByte_t1669577662PFvvEPK10MethodInfoPvPS4_
LXk:_PlayableHandle_GetPlayableType_m432385838_AdjustorThunk
u3e:__ZNSt3__26vectorIN20TextRenderingPrivate8FontImpl13CharacterInfoE13stl_allocatorIS3_L18MemLabelIdentifier1ELi16EEE8__appendEj
Jyg:_Stream_Dispose_m2589290611
v:tempBigInt
gui:_Array_InternalArray__Insert_TisKeyframe_t4206410242_m1558638568_gshared
DOl:__ZL77Convert_t2465617642_CustomAttributesCacheGenerator_Convert_ToByte_m3567528984P21CustomAttributesCache
_e:_emscripten_glVertexAttrib1fv
Psa:__ZNSt3__26vectorIN9ShaderLab20SerializedSubProgram12UAVParameterENS_9allocatorIS3_EEE7reserveEj
O5l:__ZL89ParticleSystem_t1800779281_CustomAttributesCacheGenerator_ParticleSystem_Stop_m3125854227P21CustomAttributesCache
fKg:_BigInteger__ctor_m2644482640
Ysm:__ZSt11__terminatePFvvE
x3d:__ZN5physx13NpVolumeCacheC2EPNS_2Sq17SceneQueryManagerEjj
Qud:__ZThn24_N5physx2Sc20ArticulationJointSimD1Ev
Hom:_ResetTrigger__ctor_m4075058335
FS:__ZN12AudioManager14systemCallbackEP11FMOD_SYSTEM24FMOD_SYSTEM_CALLBACKTYPEPvS3_
a0l:__ZL57PlayableOutput_t3179894105_CustomAttributesCacheGeneratorP21CustomAttributesCache
aqj:_ReadOnlyCollection_1_System_Collections_Generic_ICollectionU3CTU3E_Clear_m3451551308_gshared
YIf:_BaseMeshEffect_OnEnable_m3291426649
kPk:_ClassLibraryInitializer_Init_m988673678
kbg:_AssemblyLoadEventHandler_BeginInvoke_m1281107466
VTd:__ZN5physx2Sc18ParticleSystemCore14setRestOffsetsEjRKNS_16PxStrideIteratorIKjEERKNS2_IKfEE
ldd:__ZN5physx2Gu16testPolyDataAxisERKNS0_8CapsuleVERKNS0_13PolygonalDataEPNS0_12SupportLocalERKNS_6shdfnd3aos6FloatVERSB_RNSA_5Vec3VE
G8a:__ZN16ReflectionProbes16UpdateSampleDataEv
mWc:__Z9UpdateTplIL27ParticleSystemCurveEvalMode1EEvRK11MinMaxCurveR23ParticleSystemParticlesjjPKN4math8floatNx3E
Hxd:__ZN5physx2Sc17ParticleSystemSimD0Ev
x0l:__ZL90PlayerEditorConnectionEvents_t3411787513_CustomAttributesCacheGenerator_disconnectionEventP21CustomAttributesCache
YZl:__ZL58HideInInspector_t1216868993_CustomAttributesCacheGeneratorP21CustomAttributesCache
Jhm:__ZL50CarAudio_t499525394_CustomAttributesCacheGeneratorP21CustomAttributesCache
D7h:_CultureInfo_GetCultureInfo_m56098747
fpb:__ZN18ProceduralMaterial23VirtualRedirectTransferER17RemapPPtrTransfer
pkb:__ZN14Texture2DArray5ResetEv
j7b:__Z20AddActiveLocalLightsR11CullResultsR27LocalLightCullingParametersPPK15SharedLightDataPK8Vector4fRK9IndexListPfRSA_R12ActiveLightsSG_P5RectTIfEP13TargetEyeMask
KDl:__ZL80Hashtable_t1853889766_CustomAttributesCacheGenerator_Hashtable__ctor_m1763145853P21CustomAttributesCache
eng:_Convert_ToDecimal_m1284148187
kcj:_Collection_1__ctor_m3489157029_gshared
Gzm:_emscripten_glRenderbufferStorage__wrapper
Wdk:__ZNK6il2cpp2vm14TypeNameParser10NextWillBeEcb
FUe:_cf2_getNormalizedVector
wf:_JS_Sound_Play
Nef:__Z26GetUnityConnectSettingsPtrv
Zqj:_ReadOnlyCollection_1_System_Collections_IList_set_Item_m1538987737_gshared
m7g:_DefaultComparer_Compare_m1920986590_gshared
BTg:_RecordProtocol_ProcessChangeCipherSpec_m15839975
ura:__ZN9ShaderLab16SerializedShader8TransferI14SafeBinaryReadEEvRT_
LVa:__ZN5Mutex7TryLockEv
lQf:_GridLayoutGroup_set_constraint_m3308895167
B3l:__ZL103AudioSource_t3935305588_CustomAttributesCacheGenerator_AudioSource_ReadExtensionPropertyValue_m72717540P21CustomAttributesCache
Nlh:_ConstructionCallDictionary_SetMethodProperty_m3145285304
qsg:_Int32_System_IConvertible_ToUInt32_m3557270157
yil:__Z243RuntimeInvoker_Void_t1185182177_Int16_t2552820387_RuntimeObject_Int32_t2950945753_Int32_t2950945753_Int32_t2950945753_SByte_t1669577662_SByte_t1669577662_SByte_t1669577662_SByte_t1669577662_Int16_t2552820387_SByte_t1669577662_SByte_t1669577662PFvvEPK10MethodInfoPvPS4_
Ctg:_Int64_Parse_m3309897583
MJ:__ZN7mecanim8skeleton13SkeletonAlignEPKNS0_8SkeletonERKN4math7_float4ES7_i
nlc:__ZN19ShaderPropertySheet16SetVectorIndexedEN9ShaderLab16FastPropertyNameEifRK8Vector4fNS_8SetFlagsE
gSi:_Type_get_IsAbstract_m1120089130
O6h:_CompareInfo_IndexOf_m667936183
yr:__ZN14SafeBinaryRead21TransferSTLStyleArrayIN4core12basic_stringIcNS1_20StringStorageDefaultIcEEEEEEvRT_17TransferMetaFlags
wLj:_UriFormatException__ctor_m1115096473
k$g:_InternalEnumerator_1_Dispose_m2818366163_AdjustorThunk
Kni:_Array_InternalArray__IEnumerable_GetEnumerator_TisSlot_t384495010_m460993382_gshared
xXl:__ZL114MonoBehaviour_t3962482529_CustomAttributesCacheGenerator_MonoBehaviour_StopCoroutineViaEnumerator_Auto_m3883784228P21CustomAttributesCache
Unk:__ZN15dense_hashtableINSt3__24pairIK10KeyWrapperINS1_IP11Il2CppClassjEEES4_EES6_N6il2cpp8metadata14ArrayClassHashEN14dense_hash_mapIS6_S4_SB_NS6_14EqualsComparerINSA_17ArrayClassCompareEEENS0_9allocatorIS8_EEE9SelectKeyESF_SH_E9copy_fromERKSK_j
Hdc:__Z29StdTemplateConversionFunctionIayEbPvR14SafeBinaryRead
SYd:__ZNK5physx20NpRigidActorTemplateINS_13PxRigidStaticEE14getConstraintsEPPNS_12PxConstraintEjj
Jfd:__ZN25MeshMTDGenerationCallbackD0Ev
nyl:__Z55RuntimeInvoker_Boolean_t97287965_Nullable_1_t2603721331PFvvEPK10MethodInfoPvPS4_
MOj:_GUIUtility_IsExitGUIException_m3644066650
z2:__ZN11UnityEngine15CloudWebService14DataDispatcher4StopEv
xnl:__Z59RuntimeInvoker_MinMaxGradient_t3677460847_Color_t2555686324PFvvEPK10MethodInfoPvPS4_
fqg:_Int16_System_IConvertible_ToUInt64_m134975563
Rsa:__ZNSt3__26vectorIN9ShaderLab20SerializedSubProgram12UAVParameterENS_9allocatorIS3_EEE8__appendEj
nHl:__ZL68TargetInvocationException_t4266643902_CustomAttributesCacheGeneratorP21CustomAttributesCache
pjk:__ZNK15dense_hashtableINSt3__24pairIK10KeyWrapperINS1_IPK9EventInfoP11Il2CppClassEEEjEES9_17ReflectionMapHashIS8_EN14dense_hash_mapIS9_jSD_NS9_14EqualsComparerINS0_8equal_toIS8_EEEENS0_9allocatorISB_EEE9SelectKeyESI_SK_E12test_deletedERK24dense_hashtable_iteratorISB_S9_SD_SM_SI_SK_E
BHc:__ZN5IMGUI9GUIWindow5OnGUIER8GUIState
nSj:_AudioConfigurationChangeHandler_EndInvoke_m4175380841
wNe:__ZN9Heightmap8TransferI14SafeBinaryReadEEvRT_
bgi:_Single_System_IConvertible_ToDecimal_m325860800_AdjustorThunk
Psi:_Array_InternalArray__ICollection_CopyTo_TisSingle_t1397266774_m455540885_gshared
dXa:__ZN17ScriptingGCHandle7AcquireE18ScriptingObjectPtr25ScriptingGCHandleWeakness
q3l:__ZL83AudioSource_t3935305588_CustomAttributesCacheGenerator_AudioSource_Stop_m2682712816P21CustomAttributesCache
ygl:__Z74RuntimeInvoker_RuntimeObject_RuntimeObject_Int64_t3736567304_RuntimeObjectPFvvEPK10MethodInfoPvPS4_
v9e:__ZN2UI14CanvasRenderer14AttachToCanvasER8JobFencePNS_6CanvasENS0_15InstructionTypeE
PDd:__ZN5physx12NpConstraint8comShiftEPNS_12PxRigidActorE
Jdh:_Enumerator__ctor_m1734342590_gshared
evm:dynCall_iifiii
Vhl:__Z85RuntimeInvoker_Int32_t2950945753_RuntimeObject_Int32U26_t1369213839_Int32_t2950945753PFvvEPK10MethodInfoPvPS4_
uIa:__Z21HasAlphaTextureFormat13TextureFormat
OX:__ZN12AudioManager6UpdateEv
nIa:__ZN14ImageReference9BlitImageERKS_NS_8BlitModeE
nB:__ZN8Animator12AddToManagerEv
IBg:_MissingFieldException__ctor_m3742452630
Zsc:__Z26ApplyBlendShapesToVerticesR12SkinMeshInfoRKN4math5_int4EPNS1_8floatNx3ES6_
lcd:__ZNK5physx2Gu16SupportLocalImplINS0_11ConvexHullVEE9doSupportERKNS_6shdfnd3aos5Vec3VERNS5_6FloatVESA_
aTb:__ZN23CachedSerializationDataD2Ev
g9b:__ZNK25CameraStackRenderingState31CalculateStereoCameraTargetTypeEv
g9c:__ZNK5physx3Cct13BoxController8getActorEv
g8a:__ZN14RenderSettings23VirtualRedirectTransferER14SafeBinaryRead
bTe:__Z22RegisterModule_Terrainv
jsf:__ZN5physx3Pvd17PvdPropertyFilterINS_2Sn17RepXVisitorWriterINS_22PxVehicleWheelsDynDataEEEE27handleExtendedIndexPropertyILj632ES4_fKjNS_18PxUnknownClassInfoEEEvjRKNS_29PxExtendedIndexedPropertyInfoIXT_ET0_T2_T1_EERKT3_
nAk:__ZN6il2cpp2os10ThreadImpl15CurrentThreadIdEv
sui:_Array_InternalArray__Insert_TisVector2_t2156229523_m2148694950_gshared
Q3a:__ZN17GlobalGameManager8TransferI17RemapPPtrTransferEEvRT_
Iwe:__ZN5physx6shdfnd8internal8HashBaseIPNS_2Gu12TriangleMeshES5_NS0_4HashIS5_EENS1_11HashSetBaseIS5_S7_NS0_9AllocatorELb1EE6GetKeyES9_Lb1EE5eraseERKS5_
tci:_SymmetricAlgorithm_get_Key_m3241860519
vvh:_U3CMouseDragOutsideRectU3Ec__Iterator1_Reset_m2233410497
Nsh:_InputField_set_customCaretColor_m720445789
N7a:__ZN16LevelGameManager8TransferI18StreamedBinaryReadILb0EEEEvRT_
d1e:_UNITY_tt_face_load_fpgm
k$a:__Z17IsObjectAvailablei
rqb:__ZN12InputManagerD0Ev
t5i:_Queue_1_Peek_m1713833142_gshared
CKk:__ZN6il2cpp6icalls8mscorlib6System11Diagnostics10StackTrace9get_traceEP15Il2CppExceptionib
TOi:_ExecutionContext_Capture_m681135907
pwi:_Dictionary_2_System_Collections_IDictionary_Add_m4011968134_gshared
lEd:__ZN5physx2Sc9RigidCore20removeShapeFromSceneERNS0_9ShapeCoreEb
uPb:__Z18Transfer_BlittableI18StreamedBinaryReadILb0EELb1EtEvRK29SerializationCommandArgumentsR31RuntimeSerializationCommandInfo
ZYg:_InternalEnumerator_1_System_Collections_IEnumerator_get_Current_m2889979481_AdjustorThunk
Srm:_posix_memalign
mze:__ZN5physx11RTreeCooker18buildFromTrianglesERNS_2Gu5RTreeEPKNS_6PxVec3EjPKtPKjjRNS_6shdfnd5ArrayIjNSB_19ReflectionAllocatorIjEEEEPNS0_13RemapCallbackEfNS_17PxMeshCookingHint4EnumE
wyd:__ZN5physx6shdfnd5ArrayIPvNS0_15InlineAllocatorILj256ENS0_19ReflectionAllocatorINS_14NpArticulationEEEEEE15growAndPushBackERKS2_
yZk:_Rect_get_position_m2115952571
APj:_AesManaged_GenerateKey_m2004209814
poj:_ReadOnlyCollection_1_get_Item_m4005849861_gshared
zDh:_Slider_get_direction_m3871593184
nJh:_ASN1_GetBytes_m3305539297
y3i:_List_1_Remove_m2092116835_gshared
gPl:__ZL77Convert_t2465617642_CustomAttributesCacheGenerator_Convert_ToSByte_m717245755P21CustomAttributesCache
$6g:_DefaultComparer__ctor_m2039558311_gshared
K7:__ZNK15MonoScriptCache7ReleaseEv
A1j:__ZN6il2cpp2vm5Class13HasReferencesEP11Il2CppClass
tle:__ZN5physx9PxTaskMgrC2EPNS_15PxCpuDispatcherEPNS_15PxGpuDispatcherEPNS_15PxSpuDispatcherE
Gfg:_CLSCompliantAttribute__ctor_m581760440
Kg:_glBindTexture
fqm:_snprintf
wug:_InvalidCastException__ctor_m2551002860
gNe:__ZN4PPtrI11TerrainDataE8TransferI19StreamedBinaryWriteILb0EEEEvRT_
WAm:_emscripten_glVertexAttrib1fv__wrapper
lul:__Z76RuntimeInvoker_Void_t1185182177_Int32_t2950945753_KeyValuePair_2_t2401056908PFvvEPK10MethodInfoPvPS4_
Jwb:__Z36scripting_liveness_calculation_begin17ScriptingClassPtriPFvPP12Il2CppObjectiPvES3_PFvvES7_
cu:__ZN7mecanim12statemachine13StateConstant8TransferI24GenerateTypeTreeTransferEEvRT_
H6k:__Z81RuntimeInvoker_Void_t1185182177_RuntimeObject_Int32_t2950945753_Int32_t2950945753PFvvEPK10MethodInfoPvPS4_
uzm:_emscripten_glGetProgramInfoLog__wrapper
nM:__ZN25AnimatedPropertyEvaluator29BindCurveToScriptingObjectPtrERKN13AnimationClip10FloatCurveEj18ScriptingObjectPtrb
rMl:__ZL80AllowPartiallyTrustedCallersAttribute_t1828959166_CustomAttributesCacheGeneratorP21CustomAttributesCache
q9l:__ZL52InputMode_t3382566315_CustomAttributesCacheGeneratorP21CustomAttributesCache
H9:__ZN17PersistentManager23DestroyFromFileInternalEi
VQk:_Display__ctor_m501911701
Lmj:_ReadOnlyCollection_1_System_Collections_Generic_IListU3CTU3E_Insert_m1020890112_gshared
XMf:_Dropdown_get_onValueChanged_m2462066659
jMf:_DefaultControls_SetDefaultTextValues_m1943359795
r2b:__Z19SetupMotionMatricesR6CameraR18RPDataMotionVector
S_j:__ZL7log2_64y
BOh:_TypeConverterAttribute_Equals_m1580461255
gL:__ZN26AnimatorControllerPlayable18PrepareForPlaybackERN7mecanim6memory9AllocatorE
GF:__ZN7mecanim5human25HumanPoseAddOverrideLayerERNS0_9HumanPoseERKS1_fRKNS_6bitsetILj83EEE
gQf:_GridLayoutGroup_get_cellSize_m2967185053
Bbe:__ZN5physx19PxsMaterialCombiner24combineIsotropicFrictionERKNS_15PxsMaterialDataES3_
HCj:_PKCS12_Decrypt_m1280162536
gZg:_InternalEnumerator_1_get_Current_m3081223448_gshared
$Lj:_Event_get_isMouse_m1058251071
e5a:__ZN10VertexDataC2ERKS_17ShaderChannelMask10MemLabelId
$Ud:__ZN5physx22NpParticleBaseTemplateINS_16PxParticleSystemENS_16NpParticleSystemEE20lockParticleReadDataEv
BSe:__ZN4Tree26CalculateSupportedMessagesEv
l6i:_Collection_1_IndexOf_m3762683187_gshared
MXe:_otv_JSTF_validate
iea:__ZN22CreateGpuProgramOutputC2Ev
nLg:_BigInteger_op_LessThanOrEqual_m3925173639
eSk:_PersistentCallGroup_Initialize_m4253175514
lcg:_Boolean_System_IConvertible_ToChar_m4279513009_AdjustorThunk
sNh:_DictionaryNodeEnumerator__ctor_m1005316675
DBl:__ZL66RuntimeArray_CustomAttributesCacheGenerator_Array_Sort_m3145621264P21CustomAttributesCache
jvh:_InputField_get_layoutPriority_m2945430764
urg:_NumberFormatter_ScaleOrder_m3813786990
jIi:_List_1_GetEnumerator_m239622569_gshared
oam:__ZL60OptionData_t3270282352_CustomAttributesCacheGenerator_m_TextP21CustomAttributesCache
xol:__Z43RuntimeInvoker_VerticalWrapMode_t2936607737PFvvEPK10MethodInfoPvPS4_
Ejf:__ZN5physx15PxVehicleWheels15exportExtraDataERNS_22PxSerializationContextE
gAi:_EqualityComparer_1__ctor_m2241711498_gshared
uLh:_PrivateKeyInfo_DecodeDSA_m771724585
uxe:__ZN5physx7Cooking16cookTriangleMeshERKNS_18PxTriangleMeshDescERNS_14PxOutputStreamE
bhk:__ZNK15dense_hashtableINSt3__24pairIK10KeyWrapperINS1_IPK10MethodInfoP11Il2CppClassEEEjEES9_17ReflectionMapHashIS8_EN14dense_hash_mapIS9_jSD_NS9_14EqualsComparerINS0_8equal_toIS8_EEEENS0_9allocatorISB_EEE9SelectKeyESI_SK_E23find_position_with_hashERSA_j
t7l:__ZL53EventHandle_t600343995_CustomAttributesCacheGeneratorP21CustomAttributesCache
RIe:__ZN14CompletionTask4InitEPN5physx7PxSceneE
Chg:_SynchronizedArrayListWrapper_get_SyncRoot_m3862302789
Ivd:__ZN5physx2Sc7ElementD0Ev
OUi:_UInt32_System_IConvertible_ToSByte_m1061556466
Tze:__ZN5physx6shdfnd10Foundation7releaseEv
Iih:_WellKnownClientTypeEntry__ctor_m2471908952
z1j:__ZN6il2cpp2vm5Class4InitEP11Il2CppClass
yAf:__ZN5physx3Pvd17PvdPropertyFilterINS_2Sn17RepXVisitorWriterINS_27PxVehicleDifferential4WDataEEEE14handleAccessorILj542ENS_22PxRepXPropertyAccessorILj542ES4_ffEEEEvRKT0_
_c:invoke_vidi
rEg:_NumberFormatter_FormatRoundtrip_m19342689
hph:_RemotingServices_CreateClientProxyForContextBound_m783705199
ypl:__Z30RuntimeInvoker_Axis_t809944411PFvvEPK10MethodInfoPvPS4_
ltc:__ZNK15GUIEventManager15GetEventAtIndexEi
nAj:_InternalAsyncResult_get_ProceedAfterHandshake_m2508379800
M9e:__ZN2UI14CanvasRenderer17SyncDirtyElementsER8JobFence
qPb:__Z18Transfer_BlittableI18StreamedBinaryReadILb0EELb0ExEvRK29SerializationCommandArgumentsR31RuntimeSerializationCommandInfo
Fid:__ZN5physx6shdfnd5ArrayINS_10PxTriangleENS0_19ReflectionAllocatorIS2_EEE19resizeUninitializedEj
cim:__ZL82CarController_t4228304488_CustomAttributesCacheGenerator_U3CRevsU3Ek__BackingFieldP21CustomAttributesCache
U9g:_Enumerator_System_Collections_IEnumerator_get_Current_m3816090481_gshared
qDk:__ZN6il2cpp5utils11StringUtils15StringDuplicateEPKc
$yi:_DefaultComparer_Equals_m2480133610_gshared
zda:__ZNK9ShaderLab21ShaderRasterStateDesc16ToGfxRasterStateEPK19ShaderPropertySheetS3_R14GfxRasterState
jhj:_Array_Sort_TisVector3_t3722313464_m1915176437_gshared
tMk:__ZN6il2cpp2os9EventImplC2Ebb
CXc:__Z12RangedRandomR5RandNRKiS2_
QIi:_List_1_System_Collections_IList_get_IsFixedSize_m3566150119_gshared
Zu:__ZN4PPtrI13MonoBehaviourE8TransferI19StreamedBinaryWriteILb0EEEEvRT_
Y_i:_List_1_get_Item_m2113769949_gshared
lyh:_MaskableGraphic_OnTransformParentChanged_m329502413
iy:__ZNSt3__26vectorIN13AnimationClip9PPtrCurveE13stl_allocatorIS2_L18MemLabelIdentifier26ELi16EEE6resizeEj
m0k:_ScriptableObject_t2528358522_marshal_pinvoke
yea:__Z20IsMatrixBuiltinParamPKcPi
Pjk:__ZN6il2cpp2gc19AppendOnlyGCHashMapINSt3__24pairIPK10MethodInfoP11Il2CppClassEEP11Il2CppArray17ReflectionMapHashIS9_ENS2_8equal_toIS9_EEEC2Ev
Mdi:_String_memcpy4_m979367827
zfi:_SecurityFrame_t1422462475_marshal_pinvoke
ihk:__ZN15dense_hashtableINSt3__24pairIK10KeyWrapperINS1_IPK10MethodInfoP11Il2CppClassEEEjEES9_17ReflectionMapHashIS8_EN14dense_hash_mapIS9_jSD_NS9_14EqualsComparerINS0_8equal_toIS8_EEEENS0_9allocatorISB_EEE9SelectKeyESI_SK_E16reset_thresholdsEv
XMi:_UnicodeEncoding_GetBytesInternal_m1902824297
Wkc:__ZN8Renderer19PostInitializeClassEv
kpi:_Array_FindIndex_TisRuntimeObject_m2504082708_gshared
yEj:_X509Chain_FindCertificateRoot_m1937726457
N_g:_InternalEnumerator_1__ctor_m217498388_AdjustorThunk
KIk:__ZN6il2cpp6icalls8mscorlib6System8Delegate23CreateDelegate_internalEP20Il2CppReflectionTypeP12Il2CppObjectP22Il2CppReflectionMethodb
Vah:_Enumerator_System_Collections_IEnumerator_get_Current_m921113401_AdjustorThunk
njg:_DictionaryEntry_get_Value_m618120527_AdjustorThunk
uSb:__ZN18DelayedCallManager18CancelCallDelayed2E4PPtrI6ObjectEPF15CallObjectStatePS1_PvES7_
gVk:_Matrix4x4_GetHashCode_m4034747639
SUa:__ZN25ThreadsafeLinearAllocator10ReallocateEPvji
vCb:__Z18Transfer_BlittableI14SafeBinaryReadLb1E11QuaternionfEvRK29SerializationCommandArgumentsR31RuntimeSerializationCommandInfo
SBd:__ZNK5physx18PxArticulationLink8isKindOfEPKc
pqa:__ZN18SpriteAtlasManagerD0Ev
wQe:__ZN14DetailDatabase12GenerateMeshER4Meshii8Vector3f16DetailRenderModefii
ZCi:_GenericEqualityComparer_1__ctor_m1058369027_gshared
E2d:__ZN5physx13NpVolumeCache13onOriginShiftERKNS_6PxVec3E
jIk:_GC_disable
ymb:__ZN10Matrix4x4f8TransferI14SafeBinaryReadEEvRT_
pn:FUNCTION_TABLE_vifiiiiiiiiiiiiiiiiii
JGg:_CryptographicUnexpectedOperationException__ctor_m2381988196
skk:__ZN14dense_hash_mapI10KeyWrapperIPK22Il2CppGenericParameterEPK24MonoGenericParameterInfoN6il2cpp5utils11PointerHashIS2_EENS4_14EqualsComparerINSt3__28equal_toIS3_EEEENSD_9allocatorINSD_4pairIKS4_S7_EEEEE15set_deleted_keyERSJ_
aL:__ZN14AvatarPlayback8StopTimeEv
L$g:_InternalEnumerator_1_System_Collections_IEnumerator_get_Current_m4213507601_gshared
Uka:__Z6AppendRKN4core12basic_stringIcNS_20StringStorageDefaultIcEEEEPKc
cxl:__Z74RuntimeInvoker_DictionaryEntry_t3123975638_RuntimeObject_SByte_t1669577662PFvvEPK10MethodInfoPvPS4_
Iwb:__ZL14OnWorldStoppedv
Tni:_Array_InternalArray__IEnumerable_GetEnumerator_TisCustomAttributeNamedArgument_t287865710_m523021714_gshared
elj:__ZN21InterfaceFuncInvoker1I19Vector4_t3319028937iE6InvokeEjP11Il2CppClassP12Il2CppObjecti
fMb:__Z18Transfer_BlittableI18StreamedBinaryReadILb1EELb0E8Vector3fEvRK29SerializationCommandArgumentsR31RuntimeSerializationCommandInfo
ajm:_VirtualAxis__ctor_m1869943658
hOh:__KeysEnumerator_MoveNext_m4289758929
pkg:_HashKeys_get_SyncRoot_m3757723936
$sl:__Z64RuntimeInvoker_Int32_t2950945753_RefEmitPermissionSet_t484390987PFvvEPK10MethodInfoPvPS4_
oEa:__ZN7ApiGLES18ClearBufferSubDataEjN2gl12BufferTargetEll
Hyc:__Z37Camera_Get_Custom_PropAllCamerasCountv
Kkb:__ZN14Texture2DArray8TransferI18StreamedBinaryReadILb0EEEEvRT_
r2i:_List_1_CopyTo_m2746988508_gshared
mFd:__ZN5physx15NpActorTemplateINS_18PxArticulationLinkEED2Ev
s6b:__Z18ApplyOcclusionMaskR19ProbeOcclusionCacheRK17LightProbeContextRK10RenderNodeb
G2e:_Split_Cubic
qb:invoke_fiiii
Uuh:_InputField_OnSubmit_m3583210804
Ubh:_ShimEnumerator_get_Value_m1878724567_gshared
t5l:__ZL72GUISkin_t1244372282_CustomAttributesCacheGenerator_m_horizontalScrollbarP21CustomAttributesCache
Fjm:_CrossPlatformInputManager_UnRegisterVirtualButton_m2844659319
mvm:dynCall_viiiiiiffii
JKj:_Uri_CheckHostName_m2213216182
TAm:_emscripten_glBindRenderbuffer__wrapper
Oij:_Mesh_SetUvsImpl_TisVector2_t2156229523_m3009194955_gshared
uMg:_HMAC_set_Key_m3535779141
EGd:__ZN5physx2Sc16ArticulationCore26setMaxProjectionIterationsEj
njd:__ZN26IntersectAnyVsMeshCallbackILi1ELb0EED2Ev
g4g:_InternalEnumerator_1_System_Collections_IEnumerator_Reset_m729791527_AdjustorThunk
Hgg:_ArrayListWrapper_Contains_m2641184447
s2e:_ft_black_render
Fjj:_Array_InternalArray__get_Item_TisResourceInfo_t2872965302_m3865610257_gshared
Ewm:dynCall_viiifi
YMa:__ZN18GfxFramebufferGLES20ActiveContextChangedEPP17RenderSurfaceBaseS2_
Rfg:_ArrayList_get_IsFixedSize_m24366329
O8k:__Z78RuntimeInvoker_Int32_t2950945753_RuntimeObject_RuntimeObject_Int32_t2950945753PFvvEPK10MethodInfoPvPS4_
PMa:__Z19PluginsRenderMarkeri
B6g:_InternalEnumerator_1__ctor_m2307827786_AdjustorThunk
iN:__ZN10HumanTrait18InitializeBoneNameEv
KJg:_RijndaelManaged_GenerateKey_m1736287430
Ysa:__ZNSt3__26vectorIN9ShaderLab20SerializedSubProgram15StructParameterENS_9allocatorIS3_EEE6assignINS_11__wrap_iterIPS3_EEEENS_9enable_ifIXaasr21__is_forward_iteratorIT_EE5valuesr16is_constructibleIS3_NS_15iterator_traitsISC_E9referenceEEE5valueEvE4typeESC_SC_
okb:__ZN14Texture2DArray21AwakeFromLoadThreadedEv
qQb:__Z29Transfer_Blittable_ArrayFieldI18StreamedBinaryReadILb0EEyEvRT_R9ArrayInfoRK23StaticTransferFieldInfo
q2g:_InternalEnumerator_1_get_Current_m1698047500_gshared
E1k:_Touch_get_position_m3109777936_AdjustorThunk
Ovk:__ZNSt3__214__split_bufferIN6il2cpp2vm5Image20EmbeddedResourceDataERNS_9allocatorIS4_EEEC2EjjS7_
FOd:__ZNK5physx7NpCloth25getNbSelfCollisionIndicesEv
dIh:_Kernel_multiByteDivide_m4249920547
AJf:_CanvasScaler_set_screenMatchMode_m2975492035
TP:__ZN12AudioManager17RemoveAudioSourceEP11AudioSource
nTh:_X509Certificate2Collection_Add_m3151757943
WBl:__ZL83RuntimeArray_CustomAttributesCacheGenerator_RuntimeArray____LongLength_PropertyInfoP21CustomAttributesCache
x8g:_Comparer_1__cctor_m951016718_gshared
Aig:_CaseInsensitiveHashCodeProvider_get_DefaultInvariant_m4264275163
Uue:__ZNK5physx2Gu10ConvexMesh17getReferenceCountEv
Snk:__ZN15dense_hashtableINSt3__24pairIK10KeyWrapperINS1_IP11Il2CppClassjEEES4_EES6_N6il2cpp8metadata14ArrayClassHashEN14dense_hash_mapIS6_S4_SB_NS6_14EqualsComparerINSA_17ArrayClassCompareEEENS0_9allocatorIS8_EEE9SelectKeyESF_SH_E4swapERSK_
Zdl:__Z195RuntimeInvoker_Int32_t2950945753_RuntimeObject_Int32_t2950945753_Int32_t2950945753_Int32_t2950945753_RuntimeObject_DecoderFallbackBufferU26_t3866396827_ByteU5BU5DU26_t4057885439_SByte_t1669577662PFvvEPK10MethodInfoPvPS4_
V2d:__ZN5physx2Sc5Scene22setNbContactDataBlocksEj
nxf:__Z38getNbPxVehicleDriveDynData_AnalogInputPKN5physx21PxVehicleDriveDynDataE
i_:__ZN5physx14PxLightCpuTask12addReferenceEv
O4a:__ZNK15InstancingProps35FillInstanceBufferDispatchConstantsIN10Instancing14RenderLoopArgsEEEvPPvjjRK19ShaderPropertySheetRKT_
psl:__Z86RuntimeInvoker_Int32_t2950945753_Color32_t2600501292_Color32_t2600501292_RuntimeObjectPFvvEPK10MethodInfoPvPS4_
mhb:__ZN21EnlightenSceneMapping8TransferI19StreamedBinaryWriteILb0EEEEvRT_
zxk:__ZN6il2cpp2gc16GarbageCollector19InitializeFinalizerEv
aH:__ZN7mecanim8skeleton18CreateSkeletonMaskEjPKNS0_19SkeletonMaskElementERNS_6memory9AllocatorE
Qrj:_ReadOnlyCollection_1_System_Collections_Generic_ICollectionU3CTU3E_get_IsReadOnly_m2508509261_gshared
gHc:__ZN10GUIManager10DoGUIEventER10InputEventb
nIb:__Z35Transfer_Blittable_FixedBufferFieldI24GenerateTypeTreeTransferxEvRK29SerializationCommandArgumentsR31RuntimeSerializationCommandInfo
AYe:_otv_LangSys_validate
B_k:_RectOffset_get_right_m2294081512
zej:_Array_InternalArray__set_Item_TisLink_t544317964_m1234244240_gshared
j1e:_UNITY_TT_Init_Glyph_Loading
s1b:__Z20CalculateSqrDistanceRK8Vector3fRK4AABB
bNf:_OptionData_get_text_m2997376818
hRe:__ZN23LODTreeInstanceRendererC2ER12TreeRendereriR12MeshRendererRK10Matrix4x4fi
HJe:__ZN14PhysicsManager15ProcessContactsEv
Nrh:_SerializationInfo_GetBoolean_m1756153320
Rgd:__ZN21BoxTraceSegmentReport7onEventEjPj
zBd:__ZN5physx2Sc21ArticulationJointCore13setSwingLimitEff
qU:__Z32AudioMixerDuckingProcessCallbackP21UnityAudioEffectStatePfS1_jii
Ccd:__ZL20HullProjectionCB_BoxRKN5physx2Gu13PolygonalDataERKNS_6PxVec3ERKNS_2Cm8Matrix34ERKNS7_23FastVertex2ShapeScalingERfSE_
LVk:_Mesh_get_uv2_m3615020997
Cmj:_ReadOnlyCollection_1_Contains_m2979956790_gshared
S4d:__ZN5physx17PxcNpMemBlockPool19releaseUnusedBlocksEv
$zi:_EqualityComparer_1_System_Collections_IEqualityComparer_Equals_m4172006498_gshared
the:__ZN5physx14PxsAABBManager21selfCollideAggregatesEPKNS_19AggregateSortedDataE
LQ:__ZN12AudioManager8TransferI24GenerateTypeTreeTransferEEvRT_
Efj:_Array_qsort_TisOrderBlock_t1585977831_m3322202512_gshared
TUk:_Mathf_Round_m4098141538
M2c:__ZN16CustomDataModuleD0Ev
sHa:__Z25GetBytesFromTextureFormat13TextureFormat
elb:__ZN9Texture3D19UnloadFromGfxDeviceEb
Zqk:__ZN6il2cpp6icalls8mscorlib6System9Threading6Thread20Thread_free_internalEP12Il2CppThreadi
Bpe:__ZN5physx12_GLOBAL__N_112innerProductERKNS_14Px1DConstraintERS1_RKNS0_9MassPropsE
wGb:__Z18Transfer_BlittableI17RemapPPtrTransferLb0EsEvRK29SerializationCommandArgumentsR31RuntimeSerializationCommandInfo
d7i:_Collection_1_get_Item_m4103760396_gshared
gwf:__Z35setPxVehicleDriveSimData4W_DiffDataPN5physx23PxVehicleDriveSimData4WERKNS_27PxVehicleDifferential4WDataE
ASf:_AmbiguousMatchException__ctor_m2012725345
dvm:dynCall_iifff
Knd:__ZN19ControllerHitReportD2Ev
x9:__Z32scripting_class_get_assemblyname17ScriptingClassPtr
Hdf:__ZN11UnityEngine15PlatformWrapper15GetVRDeviceNameEv
dfm:__ZL109LayoutUtility_t2745813735_CustomAttributesCacheGenerator_LayoutUtility_U3CGetFlexibleWidthU3Em__3_m1091238571P21CustomAttributesCache
eol:__Z99RuntimeInvoker_Boolean_t97287965_Int32_t2950945753_PointerEventDataU26_t867828220_SByte_t1669577662PFvvEPK10MethodInfoPvPS4_
Hde:__ZN5physx26PxcFrictionPatchStreamPairC2ERNS_17PxcNpMemBlockPoolE
r_g:_InternalEnumerator_1_get_Current_m2128158355_AdjustorThunk
TSa:__ZN9GfxDevice21RegisterNativeTextureE9TextureIDi16TextureDimension
TOf:_GraphicRegistry__ctor_m1851575309
Ytl:__Z52RuntimeInvoker_Void_t1185182177_Keyframe_t4206410242PFvvEPK10MethodInfoPvPS4_
CRl:__ZL53TypeFilter_t2356120900_CustomAttributesCacheGeneratorP21CustomAttributesCache
_Jk:__ZN6il2cpp6icalls8mscorlib6System10Reflection4Emit11TypeBuilder20create_generic_classEP27Il2CppReflectionTypeBuilder
gbi:_SHA1Internal_FillBuff_m3615718415
Wmi:_PlayableHandle_IsPlayableOfType_TisAnimationLayerMixerPlayable_t3631223897_m201603007_gshared
ENl:__ZL50Monitor_t2197244473_CustomAttributesCacheGeneratorP21CustomAttributesCache
bbk:__ZNSt3__26vectorIPK10MethodInfoNS_9allocatorIS3_EEE26__swap_out_circular_bufferERNS_14__split_bufferIS3_RS5_EE
ALg:_PrimalityTest_EndInvoke_m1035389364
DZ:__Z60Register_UnityEngine_AudioListener_GetNumExtensionPropertiesv
Dj:_emscripten_glUniformMatrix4fv
hok:__ZN15dense_hashtableINSt3__24pairIK10KeyWrapperINS1_IP11Il2CppClassjEEES4_EES6_N6il2cpp8metadata14ArrayClassHashEN14dense_hash_mapIS6_S4_SB_NS6_14EqualsComparerINSA_17ArrayClassCompareEEENS0_9allocatorIS8_EEE9SelectKeyESF_SH_E13set_empty_keyERKS8_
oxb:__ZN12ScriptMapperD2Ev
Pdh:_Enumerator_Dispose_m3040896940_AdjustorThunk
_De:__ZN9Rigidbody13AwakeFromLoadE17AwakeFromLoadMode
OVk:_Mesh_get_colors32_m1253190811
sZc:__ZN9SubModule8TransferI14SafeBinaryReadEEvRT_
$Fk:_GC_stopped_mark
dNk:_AnimationCurve_Finalize_m2397002729
eTc:__ZN14ParticleSystem15AddCustomLightsERK27LocalLightCullingParametersRK11CullResultsR12ActiveLightsRi9LightType
eHd:__ZNK5physx14NpSceneQueries10multiQueryINS_12PxOverlapHitEEEbRKNS_15MultiQueryInputERNS_13PxHitCallbackIT_EENS_7PxFlagsINS_9PxHitFlag4EnumEtEEPKNS_12PxQueryCacheERKNS_17PxQueryFilterDataEPNS_21PxQueryFilterCallbackEPNS_20BatchQueryFilterDataE
Eyl:__Z50RuntimeInvoker_RuntimeObject_ColorTween_t809614380PFvvEPK10MethodInfoPvPS4_
h6g:_InternalEnumerator_1__ctor_m945079686_AdjustorThunk
wrh:_SerializationCallbacks__cctor_m1674315180
aua:__Z32TransferEnumWithNameForceIntSizeI14SafeBinaryRead7FogModeEvRT_RT0_PKc17TransferMetaFlags
IDc:__Z52Register_UnityEngine_RenderTexture_Internal_GetWidthv
VGk:_GC_check_leaked
Yva:__ZN9ShaderLab20SerializedSubProgram16TextureParameter8TransferI19StreamedBinaryWriteILb0EEEEvRT_
Ib:invoke_fiiiiiiiifiiiif
YRc:__ZN14ParticleSystem23RendererBecameInvisibleEv
vUa:__ZNK7Hash12812PackToUInt32Ev
Ihg:_SynchronizedArrayListWrapper_IndexOf_m3642674350
kba:__ZNSt3__227__insertion_sort_incompleteIRNS_6__lessI14ObjectLoadDataS2_EEPS2_EEbT0_S6_T_
H2:__ZN11UnityEngine15CloudWebService16SessionContainer8AddEventEPNS0_14CloudEventInfoE
IRa:__Z4TrimRKN4core12basic_stringIcNS_20StringStorageDefaultIcEEEES5_
rpj:_ReadOnlyCollection_1_CopyTo_m209634623_gshared
fij:_Dictionary_2_Do_ICollectionCopyTo_TisKeyValuePair_2_t3842366416_m1399105608_gshared
F7l:__ZL77ExecuteEvents_t3484638744_CustomAttributesCacheGenerator_U3CU3Ef__mgU24cache2P21CustomAttributesCache
zSh:_X509Certificate2_Import_m4026562329
gCm:_glGetStringi__wrapper
ijb:__ZN10VertexData8TransferI14SafeBinaryReadEEvRT_
GAd:__ZN5physx19NpArticulationJointD0Ev
$R:__ZN4FMOD8ChannelI8setDelayE14FMOD_DELAYTYPEjj
PHk:_GC_malloc_atomic
AHe:__ZN5physx9NpPhysics14createInstanceEjRNS_12PxFoundationERKNS_17PxTolerancesScaleEbPNS_20PxProfileZoneManagerE
oLe:__Z59Register_UnityEngine_Physics_INTERNAL_CALL_Internal_Raycastv
YDi:_HashSet_1_GetEnumerator_m3346268098_gshared
xKk:__ZN6il2cpp5utils6Memory13AlignedMallocEjj
v1d:__ZNK5physx7NpScene17getFilterCallbackEv
nYk:_PropertyName_GetHashCode_m3570549176_AdjustorThunk
O_l:__ZL55PropertyName_t3749835189_CustomAttributesCacheGeneratorP21CustomAttributesCache
_uh:_Selectable_get_animator_m2899312855
A6:__ZL20SortItemByInstanceIDRKN18AwakeFromLoadQueue4ItemES2_
I3k:_Vector2_op_Multiply_m2347887432
gHe:__ZN5physx6shdfnd5ArrayIPvNS0_15InlineAllocatorILj256ENS0_19ReflectionAllocatorINS_24NpPtrTableStorageManager8PtrBlockILi16EEEEEEEE15growAndPushBackERKS2_
hOf:_FontData_get_maxSize_m195374730
Mvf:__Z46getPxVehicleEngineDataMDampingRateFullThrottlePKN5physx19PxVehicleEngineDataE
yOh:_TypeConverterAttribute__ctor_m1774069684
C_l:__ZL95Mesh_t3648964284_CustomAttributesCacheGenerator_Mesh_GetIndices_m1466450660____applyBaseVertex1P21CustomAttributesCache
lH:__ZNK34AnimationStateMachineMixerPlayable26GetInterruptedPosePlayableEv
lgf:__ZN20UnityConnectSettings8TransferI24GenerateTypeTreeTransferEEvRT_
t_c:__ZN25IParticleSystemProperties8PropertyIfNS_11ClampRadiusEE8TransferI14SafeBinaryReadEEvRT_PKc
nJ:__ZN34BlobWriteTransferSTLStyleArrayImplI22OffsetPtrArrayTransferIbEEclERS1_17TransferMetaFlagsR9BlobWrite
X6f:_Byte_ToString_m4063101981
RCg:_MonoType_GetConstructors_m2574682189
poc:__ZN24MeshIntermediateRenderer10InitializeERK10Matrix4x4fP4MeshRK4AABB4PPtrI8MaterialEiy17ShadowCastingModebi
ALd:__ZN5physx7NpShape13setRestOffsetEf
b7k:__Z64RuntimeInvoker_RuntimeObject_Int16_t2552820387_Int16_t2552820387PFvvEPK10MethodInfoPvPS4_
nCk:__ZNK15dense_hashtableINSt3__24pairIK10KeyWrapperIPK19Il2CppGenericMethodEP10MethodInfoEES6_N6il2cpp8metadata23Il2CppGenericMethodHashEN14dense_hash_mapIS6_S9_SD_NS6_14EqualsComparerINSC_26Il2CppGenericMethodCompareEEENS0_9allocatorISA_EEE9SelectKeyESH_SJ_E10test_emptyERK30dense_hashtable_const_iteratorISA_S6_SD_SL_SH_SJ_E
VIl:__ZL59SinkProviderData_t4151372974_CustomAttributesCacheGeneratorP21CustomAttributesCache
iPh:_ServicePointManager_FindServicePoint_m4119451290
h7g:__ZN21InterfaceFuncInvoker1Ii22OrderBlock_t1585977831E6InvokeEjP11Il2CppClassP12Il2CppObjectS0_
yma:__ZL31InitializeRendererUpdateManagerPv
cVf:_ParameterInfo__ctor_m2779026345
Ush:_InputField_set_onValueChange_m1251390545
rOf:_FontData_get_verticalOverflow_m4132840071
aMd:__ZN5physxL11getTriangleERKNS_2Gu12TriangleMeshEjPNS_6PxVec3EPKS4_PKvRKNS_2Cm8Matrix34Eb
M5f:_DeriveBytes_set_Password_m3005258189
jEg:_NumberFormatter_get_IsZeroInteger_m2263284741
mY:__ZN13AudioListener12CleanupClassEv
LDe:__ZN14SafeBinaryRead21TransferSTLStyleArrayINSt3__26vectorIjNS1_9allocatorIjEEEEEEvRT_17TransferMetaFlags
Tma:__Z13GetIEnlightenv
gNd:__ZNK5physx7NpCloth16lockParticleDataEv
A0k:_HitInfo_t3229609740_marshal_pinvoke
UAj:_X509Certificate_PEM_m2020851166
VFg:_SByte_Equals_m865896384_AdjustorThunk
OIh:_BigInteger_op_GreaterThanOrEqual_m700865613
Cti:_Array_InternalArray__Insert_TisDateTime_t3738529785_m2308632330_gshared
arb:__ZN11TimeManager8TransferI19StreamedBinaryWriteILb0EEEEvRT_
PSg:_TlsServerCertificateRequest_ProcessAsTls1_m3214041063
WYe:_compare_uni_maps
Bll:__Z72RuntimeInvoker_Boolean_t97287965_Vector2_t2156229523_Vector2_t2156229523PFvvEPK10MethodInfoPvPS4_
uef:__ZN11UnityEngine15PlatformWrapper27GetGraphicsCapsSupportFlagsEv
R7e:__ZNSt3__218__insertion_sort_3IRPFbPN2UI6CanvasES3_EPS3_EEvT0_S8_T_
G6d:__ZN5physx13NpRigidStatic9visualizeERNS_2Cm12RenderOutputEPNS_7NpSceneE
QLb:__ZN12NativeBufferI16Converter_StringE15SetupForWritingER9ArrayInfo
UIh:_SequentialSearchPrimeGeneratorBase_GenerateSearchBase_m3595783982
Ipa:__ZN13RuntimeStaticI18AssetBundleManagerLb1EE16StaticInitializeEPv
JDm:___cxa_end_catch__wrapper
ati:_Array_InternalArray__ICollection_CopyTo_TisQuaternion_t2301928331_m4050064315_gshared
Xj:_emscripten_glVertexAttrib3fv
mBf:__Z22CleanupVehiclesManagerv
H4c:__ZL24GenerateParticleGeometryIL24ParticleSystemRenderMode0ELb1ELb0EL25ParticleSystemRenderSpace4EEvPfRK22ParticleSystemTempDataRK26ParticleSystemRendererDataRK21ParticleSystemModulesRK23ParticleSystemParticlesRK31ParticleSystemParticlesTempData
DVd:__ZNK5physx22NpParticleBaseTemplateINS_16PxParticleSystemENS_16NpParticleSystemEE13getRestOffsetEv
a9d:__ZN5physx6shdfnd8PoolBaseINS_2Sc35ParticleElementRbElementInteractionENS0_19ReflectionAllocatorIS3_EEE15disposeElementsEv
bbi:_SHA1CryptoServiceProvider_Dispose_m1653611664
wfg:_Char_ToString_m278452217
KOg:_CipherSuite_get_DecryptionCipher_m2839827488
Zlj:_ReadOnlyCollection_1_System_Collections_IList_set_Item_m4047645019_gshared
d3b:__ZNK4PPtrI5LightEcvPS0_Ev
Bdi:_String_Format_m1881875187
iLg:_BigInteger_op_RightShift_m460065452
p0l:__ZL86Logger_t274032455_CustomAttributesCacheGenerator_Logger_LogFormat_m3300686007____args3P21CustomAttributesCache
dTb:__ZN13MonoBehaviour22DoScriptRebuildWarningEv
Jyc:__Z38Camera_CUSTOM_INTERNAL_CALL_RaycastTryP12Il2CppObjectRK3Rayfi
Vnc:__ZNK10GameObject22GetComponentPtrAtIndexEi
Dmc:__ZZL23RegisterLightPropertiesR22GenericPropertyBindingEN22Wrapper_LightSpotAngle13GetFloatValueEPv
kFf:_ExecuteEvents_get_cancelHandler_m1220395193
gKi:_List_1_Insert_m3987412300_gshared
T6e:__Z38TextGenerator_Get_Custom_PropLineCountP12Il2CppObject
Wgd:__ZN5physx2Gu26EPASupportMapPairLocalImplINS0_9TriangleVENS0_4BoxVEED0Ev
AAj:_InternalAsyncResult_SetComplete_m963842420
qLi:_Encoding_GetEncoding_m2801244948
jIc:__ZN11IMGUIModule25GetGUIStyleScriptingClassEv
y$e:_tt_get_interface
FVg:_SslStreamBase_EndRead_m495357226
Kqk:__ZN6il2cpp5utils9PathUtils7CombineIcEENSt3__212basic_stringIT_NS3_11char_traitsIS5_EENS3_9allocatorIS5_EEEERKSA_SC_
Dhe:__ZN5physx14PxsAABBManager16processBPResultsERKNS_20PxsComputeAABBParamsE
sCh:_ScrollRect_CalculateLayoutInputHorizontal_m1852828502
dOc:__ZN9JSONWrite8TransferI13dynamic_arrayIiLj4EEEEvRT_PKc17TransferMetaFlags
Kfe:__ZN5physx23PxsBroadPhaseContextSapD2Ev
abj:_Collection_1_System_Collections_IList_get_IsFixedSize_m214626114_gshared
qgl:__Z64RuntimeInvoker_RuntimeObject_SByte_t1669577662_SByte_t1669577662PFvvEPK10MethodInfoPvPS4_
PP:__ZL16FMOD_ErrorString11FMOD_RESULT_363
spc:__ZN13PlayableGraph21InvalidateMultithreadEv
tze:__ZN5physx12SubSortQuickC2EPjPKNS_10PxBounds3VEjf
MFi:_Enumerator_System_Collections_IEnumerator_get_Current_m713684915_AdjustorThunk
xCi:_GenericComparer_1_Compare_m459680062_gshared
HWf:_EnumBuilder_GetConstructorImpl_m3068576149
i8:__Z18ConvertUTF16toUTF8PPKtS0_PPhS2_15ConversionFlags
IBk:__ZN6il2cpp2os20PathErrnoToErrorCodeERKNSt3__212basic_stringIcNS1_11char_traitsIcEENS1_9allocatorIcEEEEi
rbm:__ZL68InputField_t3762917431_CustomAttributesCacheGenerator_m_KeyboardTypeP21CustomAttributesCache
kci:_SymmetricAlgorithm_System_IDisposable_Dispose_m3402297829
F_j:__ZL16my_g_bit_nth_msfj
XQl:__ZL65NonSerializedAttribute_t2945079482_CustomAttributesCacheGeneratorP21CustomAttributesCache
wok:__ZN15dense_hashtableINSt3__24pairIK10KeyWrapperIP11Il2CppClassES4_EES5_N6il2cpp8metadata16SZArrayClassHashEN14dense_hash_mapIS5_S4_SA_NS5_14EqualsComparerINS9_19SZArrayClassCompareEEENS0_9allocatorIS7_EEE9SelectKeyESE_SG_E12expand_arrayEjN21dense_hash_map_traits17integral_constantIbLb0EEE
eyi:_DefaultComparer_GetHashCode_m3369508712_gshared
Q4i:_Enumerator_MoveNext_m3662315381_AdjustorThunk
xSg:_TlsClientFinished_ProcessAsTls1_m2429863130
u5f:_ActivatedClientTypeEntry_get_ApplicationUrl_m2894992111
E$b:__Z23SetupStereoFlareElementP11FlareVertexRK8Vector2fS3_S3_RK11ColorRGBA32RK10Matrix4x4fRK8Vector3fb
oZl:__ZL81Transform_t3600365921_CustomAttributesCacheGenerator_Transform_Rotate_m3172098886P21CustomAttributesCache
jWf:_DerivedType_GetCustomAttributes_m851300494
N1j:__ZN6il2cpp2vm5Class15GetInstanceSizeEPK11Il2CppClass
dpf:__ZN5physx2Sn21RepXVisitorReaderBaseINS_22PxVehicleWheelsSimDataEE23extendedIndexedPropertyINS_3Pvd36PxPvdExtendedIndexedPropertyAccessorILj616ES2_KjNS_6PxVec3EEEKNS_18PxUnknownClassInfoEEEvPjRKT_RT0_
cb:invoke_iiiifiiii
_sh:_InputField_EnforceContentType_m2436948794
m8c:__ZN11ShapeModule13DidDeleteMeshEv
GPd:__ZNK5physx2Sc9ClothCore16getRestPositionsEPNS_6PxVec4E
nbj:__ZN23InterfaceActionInvoker2Ii20UICharInfo_t75501106E6InvokeEjP11Il2CppClassP12Il2CppObjectiS0_
rce:__ZN5physx20PxcSweepConvexConvexERKNS_11PxsCCDShapeES2_PKNS_12PxsRigidBodyES5_RKNS_11PxTransformES8_S8_S8_fRNS_6PxVec3ESA_RNS_10PxcNpCacheERNS_18PxcNpThreadContextEf
Mii:_String_Join_m2050845953
NSd:__ZN5physx15PxsParticleDataD0Ev
RNa:__ZL19BlitFramebufferImplRN4gles23BlitFramebufferDrawQuadER9GfxDevice9TextureIDRK8Vector4f
_Fb:__Z18Transfer_BlittableI17RemapPPtrTransferLb0EhEvRK29SerializationCommandArgumentsR31RuntimeSerializationCommandInfo
kxe:__ZN5physx6shdfnd5ArrayIPvNS0_19ReflectionAllocatorIN17PxcPoolMallocData9PoolData8EEEE15growAndPushBackERKS2_
lgk:__ZN15dense_hashtableINSt3__24pairIK10KeyWrapperIPK10Il2CppTypeEjEES6_N6il2cpp8metadata14Il2CppTypeHashEN14dense_hash_mapIS6_jSB_NS6_14EqualsComparerINSA_26Il2CppTypeEqualityComparerEEENS0_9allocatorIS8_EEE9SelectKeyESF_SH_E4findERS7_
sxh:_LayoutUtility_U3CGetPreferredWidthU3Em__1_m74273510
avm:dynCall_viiiiiiiiiiiiii
P0e:_UNITY_FT_List_Add
ykc:__ZN14Texture2DArray11InitTextureEiii13TextureFormatb
YMl:__ZL104Encoding_t1523322056_CustomAttributesCacheGenerator_Encoding_t1523322056____DecoderFallback_PropertyInfoP21CustomAttributesCache
Fwj:_InvokableCall_1_Invoke_m1524307439_gshared
qBe:__ZN5physx15PxGeometryQuery14getWorldBoundsERKNS_10PxGeometryERKNS_11PxTransformEf
Ndb:__ZN12CubemapArray21AwakeFromLoadThreadedEv
VQd:__ZN5physx2Sc9ClothCore18setSolverFrequencyEf
fvg:_Directory_CreateDirectoriesInternal_m3735342319
D9l:__ZL108U3CStartU3Ec__Iterator0_t1249263001_CustomAttributesCacheGenerator_U3CStartU3Ec__Iterator0__ctor_m1316384627P21CustomAttributesCache
qIi:_List_1_RemoveAll_m517055598_gshared
wIe:__ZN8ColliderC2E10MemLabelId18ObjectCreationMode
hlk:__ZN15dense_hashtableINSt3__24pairIK10KeyWrapperINS1_IPK11Il2CppImageP11Il2CppClassEEEjEES9_17ReflectionMapHashIS8_EN14dense_hash_mapIS9_jSD_NS9_14EqualsComparerINS0_8equal_toIS8_EEEENS0_9allocatorISB_EEE9SelectKeyESI_SK_E14squash_deletedEv
ici:_SHAConstants__cctor_m1699027474
Lqb:__ZN9InputAxis8TransferI18StreamedBinaryReadILb0EEEEvRT_
Gve:__ZN5physx2Gu11HeightField8requiresERNS_23PxProcessPxBaseCallbackE
wIi:_List_1_TrimExcess_m4121641494_gshared
XOl:__ZL78Convert_t2465617642_CustomAttributesCacheGenerator_Convert_ToInt16_m1733792763P21CustomAttributesCache
hcd:__ZN5physx2Gu16buildPartialHullERKNS0_13PolygonalDataEPNS0_12SupportLocalERNS0_14SeparatingAxesERKNS_6shdfnd3aos5Vec3VESC_
gub:__Z14resize_trimmedINSt3__26vectorIN4core12basic_stringIcNS2_20StringStorageDefaultIcEEEE13stl_allocatorIS6_L18MemLabelIdentifier13ELi16EEEEEvRT_j
dDb:__Z18Transfer_BlittableI14SafeBinaryReadLb0EaEvRK29SerializationCommandArgumentsR31RuntimeSerializationCommandInfo
OQl:__ZL68Math_t1671470975_CustomAttributesCacheGenerator_Math_Min_m3253079129P21CustomAttributesCache
Afg:_CharEnumerator_System_Collections_IEnumerator_get_Current_m1328529384
HWc:__ZN11NoiseModule17CalculateNoiseJobILi3ELb1ELb1EEEvP12NoiseJobData
pMe:__ZN7TerrainD2Ev
Wxm:_emscripten_glFrustum__wrapper
Uzd:__ZNK5physx2Sc16ArticulationCore17releaseDriveCacheERNS_9PxcFsDataE
xzh:_GetRayIntersectionAllCallback_Invoke_m1316694896
aof:__ZN5physx2Sn21RepXVisitorReaderBaseINS_16PxVehicleNoDriveEE15complexPropertyINS_22PxRepXPropertyAccessorILj640ENS_15PxVehicleWheelsENS_22PxVehicleWheelsDynDataES7_EEKNS_35PxVehicleWheelsDynDataGeneratedInfoEEEvPjRKT_RT0_
hGj:_PatternCompiler_Emit_m3022689557
t1e:_UNITY_FT_List_Iterate
L3a:__ZN17GlobalGameManager8TransferI24GenerateTypeTreeTransferEEvRT_
eod:__ZN5physx11NpAggregate7releaseEv
Veg:_Char_System_IConvertible_ToUInt64_m3536560782
qzi:_EqualityComparer_1__cctor_m3452395357_gshared
HUh:_X509ChainStatus_get_Status_m2572005749_AdjustorThunk
bAe:__ZN5physx6shdfnd7PAUtilsD2Ev
LA:__ZN19StreamedBinaryWriteILb0EE8TransferIKN4math7_float3EEEvRT_PKc17TransferMetaFlags
j_b:__Z20SyncFenceCullResultsR11CullResults
uQa:__ZN15TextureTFMethod20IsBoneCountSupportedEi
VXk:_PlayableOutputHandle_CompareVersion_m841260813
$3h:_Double_ToString_m3828879243_AdjustorThunk
yHb:__Z22TransferField_NonArrayI17RemapPPtrTransfer27Converter_SimpleNativeClassI8GUIStyleEEvRK23StaticTransferFieldInfoR31RuntimeSerializationCommandInfoRT0_
uLd:__ZN5physx7NpShape12setMaterialsEPKPNS_10PxMaterialEt
qfc:__ZNK17AnimationCurveTplIfE20EvaluateWithoutCacheEfRf
Nzk:__ZN6il2cpp2os6Thread12QueueUserAPCEPFvPvES2_
y8a:__ZN19ShaderPropertySheet10SetTextureERK23FastTexturePropertyNameP7Texture
aUf:_CustomAttributeData__ctor_m2966233049
rTb:__ZN10MonoScriptD0Ev
aKf:_CanvasUpdateRegistry_PerformUpdate_m1793997159
NRg:_Context_set_ClientWriteIV_m3405909624
zsc:__ZN4Mesh10SetNormalsEPK8Vector3fj
BPj:_AesManaged_CreateDecryptor_m692040246
ZPl:__ZL79Convert_t2465617642_CustomAttributesCacheGenerator_Convert_ToUInt64_m2343585091P21CustomAttributesCache
tXj:_TextGenerationSettings_t1351628751_marshal_pinvoke_back
ry:__ZN17AnimationCurveTplIfE8TransferI14SafeBinaryReadEEvRT_
Bgh:_Dictionary_2_get_Count_m2449135560_gshared
Fej:_Array_InternalArray__set_Item_TisInt16_t2552820387_m2544074754_gshared
j9f:_ArithmeticException__ctor_m3551809662
Gvg:_MonoIO_ExistsDirectory_m2182482658
s7c:__ZN22ParticleSystemRenderer15InitializeClassEv
g4i:__ZN21InterfaceFuncInvoker0I19Vector4_t3319028937E6InvokeEjP11Il2CppClassP12Il2CppObject
Dvl:__Z72RuntimeInvoker_CustomAttributeNamedArgument_t287865710_Int32_t2950945753PFvvEPK10MethodInfoPvPS4_
Old:__ZN5physx2Gu9RadixSortD2Ev
Pcc:__Z29StdTemplateConversionFunctionIybEbPvR14SafeBinaryRead
Jhb:__ZNSt3__26vectorIN15QualitySettings14QualitySettingENS_9allocatorIS2_EEE6assignIPS2_EENS_9enable_ifIXaasr21__is_forward_iteratorIT_EE5valuesr16is_constructibleIS2_NS_15iterator_traitsIS9_E9referenceEEE5valueEvE4typeES9_S9_
$Q:__ZN12AudioManager21FixMasterGroupRoutingEv
bca:__ZNK5Unity9Component10GetEnabledEv
Ljd:__Z15raycast_capsuleRKN5physx10PxGeometryERKNS_11PxTransformERKNS_6PxVec3ES8_fNS_7PxFlagsINS_9PxHitFlag4EnumEtEEjPNS_12PxRaycastHitEbPFbRSD_PvESG_
jBh:_ScrollRect_get_scrollSensitivity_m2832710591
ERd:__ZNK5physx15NpActorTemplateINS_15PxParticleFluidEE14getOwnerClientEv
oIi:_List_1_CheckCollection_m1671972112_gshared
Gmk:_il2cpp_class_get_image
YPg:_CipherSuiteFactory_GetSsl3SupportedCiphers_m3757358569
hNi:_UnicodeEncoding_GetPreamble_m3002287178
Paa:__Z16AsyncReadRequestP16AsyncReadCommand
$0j:__ZNK15dense_hashtableINSt3__24pairIK10KeyWrapperIPK22Il2CppGenericParameterEP11Il2CppClassEES6_N6il2cpp5utils11PointerHashIS4_EEN14dense_hash_mapIS6_S9_SE_NS6_14EqualsComparerINS0_8equal_toIS5_EEEENS0_9allocatorISA_EEE9SelectKeyESJ_SL_E12test_deletedEj
uqe:__ZNK5physx34PxsSolverConstraintPostProcessTask7getNameEv
Zkl:__Z52RuntimeInvoker_Color_t2555686324_Color32_t2600501292PFvvEPK10MethodInfoPvPS4_
vxa:__ZN20GpuProgramParameters14AddVectorParamEPKcii15ShaderParamTypeiiiP16PropertyNamesSet
BWl:__ZL116TouchScreenKeyboard_t731888065_CustomAttributesCacheGenerator_TouchScreenKeyboard_Open_m231964201____autocorrection2P21CustomAttributesCache
rdd:__ZN5physx2Gu23distancePointBoxSquaredERKNS_6PxVec3ES3_S3_RKNS_7PxMat33EPS1_
rHe:__ZN5physx9NpPhysics20MeshDeletionListener28onGuMeshFactoryBufferReleaseEPKNS_6PxBaseEtb
aif:__ZNK12HeaderHelper3GetERKN4core12basic_stringIcNS0_20StringStorageDefaultIcEEEE
i7g:_DefaultComparer__ctor_m704436039_gshared
Hqb:__ZN9InputAxis8TransferI14SafeBinaryReadEEvRT_
V6:__ZNK21ExecutionOrderManager30GetCustomAwakeFromLoadQueueForEPKN5Unity4TypeE
Q0d:__ZNK5physx7NpScene9getActorsENS_7PxFlagsINS_15PxActorTypeFlag4EnumEtEEPPNS_7PxActorEjj
vhf:__Z27RegisterModule_UnityConnectv
Yxg:_MemoryStream_Expand_m3554752073
YYh:_DateTimeFormatInfo_get_RoundtripPattern_m796050488
CUd:__ZN5physx15PxParticleFluidD0Ev
G8d:__ZN5physx11NodeManagerD0Ev
jPe:__ZN13dynamic_arrayIP8MaterialLj4EE18resize_initializedEj12ResizePolicy
p0k:_ScriptableObject_CreateInstance_m2611081756
Eph:_ObjectRecord_get_IsInstanceReady_m2304516395
B4g:_InternalEnumerator_1_System_Collections_IEnumerator_get_Current_m1635397542_gshared
Dyg:_Path__cctor_m3273994011
gel:__Z41RuntimeInvoker_Boolean_t97287965_IntPtr_tPFvvEPK10MethodInfoPvPS4_
Iod:__ZNK5physx2Sc8BodyCore6getSimEv
ctm:__ZNSt11logic_errorD2Ev
IYh:_DateTimeUtils_CountRepeat_m3396693018
Kmf:__ZN5physx16PxVehicleDriveNW12createObjectERPhRNS_24PxDeserializationContextE
tT:__ZN10ObjectPoolIN4FMOD12ChannelGroupENS0_13ChannelGroupIEE7SetSizeEi
Tem:__ZL103LayoutRebuilder_t541313304_CustomAttributesCacheGenerator_LayoutRebuilder_U3CRebuildU3Em__5_m1288787547P21CustomAttributesCache
mPj:_SymmetricTransform_FinalDecrypt_m764004682
tAk:__ZN6il2cpp2os10ThreadImpl33UnregisterCurrentThreadForCleanupEv
c3i:_List_1_System_Collections_IList_get_Item_m1315368445_gshared
A8l:__ZL114PointerEventData_t3807901092_CustomAttributesCacheGenerator_PointerEventData_get_pointerCurrentRaycast_m2627585223P21CustomAttributesCache
DHj:_Parser_ParseGroupingConstruct_m263270497
eA:__ZN18StreamedBinaryReadILb0EE21TransferSTLStyleArrayI22OffsetPtrArrayTransferIN7mecanim9animation10ValueDeltaEEEEvRT_17TransferMetaFlags
s0l:__ZL112PlayerConnection_t3081694049_CustomAttributesCacheGenerator_PlayerConnection_MessageCallbackInternal_m1914517467P21CustomAttributesCache
j4:__Z22ValidateTlsfAllocationPvjiS_
J_g:_InternalEnumerator_1_MoveNext_m3525157932_gshared
AKd:__ZN5physx2Cm12RefCountable14onRefCountZeroEv
JQf:_HorizontalOrVerticalLayoutGroup_set_childControlWidth_m3261460516
Ss:__ZN15SerializeTraitsINSt3__24pairI8StateKey10StateRangeEEE8TransferI14SafeBinaryReadEEvRS4_RT_
nlk:__ZN14dense_hash_mapI10KeyWrapperINSt3__24pairIPK9EventInfoP11Il2CppClassEEEj17ReflectionMapHashIS8_ENS9_14EqualsComparerINS1_8equal_toIS8_EEEENS1_9allocatorINS2_IKS9_jEEEEE15set_deleted_keyERSH_
yMf:_Dropdown_RefreshShownValue_m2806045241
QNd:__ZNK5physx7NpCloth25getMotionConstraintConfigEv
u_c:__Z32TransferEnumWithNameForceIntSizeI14SafeBinaryReadN11ShapeModule17MeshPlacementModeEEvRT_RT0_PKc17TransferMetaFlags
e9b:__ZN25CameraStackRenderingState19SetupLastEyeCamerasERK11CameraStack
VZa:__Z12GUIDToStringRK9UnityGUID
jUg:_RSASslSignatureDeformatter_SetKey_m2204705853
bzk:__ZN6il2cpp6icalls8mscorlib6System4Enum12get_hashcodeEP12Il2CppObject
qP:__ZN11SoundHandleC2ERKS_
CB:__ZN17AnimationPlayableC2E18DirectorPlayerType
rhf:__ZN22UnityAnalyticsSettingsC2Ev
w7j:__ZNK6il2cpp5utils11collections13ArrayValueMapIPK10Il2CppType17Il2CppInteropData26InteropDataToTypeConverterNS_8metadata14Il2CppTypeLessENS8_26Il2CppTypeEqualityComparerEE10find_firstERKS5_
qs:__ZN18AnimatorController23VirtualRedirectTransferER18StreamedBinaryReadILb0EE
a0d:__ZThn8_N5physx2Sc24ElementInteractionMarker7destroyEv
y4i:_List_1_Reverse_m1445355384_gshared
Bwg:_FileStream_get_CanSeek_m331583577
hdc:__Z29StdTemplateConversionFunctionItxEbPvR14SafeBinaryRead
Yoh:_WellKnownServiceTypeEntry_get_ObjectType_m3211195371
iRj:_PCMReaderCallback_EndInvoke_m3916876196
$sm:__ZNSt9bad_allocD0Ev
P_f:_TypeBuilder_get_ContainsGenericParameters_m1769080325
LLg:_ASN1_get_Length_m3269728307
MHg:_DSAParameters_t1885824122_marshal_pinvoke_back
Bld:__ZN5physx3Cct26CharacterControllerManager24setOverlapRecoveryModuleEb
RH:__ZN8Animator22OnGraphTopologyChangedEP8Playablei
JIh:_Kernel_MultiplyByDword_m1266935086
eDk:__ZN4utf89unchecked8utf8to16INSt3__220back_insert_iteratorINS2_12basic_stringIDsNS2_11char_traitsIDsEENS2_9allocatorIDsEEEEEEPKcEET_T0_SE_SD_
bE:__ZN17AnimationPlayable18DeallocateBindingsEv
Oac:__ZN6Camera25StandaloneRenderToCubemapEP7TextureiPFvPK9SceneNodePK4AABBR9IndexListPvESA_j
Jhi:_String_Trim_m3384720403
k8a:__ZN14RenderSettings18TransferDeprecatedI14SafeBinaryReadEEvRT_
ffd:__ZN24ConvexVsHeightfieldSweepD0Ev
KLj:_Event__ctor_m526447123
KCf:_BaseInput__ctor_m372566135
gRl:__ZL56RankException_t3812021567_CustomAttributesCacheGeneratorP21CustomAttributesCache
Krl:__Z72RuntimeInvoker_Boolean_t97287965_CustomAttributeNamedArgument_t287865710PFvvEPK10MethodInfoPvPS4_
Gil:__Z88RuntimeInvoker_RuntimeObject_RuntimeObject_RuntimeObject_RuntimeObject_Int32_t2950945753PFvvEPK10MethodInfoPvPS4_
Rsl:__Z59RuntimeInvoker_Int32_t2950945753_KeyValuePair_2_t2530217319PFvvEPK10MethodInfoPvPS4_
cTi:_Type_ToString_m3975981286
N6:__ZN12TLSAllocatorI14StackAllocatorE8AllocateEji
O8:__ZN16ScriptingManager18GetMonoScriptCacheEi
Wxf:__ZN5physx2Sn21RepXVisitorReaderBaseINS_16PxVehicleDriveNWEE15complexPropertyINS_22PxRepXPropertyAccessorILj640ENS_15PxVehicleWheelsENS_22PxVehicleWheelsDynDataES7_EEKNS_35PxVehicleWheelsDynDataGeneratedInfoEEEvPjRKT_RT0_
aph:_RemotingServices__cctor_m4056345423
RHj:_ExpressionAssertion__ctor_m2554412824
nJj:_CapturingGroup_IsComplex_m4061114763
bgj:_Array_Resize_TisCustomAttributeTypedArgument_t2723150157_m3021884250_gshared
kDb:__Z18Transfer_BlittableI14SafeBinaryReadLb1EyEvRK29SerializationCommandArgumentsR31RuntimeSerializationCommandInfo
NVl:__ZL99GameObject_t1113636619_CustomAttributesCacheGenerator_GameObject_GetComponentInChildren_m2670866854P21CustomAttributesCache
_Uc:__ZNSt3__27__sort5IR31SortCollisionEventsByGameObjectP22ParticleCollisionEventEEjT0_S5_S5_S5_S5_T_
WDg:_NullReferenceException__ctor_m3076065613
$Kc:__ZN8JSONRead8TransferIfEEvRT_PKc17TransferMetaFlagsb
nu:__ZN25RuntimeAnimatorController8TransferI17RemapPPtrTransferEEvRT_
Q2d:__ZNK5physx2Sc10NPhaseCore39getDefaultContactReportStreamBufferSizeEv
BMj:_GUIStyle_Draw_m3190299676
jtj:_Comparison_1_EndInvoke_m3981968715_gshared
Uwa:__ZN9ShaderLab7Program22ComputeSupportsShadowsEv
lRh:_X509SubjectKeyIdentifierExtension_Decode_m1505409124
BOd:__ZN5physx7NpCloth25setSelfCollisionStiffnessEf
Zbe:__ZZN5physx28PxcSweepEstimateAnyShapeMeshERKNS_11PxsCCDShapeES2_PKNS_12PxsRigidBodyES5_RKNS_11PxTransformES8_fEN2CBD0Ev
mhi:_String_System_IConvertible_ToUInt16_m2888090399
aV:__ZN11AudioSource21ApplyCachedParametersE12SoundChannel
SSf:_Assembly_InternalGetType_m3065345470
G_:__ZN13Simd4iFactoryIN6detail9FourTupleEEC2Eiiii
wZg:_InternalEnumerator_1__ctor_m3390957028_gshared
R3f:_ResourceSet__ctor_m3356376607
PLf:_FloatTween_set_startValue_m53556027_AdjustorThunk
vFf:_PhysicsRaycaster_get_maxRayIntersections_m3887348715
CIl:__ZL56_ParameterInfo_t489405856_CustomAttributesCacheGeneratorP21CustomAttributesCache
Ogb:__ZN15SerializeTraitsI33EnlightenTerrainChunksInformationE8TransferI14SafeBinaryReadEEvRS0_RT_
zUi:_UInt32_System_IConvertible_ToByte_m4072781199_AdjustorThunk
qId:__ZN5physx2Sc14ConstraintCoreD2Ev
klc:__ZNK32RendererMaterialAnimationBinding9BindValueER6ObjectRKN11UnityEngine9Animation14GenericBindingERNS3_10BoundCurveE
bcm:__ZL109MaskableGraphic_t3839221559_CustomAttributesCacheGenerator_MaskableGraphic_ParentMaskStateChanged_m1092090553P21CustomAttributesCache
zmf:__ZN5physx15PxVehicleWheels17getBinaryMetaDataERNS_14PxOutputStreamE
Wch:_Transform_1_Invoke_m1731820209_gshared
pFd:__ZN5physx15NpActorTemplateINS_18PxArticulationLinkEE13setActorFlagsENS_7PxFlagsINS_11PxActorFlag4EnumEtEE
f9a:__Z13GetIAnimationv
SIa:__ZL18stbir__support_onef
Uwe:__ZN5physx6shdfnd8internal8HashBaseIPNS_11PxAggregateES4_NS0_4HashIS4_EENS1_11HashSetBaseIS4_S6_NS0_9AllocatorELb0EE6GetKeyES8_Lb0EE15reserveInternalEj
Dgi:_Single_CompareTo_m189772128
MMc:__Z26Transfer_UnityEngineObjectI9JSONWriteLb0EEvRK29SerializationCommandArgumentsR31RuntimeSerializationCommandInfo
X6g:_DefaultComparer_Compare_m4042058291_gshared
m2c:__ZN14VelocityModuleD2Ev
tcb:__ZNSt3__26vectorIN4core12basic_stringIcNS1_20StringStorageDefaultIcEEEE13stl_allocatorIS5_L18MemLabelIdentifier1ELi16EEE6assignINS_11__wrap_iterIPS5_EEEENS_9enable_ifIXaasr21__is_forward_iteratorIT_EE5valuesr16is_constructibleIS5_NS_15iterator_traitsISF_E9referenceEEE5valueEvE4typeESF_SF_
Uvm:dynCall_iiiifii
U8e:__ZNSt3__27__sort5IRNS_6__lessIN2UI14DepthSortEntryES3_EEPS3_EEjT0_S7_S7_S7_S7_T_
mwg:_FileLoadException_ToString_m2989457882
VRj:_AudioListener_ClearExtensionProperties_m3849891634
tRc:__Z39ParticleSystemRenderer_RenderBillboardsIL21SpriteMaskInteraction0EEvRK15RenderNodeQueuej17ShaderChannelMaski
mUe:_UNITY_FT_DivFix
pjj:_Array_InternalArray__get_Item_TisDecimal_t2948259380_m3511003792_gshared
Zhk:__ZNSt3__218uninitialized_copyIPNS_4pairIK10KeyWrapperINS1_IPK11Il2CppImageP11Il2CppClassEEEjEESC_EET0_T_SE_SD_
Ydi:_SecurityElement_IsValidAttributeValue_m948345692
Lkc:__ZN14Texture2DArrayC2E10MemLabelId18ObjectCreationMode
Ja:invoke_vdd
uo:FUNCTION_TABLE_fiii
YGl:__ZL102MethodInfo_t_CustomAttributesCacheGenerator_MethodInfo_MakeGenericMethod_m1996785325____typeArguments0P21CustomAttributesCache
yAg:_TextWriter_Write_m2252948084
Joc:__Z19RegisterModule_Corev
ilh:_AsyncResult_get_CallMessage_m1679778649
qoi:_Array_InternalArray__IEnumerable_GetEnumerator_TisPlayableBinding_t354260709_m1924544205_gshared
x6e:__ZZ29InitializeTextRenderingModulevEN27cleanupAfterLoadRegistrator7ForwardEv
qyb:__ZNSt3__26__sortIRPFbRK23TransformAccessReadOnlyS3_EPS1_EEvT0_S8_T_
R5h:_CCFixed_FromDateTime_m3894190577
MKk:__ZN6il2cpp6icalls8mscorlib4Mono8Security12Cryptography18KeyPairPersistence19_IsMachineProtectedEP12Il2CppString
T8b:__Z29PluginsIssueRenderingExtEvent26UnityRenderingExtEventTypePv
d9k:__Z116RuntimeInvoker_RuntimeObject_RuntimeObject_Int32_t2950945753_RuntimeObject_RuntimeObject_RuntimeObject_RuntimeObjectPFvvEPK10MethodInfoPvPS4_
Kaj:_Collection_1_SetItem_m2109164320_gshared
aFg:_RuntimeMethodHandle__ctor_m2229201676_AdjustorThunk
iqh:_MessageFormatter_ReadMethodCall_m2327590823
g6c:__Z19UpdateSingleRow2TplIL27ParticleSystemCurveEvalMode2ELS0_2EEvfRK11MinMaxCurveS3_RK23ParticleSystemParticlesPfbiii
til:__Z48RuntimeInvoker_Void_t1185182177_Byte_t1134296376PFvvEPK10MethodInfoPvPS4_
lkc:__Z14RandomRotationP9Texture2DPhiiii
Kri:_Array_InternalArray__ICollection_Add_TisUInt16_t2177724958_m3981262878_gshared
_Fe:__ZThn132_N5physx7profile8ZoneImplINS_28PxProfileNameProviderForwardEED1Ev
VDi:_HashSet_1_Contains_m3173358704_gshared
TPj:_ToggleEvent__ctor_m834619998
c6g:_InternalEnumerator_1_Dispose_m436383441_AdjustorThunk
oNg:_PKCS1_Encode_v15_m2077073129
dwi:_Dictionary_2_get_Values_m2682483593_gshared
lMh:_ContentInfo_get_Content_m1945593776
Adj:_Collection_1_set_Item_m4084225937_gshared
hZb:__ZZ23InitPlayerLoopCallbacksvEN39PostLateUpdateGUIClearEventsRegistrator7ForwardEv
n1d:__ZN5physx7NpScene27setCCDContactModifyCallbackEPNS_26PxCCDContactModifyCallbackE
Mxl:__Z51RuntimeInvoker_OrderBlock_t1585977831_RuntimeObjectPFvvEPK10MethodInfoPvPS4_
Xxe:__ZNK5physx17ConvexHullBuilder17ComputeGeomCenterERNS_6PxVec3E
z_k:_RectOffset_get_left_m1232181034
kge:__ZN3MBPD0Ev
TLa:__ZN4gles14UseGLSLProgramER15DeviceStateGLESjbij
pnl:__Z59RuntimeInvoker_Boolean_t97287965_Int32_t2950945753_IntPtr_tPFvvEPK10MethodInfoPvPS4_
cEm:_glDeleteProgram__wrapper
Qyc:__Z50Register_UnityEngine_Camera_INTERNAL_get_pixelRectv
dKl:__ZL101RemotingServices_t1401195504_CustomAttributesCacheGenerator_RemotingServices_GetRealProxy_m2081098851P21CustomAttributesCache
i$c:__ZN11ShapeModule18MultiModeParameterIN25IParticleSystemProperties8PropertyIfNS1_11ClampRadiusEEEE8TransferI24GenerateTypeTreeTransferEEvRT_
$Ja:__ZN6prcoreL18BlitFloatToIntegerERK14ImageReferenceRS0_
M$h:_DBNull_System_IConvertible_ToUInt32_m3784627971
QQg:_ClientSessionCache_Add_m964342678
t4d:__ZNK5physx10PxsContext18getBounceThresholdEv
cQa:__ZN13dynamic_arrayI15ComputeShaderCBLj4EE6assignEPKS0_S3_
J$b:__Z13GetIPhysics2Dv
a2:__ZN11UnityEngine15CloudWebService14RestDownloader17OnCompleteContentEv
bZj:_CanvasRenderer_SetTexture_m1600559835
y2k:_Transform_get_localScale_m129152068
h1h:_DivideByZeroException__ctor_m3496959969
fNa:__ZN26SinglePassStereoSupportExt19AfterDrawCallStereoEv
w$d:__ZN5physx6shdfnd5ArrayIPvNS0_15InlineAllocatorILj256ENS0_19ReflectionAllocatorINS_2Gu31SpherePersistentContactManifoldEEEEEE15growAndPushBackERKS2_
Cse:__ZN5physx2Cm18DelegateFanoutTaskINS_2Sc5SceneEXadL_ZNS3_17finalizationPhaseEPNS_10PxBaseTaskEEEE11runInternalEv
xH:__ZN17AnimationPlayable28UpdateInternalStateRecursiveILi1ELb0EEEvPK35AnimationPlayableEvaluationConstant
Nxk:__ZN6il2cpp2gcL10CleanupCCWEPvS1_
eb:invoke_vifff
BSd:__ZN5physx15NpParticleFluid15exportExtraDataERNS_22PxSerializationContextE
FCm:_glGetVertexAttribiv__wrapper
jEd:__ZN5physx6shdfnd15atomicDecrementEPVi
vf:_emscripten_request_fullscreen
_uj:_Predicate_1_Invoke_m851618236_gshared
wse:__ZN5physx2Cm12DelegateTaskINS_2Sc5SceneEXadL_ZNS3_11postCCDPassEPNS_10PxBaseTaskEEEED0Ev
ZTb:__ZN20LocalFileSystemWebGL6DeleteER13FileEntryDatab
xf:_emscripten_glDisableVertexAttribArray
pmi:_Array_InternalArray__ICollection_Remove_TisSingle_t1397266774_m3361324455_gshared
oo:FUNCTION_TABLE_iiiifiiii
qqa:__ZN4core8hash_mapINS_12basic_stringIcNS_20StringStorageDefaultIcEEEE13dynamic_arrayI4PPtrI6SpriteELj4EENS_4hashIS4_EENSt3__28equal_toIS4_EEE12delete_nodesEv
IIe:__ZN8Collider18SelfPointerToWordsERjS0_
_Zg:_InternalEnumerator_1__ctor_m3456047704_gshared
Ac:invoke_fifffi
ocj:_Collection_1_System_Collections_IList_Add_m2969482770_gshared
sJh:_BitConverterLE_GetBytes_m4130646282
nGa:__ZN4gles23ClearCurrentFramebufferEP7ApiGLESbbbRK10ColorRGBAffi
WF:__ZN7mecanim12statemachine20CreateStateWorkspaceEjjjRNS_6memory9AllocatorE
oik:__ZNK10KeyWrapperINSt3__24pairIPK12PropertyInfoP11Il2CppClassEEE14EqualsComparerINS0_8equal_toIS7_EEEclERKS8_SE_
dyj:_UnityEvent_1_Invoke_m3604335408_gshared
_Pl:__ZL79Convert_t2465617642_CustomAttributesCacheGenerator_Convert_ToUInt64_m2652538228P21CustomAttributesCache
Dxe:__ZN5physx2Gu11HeightField13releaseMemoryEb
If:_emscripten_glDeleteObjectARB
YDf:_EventSystem_RaycastComparer_m3685368675
FLa:__Z14DecompressDXT3iiiPKjPj
Zcl:__Z131RuntimeInvoker_Void_t1185182177_RuntimeObject_RuntimeObject_Int64_t3736567304_ObjectU26_t2146539884_SerializationInfoU26_t419328957PFvvEPK10MethodInfoPvPS4_
pLa:__ZN6prcoreL27StretchGenericFloatBilinearI18TexFormatARGBFloatEEvPKNS_9InnerInfoE
tTc:__ZN12LightsModule5StartER23ParticleSystemParticlesjj
hKh:_DSAManaged_CreateSignature_m2233977444
sam:__ZL87U3CDelayedDestroyDropdownListU3Ec__Iterator0_t3853912249_CustomAttributesCacheGeneratorP21CustomAttributesCache
UMh:_PKCS12_RemoveCertificate_m1421555398
UKg:_Kernel_MinusEq_m2152832554
Ljm:_CrossPlatformInputManager_GetButtonDown_m1689635996
aLa:__ZN6prcoreL17RemapGenericFloatI17TexFormatRGBAHalf18TexFormatARGBFloatEEvPKNS_9InnerInfoE
Vuc:__ZN10systeminfo21SupportsAccelerometerEv
$Hc:__Z14GetBuiltinSkini
Hmh:_MethodDictionary_get_Item_m1201458851
PHf:_StandaloneInputModule_ProcessMouseEvent_m2923582521
o6k:__Z60RuntimeInvoker_SByte_t1669577662_RuntimeObject_RuntimeObjectPFvvEPK10MethodInfoPvPS4_
ngi:_Single_System_IConvertible_ToSingle_m1939829239_AdjustorThunk
rha:___cxx_global_var_init_18
lAk:__ZN6il2cpp2os10ThreadImpl13SetWaitObjectEPNS0_5posix15PosixWaitObjectE
Rl:_JS_SystemInfo_GetBrowserVersionString
Sxb:__ZN2UI13RectTransform23VirtualRedirectTransferER14SafeBinaryRead
mub:__ZN24GenerateTypeTreeTransfer8TransferINSt3__26vectorIN4core12basic_stringIcNS3_20StringStorageDefaultIcEEEE13stl_allocatorIS7_L18MemLabelIdentifier13ELi16EEEEEEvRT_PKc17TransferMetaFlags
Y1d:__ZN5physx7NpScene17flushQueryUpdatesEv
Qdh:_Enumerator_MoveNext_m3045873697_gshared
cjl:__Z31RuntimeInvoker_Rect_t2360479859PFvvEPK10MethodInfoPvPS4_
nua:__ZNSt3__26vectorIN9ShaderLab20SerializedSubProgramENS_9allocatorIS2_EEE6assignIPS2_EENS_9enable_ifIXaasr21__is_forward_iteratorIT_EE5valuesr16is_constructibleIS2_NS_15iterator_traitsIS9_E9referenceEEE5valueEvE4typeES9_S9_
YOc:__Z18Transfer_BlittableI8JSONReadLb0E8BitFieldEvRK29SerializationCommandArgumentsR31RuntimeSerializationCommandInfo
vfg:_Char_ToString_m3588025615_AdjustorThunk
PDi:_HashSet_1_CopyTo_m2849056227_gshared
iNb:__ZL17Transfer_GUIStyleI18StreamedBinaryReadILb1EELb0EEvRK29SerializationCommandArgumentsR31RuntimeSerializationCommandInfo
rIh:_ModulusRing_Multiply_m343333088
kJe:__ZN12PhysXRaycast15InitializeClassEv
o2d:__ZN5physx7NpScene10unlockReadEv
csa:__ZN9ShaderLab14SerializedPass8TransferI14SafeBinaryReadEEvRT_
VIc:__Z71Register_UnityEngine_GUILayoutUtility_INTERNAL_CALL_Internal_MoveWindowv
SX:__ZN12AudioManager16SetListenerPauseEb
dub:__ZNSt3__26vectorIN30RuntimeInitializeOnLoadManager9ClassInfoE13stl_allocatorIS2_L18MemLabelIdentifier13ELi16EEE6assignINS_11__wrap_iterIPS2_EEEENS_9enable_ifIXaasr21__is_forward_iteratorIT_EE5valuesr16is_constructibleIS2_NS_15iterator_traitsISC_E9referenceEEE5valueEvE4typeESC_SC_
eni:_SetPropertyUtility_SetStruct_TisSingle_t1397266774_m2805350785_gshared
rMi:_StringBuilder_get_Length_m3238060835
isk:__ZN6il2cpp2vm9Exception25RaiseOutOfMemoryExceptionERKNS_5utils10StringViewIDsEE
oEi:_KeyValuePair_2_set_Value_m2953914627_AdjustorThunk
fa:invoke_viiiiiiiiiii
Som:___syscall_ret
KCj:_DeriveBytes_set_Salt_m1400945044
fGf:_PointerEventData_set_worldNormal_m1888481930
uJf:_CanvasScaler_set_referencePixelsPerUnit_m1768965301
zIj:_AnchorInfo__ctor_m46784903
wPg:_CipherSuiteCollection_get_Item_m4188309062
eVg:_SslHandshakeHash_HashFinal_m2573455475
wkh:_SynchronizationAttribute_ReleaseLock_m1030353464
Ldk:__ZNSt3__212basic_stringIcNS_11char_traitsIcEENS_9allocatorIcEEE6assignINS_11__wrap_iterIPKcEEEENS_9enable_ifIXaasr21__is_forward_iteratorIT_EE5valuesr38__libcpp_string_gets_noexcept_iteratorISC_EE5valueERS5_E4typeESC_SC_
Mjb:__ZN11ChannelInfo8TransferI19StreamedBinaryWriteILb0EEEEvRT_
Adm:__ZL53ToggleGroup_t123837990_CustomAttributesCacheGeneratorP21CustomAttributesCache
SPd:__ZN5physx2Sc9ClothCore22setFrictionCoefficientEf
kbi:_SHA1Internal_AddLength_m2737455899
s0b:__ZN14qsort_internal13Partition3WayIP17RODataReplacementi19ROSorterReplacementEENSt3__24pairIT_S6_EES6_S6_T0_T1_
QJd:__ZNK5physx9NpPhysics17getNbConvexMeshesEv
L1d:__ZNK5physx7NpScene29getContactCorrelationDistanceEv
Fvi:_KeyValuePair_2_get_Value_m755756747_gshared
Yzc:__Z34Register_UnityEngine_Gradient_Initv
rrc:__Z15WriteLineVertexILb0EEvRPhRKN4math8float4x4ERKNS2_7_float3ERK11ColorRGBA32RKffRKNS2_7_float2E
n$c:__ZN13InitialModule8TransferI17RemapPPtrTransferEEvRT_
TXf:_GenericTypeParameterBuilder_IsArrayImpl_m67259334
Kjh:_Context_ToString_m1073616138
GUf:_DefaultMemberAttribute_get_MemberName_m3384235354
tmm:_AeroplaneUserControl4Axis__ctor_m4028591298
r0c:__ZN25IParticleSystemProperties8PropertyI8Vector3fNS_3MinILi0EEEE8TransferI18StreamedBinaryReadILb0EEEEvRT_PKc
ITj:__ZL24UnresolvedVirtualCall_57P12Il2CppObjectiPK10MethodInfo
Wrh:_InputField_EnforceTextHOverflow_m3400115777
tKl:__ZL62IFormatterConverter_t2171992254_CustomAttributesCacheGeneratorP21CustomAttributesCache
jZi:_List_1_System_Collections_IEnumerable_GetEnumerator_m1225415523_gshared
tLe:__Z39Register_UnityEngine_Rigidbody_get_dragv
Mqb:__ZN9InputAxis8TransferI19StreamedBinaryWriteILb0EEEEvRT_
Eqg:__Z33il2cpp_codegen_check_sub_overflowxx
$um:dynCall_viififiii
Jsh:_InputField_get_caretColor_m2973283772
Wzj:_ListPool_1_Release_m591299672_gshared
rqf:__ZN5physx18RepXPropertyFilterINS_2Sn17RepXVisitorReaderINS_23PxVehicleSuspensionDataEEEEclILj594ES3_ffEEvRKNS_14PxPropertyInfoIXT_ET0_T1_T2_EEj
fnd:__ZN5physx6shdfnd8SyncImpl4waitEj
xPl:__ZL79Convert_t2465617642_CustomAttributesCacheGenerator_Convert_ToUInt16_m3116648921P21CustomAttributesCache
m4g:_InternalEnumerator_1_MoveNext_m1096095130_AdjustorThunk
Lcj:_Collection_1_RemoveAt_m226266097_gshared
tyj:_UnityEvent_1_AddListener_m1590149461_gshared
E_c:__Z32TransferEnumWithNameForceIntSizeI14SafeBinaryRead25ParticleSystemScalingModeEvRT_RT0_PKc17TransferMetaFlags
B5l:__ZL63GUISkin_t1244372282_CustomAttributesCacheGenerator_m_ScrollViewP21CustomAttributesCache
k4a:__ZNK24MeshIntermediateRenderer14GetSubsetIndexEi
r3h:_Double_System_IConvertible_ToInt16_m3591921965_AdjustorThunk
ltj:_Comparison_1_Invoke_m2925518770_gshared
T3c:__ZN33SizeBySpeedModulePropertyBindings13GetFloatValueERK14ParticleSystemi
T_a:__ZN10GameObject23VirtualRedirectTransferER18StreamedBinaryReadILb0EE
XOj:_SymmetricTransform__ctor_m2693628991
$Rf:_ObjectDisposedException__ctor_m1034312941
Kkl:__Z67RuntimeInvoker_Void_t1185182177_Scene_t2348375561_Scene_t2348375561PFvvEPK10MethodInfoPvPS4_
Zg:_glFrontFace
E7j:__ZNK15dense_hashtableINSt3__24pairIK10KeyWrapperIPK11Il2CppClassEPKcEES6_N6il2cpp5utils11PointerHashIS3_EEN14dense_hash_mapIS6_S9_SE_NS6_14EqualsComparerINS0_8equal_toIS5_EEEENS0_9allocatorISA_EEE9SelectKeyESJ_SL_E13find_positionERS7_
YVc:__Z13DragUpdateTplIL27ParticleSystemCurveEvalMode4EEvRK11MinMaxCurvebbR23ParticleSystemParticlesjjRKN4math7_float4E
Exg:_FileSystemInfo_InternalRefresh_m1700260373
sNf:_Dropdown_OnSubmit_m1624226516
v_k:_RectOffset__ctor_m3236153262
ZBi:_EqualityComparer_1_get_Default_m1390205541_gshared
PMe:__ZN14SplatMaterials22FindMaterialPropertiesEP8Material
k$c:__ZN14ParticleSystem8TransferI17RemapPPtrTransferEEvRT_
g7j:__ZNK15dense_hashtableINSt3__24pairIK10KeyWrapperIPK19Il2CppGenericMethodEPK26Il2CppGenericMethodIndicesEES6_N6il2cpp8metadata23Il2CppGenericMethodHashEN14dense_hash_mapIS6_SA_SE_NS6_14EqualsComparerINSD_26Il2CppGenericMethodCompareEEENS0_9allocatorISB_EEE9SelectKeyESI_SK_E12test_deletedEj
wXc:__Z11StartCircleILN11ShapeModule14MultiModeValueE3EEvRS0_R23ParticleSystemParticlesRK19ParticleSystemStateRK27ParticleSystemEmissionStateRKN4math8float3x3ERKNSB_8float4x4Ejbj
jyh:_MaskUtilities_IsDescendantOrSelf_m2247511982
efl:__Z51RuntimeInvoker_UInt16_t2177724958_SByte_t1669577662PFvvEPK10MethodInfoPvPS4_
D3d:__ZN5physx13NpVolumeCache17getNbCachedShapesEv
o5b:__ZNSt3__26vectorI16ShadowCasterData13stl_allocatorIS1_L18MemLabelIdentifier2ELi16EEE21__push_back_slow_pathIKS1_EEvRT_
o5k:__Z46RuntimeInvoker_Double_t594665363_RuntimeObjectPFvvEPK10MethodInfoPvPS4_
f7e:__Z51Register_UnityEngine_TextGenerator_GetLinesInternalv
mdh:_Enumerator_get_Current_m2250080680_AdjustorThunk
gfi:_SecurityElement__cctor_m3326869319
IPj:_AesManaged_set_Key_m767972181
Gpg:_Int16_System_IConvertible_ToBoolean_m1656400658_AdjustorThunk
Cdg:_Byte_System_IConvertible_ToInt64_m285584218
yrf:__Z54setPxVehicleWheelsSimData_HighForwardSpeedSubStepCountPN5physx22PxVehicleWheelsSimDataEj
GDa:__ZN13GfxDeviceGLES22SetScissorRectPlatformERK5RectTIiE
rKa:__ZN6prcoreL17RemapGenericFloatI17TexFormatRGBFloat18TexFormatRGBAFloatEEvPKNS_9InnerInfoE
hjg:_DictionaryEntry_t3123975638_marshal_pinvoke_cleanup
e5d:__ZN5physx2Sc5Scene15getRenderBufferEv
cri:_Array_InternalArray__ICollection_Add_TisDictionaryEntry_t3123975638_m665385049_gshared
uck:_WritableAttribute__ctor_m1991076220
NBg:_MissingMemberException__ctor_m2707802176
_yb:__ZN12HandlerChain10ToAbsoluteEPKc
jYj:_Canvas_get_renderMode_m841659411
ufi:_SecurityException_get_GrantedSet_m2643283539
Ugb:__ZN15SerializeTraitsI13dynamic_arrayI28EnlightenRendererInformationLj8EEE19ResizeSTLStyleArrayERS2_i
elm:_TouchPad__ctor_m1845169266
VRb:__ZN13MonoBehaviour23VirtualRedirectTransferER19StreamedBinaryWriteILb0EE
hP:__ZN9AudioClip11CreateSoundEv
Wjl:__Z98RuntimeInvoker_Void_t1185182177_Single_t1397266774_Vector3U26_t3464235976_QuaternionU26_t651104941PFvvEPK10MethodInfoPvPS4_
TIe:__Z19ExtractDataFromMeshR4MeshR13dynamic_arrayI8Vector3fLj4EERS1_IjLj4EES6_b
Blk:__ZN14dense_hash_mapI10KeyWrapperINSt3__24pairIPK9FieldInfoP11Il2CppClassEEEj17ReflectionMapHashIS8_ENS9_14EqualsComparerINS1_8equal_toIS8_EEEENS1_9allocatorINS2_IKS9_jEEEEEC2EjRKSB_RKSF_
dYj:_TextGenerator_PopulateWithErrors_m1222498386
Zgk:__ZNK15dense_hashtableINSt3__24pairIK10KeyWrapperINS1_IPK10MethodInfoP11Il2CppClassEEEjEES9_17ReflectionMapHashIS8_EN14dense_hash_mapIS9_jSD_NS9_14EqualsComparerINS0_8equal_toIS8_EEEENS0_9allocatorISB_EEE9SelectKeyESI_SK_E13find_positionERSA_
cUk:_Logger_get_filterLogType_m1177392786
hKb:__Z18Transfer_BlittableI19StreamedBinaryWriteILb0EELb0E8Vector2fEvRK29SerializationCommandArgumentsR31RuntimeSerializationCommandInfo
Iej:_Array_InternalArray__set_Item_TisIntPtr_t_m3746458435_gshared
Igf:__ZN11UnityEngine7Connect16PersistentValues13RestoreValuesER8JSONRead
FBl:__ZL65RuntimeArray_CustomAttributesCacheGenerator_Array_Sort_m182264525P21CustomAttributesCache
t9h:_Guid_BaseToString_m3600006650
pQe:__ZNK14SplatMaterials12GetMaterialsER13dynamic_arrayIP8MaterialLj4EE
qDf:_PointerEventData_set_pointerEnter_m3256217464
Pne:__ZNK5physx2Gu11HeightField17getHeightInternalEff
ouk:__ZN6il2cpp2vmL11GetIdentityEP14Il2CppIUnknown
d8j:__ZN6il2cpp2vm13MetadataCache26GetWindowsRuntimeClassNameEPK11Il2CppClass
EGk:_GC_push_gc_structures
HSg:_TlsServerCertificate_ProcessAsTls1_m819212276
d1d:__ZNK5physx7NpScene22getClientBehaviorFlagsEh
sij:_Dictionary_2_Do_ICollectionCopyTo_TisRuntimeObject_m3942192587_gshared
vKd:__ZN5physx9NpFactory14createMaterialEfff
w9c:__ZNK5physx3Cct13BoxController8getStatsERNS_17PxControllerStatsE
$jk:__ZN15dense_hashtableINSt3__24pairIK10KeyWrapperIPK14Il2CppAssemblyEPK22Il2CppMonoAssemblyNameEES6_N6il2cpp5utils11PointerHashIS4_EEN14dense_hash_mapIS6_SA_SF_NS6_14EqualsComparerINS0_8equal_toIS5_EEEENS0_9allocatorISB_EEE9SelectKeyESK_SM_E4swapERSP_
_6l:__ZL139RectTransformUtility_t1743242446_CustomAttributesCacheGenerator_RectTransformUtility_INTERNAL_CALL_RectangleContainsScreenPoint_m1214874141P21CustomAttributesCache
J_:__ZN5physx5cloth11PhaseConfigC2Et
oNa:__Z22GetShaderCachePathGLESv
q6c:__Z19UpdateSingleRow2TplIL27ParticleSystemCurveEvalMode0ELS0_2EEvfRK11MinMaxCurveS3_RK23ParticleSystemParticlesPfbiii
zy:__ZNSt3__26vectorIN13AnimationClip10FloatCurveE13stl_allocatorIS2_L18MemLabelIdentifier26ELi16EEE6resizeEj
y9c:__ZN5physx3Cct13BoxControllerD2Ev
NKg:_Kernel_DwordDivMod_m1540317819
Wvj:_CachedInvokableCall_1_Invoke_m931536002_gshared
k4c:__ZN22ParticleSystemRenderer23UpdateVertexInputLayoutEv
P$d:__ZThn8_N5physx2Sc19ShapeInstancePairLLD0Ev
Pie:__ZN5physx19PxcContactSphereBoxERKNS_2Gu13GeometryUnionES3_RKNS_11PxTransformES6_RKfRNS_10PxcNpCacheERNS0_13ContactBufferE
UCb:__Z18Transfer_BlittableI14SafeBinaryReadLb1E11ColorRGBA32EvRK29SerializationCommandArgumentsR31RuntimeSerializationCommandInfo
r1d:__ZNK5physx7NpScene21getBroadPhaseCallbackEh
Rsd:__ZN5physx6shdfnd5ArrayIPNS_12PxConstraintENS0_19ReflectionAllocatorIS3_EEE15growAndPushBackERKS3_
oEj:_X509StoreManager_get_CurrentUser_m719101392
A_f:_TypeBuilder_GetPropertyImpl_m3104345782
ekb:__ZNSt3__213__stable_sortIRNS_4lessI4PPtrI11SpriteAtlasEEENS_11__wrap_iterIPS4_EEEEvT0_SA_T_NS_15iterator_traitsISA_E15difference_typeEPNSD_10value_typeEi
Utg:_Int64_ToString_m2085073918_AdjustorThunk
Yzd:__ZNK5physx2Sc15ArticulationSim11checkResizeEv
g$f:_FieldInfo_GetFieldOffset_m1356898082
Nxl:__Z36RuntimeInvoker_Enumerator_t652329154PFvvEPK10MethodInfoPvPS4_
kqi:_Array_InternalArray__IndexOf_TisTypeTag_t3541821701_m2988972362_gshared
Jia:__ZN8keywords6CreateEPKc
Odd:__ZN5physx2Gu11gjkRelativeINS0_8CapsuleVENS0_11ConvexHullVEEEjRKT_RKT0_RKNS_6shdfnd3aos15PsMatTransformVERNSB_5Vec3VESG_SG_RNSB_6FloatVE
Omf:__ZN5physx16PxVehicleNoDrive14setDriveTorqueEjf
T_j:__ZL7log2_32j
S:Math_imul
NFi:_Enumerator_Dispose_m786980821_AdjustorThunk
Url:__Z49RuntimeInvoker_Boolean_t97287965_Byte_t1134296376PFvvEPK10MethodInfoPvPS4_
x6c:__Z17UpdateSprites2TplIL27ParticleSystemCurveEvalMode4ELS0_4EEvfRK11MinMaxCurveS3_RK23ParticleSystemParticlesPf
aTg:_TlsServerKeyExchange_Update_m453798279
Xhb:__ZN11PlayerPrefs6GetIntERKN4core12basic_stringIcNS0_20StringStorageDefaultIcEEEEi
DPg:_CipherSuiteCollection_System_Collections_IList_IndexOf_m1361500977
XEh:_Text_set_fontStyle_m648756124
P6e:__Z45TextGenerator_CUSTOM_INTERNAL_get_rectExtentsP12Il2CppObjectP5RectTIfE
Fjl:__Z50RuntimeInvoker_Touch_t1921856868_Int32_t2950945753PFvvEPK10MethodInfoPvPS4_
Igc:__ZN14BestStripCacheD2Ev
aYh:_DateTime__ctor_m2135476686_AdjustorThunk
Nnh:_SoapFieldAttribute_IsInteropXmlElement_m2819415462
LY:__ZN11AudioSource12SetAudioClipEP9AudioClip
j$k:_RectTransform_GetLocalCorners_m823861473
uEe:__ZN12PhysXRaycast19ApplyParticleForcesER13dynamic_arrayI21BatchedColliderResultLj4EE
g4c:__ZN30VelocityModulePropertyBindings13GetFloatValueERK14ParticleSystemi
bAi:_EqualityComparer_1__ctor_m3717935020_gshared
Dtj:_Comparison_1_EndInvoke_m2734814639_gshared
W7:__ZN18ScriptingArguments9AddObjectE18ScriptingObjectPtr
bbf:__Z39CanvasGroup_Get_Custom_PropInteractableP12Il2CppObject
i$:__ZN11UnityEngine15CloudWebService16SessionContainerD2Ev
Sgf:__ZL38InitializeUnityConnectScriptingClassesv
B9b:__ZN13ProbeRenderer8ConvolveEbijjb
BOj:_GUIUtility_set_systemCopyBuffer_m608712289
HGa:__ZN17GenericDynamicVBOC2ER9GfxDevice13GfxBufferModejj
KOe:__ZN14DetailDatabase8TransferI19StreamedBinaryWriteILb0EEEEvRT_
h4a:__ZN24MeshIntermediateRendererD2Ev
uZd:__ZNK5physx2Sc5Scene7isValidEv
Hzi:_EqualityComparer_1_System_Collections_IEqualityComparer_Equals_m2639327655_gshared
a6h:_CCGregorianCalendar_day_from_fixed_m1674702403
B0:__ZN11UnityEngine15CloudWebService17SessionEventQueue10PurgeItemsEj
u3d:__ZN5physx2Sq17SceneQueryManager29setDynamicTreeRebuildRateHintEj
fac:__ZN6Camera16StandaloneRenderENS_10RenderFlagEP6ShaderRKN4core12basic_stringIcNS3_20StringStorageDefaultIcEEEE
RSh:_X509Chain_PrepareForNextCertificate_m3691934993
aeb:__ZNK12CubemapArray13GetIsReadableEv
o_k:_Rect_Equals_m4169342960
CMb:__Z18Transfer_BlittableI18StreamedBinaryReadILb1EELb1EtEvRK29SerializationCommandArgumentsR31RuntimeSerializationCommandInfo
U4l:__ZL58EventType_t3528516131_CustomAttributesCacheGenerator_keyUpP21CustomAttributesCache
KKl:__ZL57X509Certificate_t713131622_CustomAttributesCacheGeneratorP21CustomAttributesCache
hnb:__ZN12BoneWeights48TransferI19StreamedBinaryWriteILb0EEEEvRT_
SAa:__ZN9GfxDevice20DeallocRenderSurfaceEP17RenderSurfaceBase
Nyd:__ZN5physx6shdfnd5ArrayIPvNS0_19ReflectionAllocatorINS_18NpArticulationLinkEEEE4copyINS0_15InlineAllocatorILj256ES5_EEEEvRKNS1_IS2_T_EE
jxa:__ZN20GpuProgramParameters36UpdatePrepareValuesMaximumBufferSizeEv
DSj:_AudioSourceExtension_Stop_m387892536
V9c:__ZNK5physx3Cct10Controller12getKineShapeEv
PXc:__Z15GetPositionMeshIL20MeshDistributionMode1ELb1E11ColorRGBA32EvRN4math8floatNx3ES4_RNS2_4pix4ERK13dynamic_arrayIS1_Lj4EERK14StrideIteratorI8Vector3fESF_RKSB_IT1_ERKS7_I16MeshTriangleDataLj4EERKS7_I11MeshAreaLUTLj4EERKfRKiST_R5RandNP12SkinMeshInfo
rCi:_EqualityComparer_1_get_Default_m168544645_gshared
Fnj:_ReadOnlyCollection_1_System_Collections_IList_get_IsReadOnly_m3888539454_gshared
J0c:__ZN20ExternalForcesModule8TransferI19StreamedBinaryWriteILb0EEEEvRT_
frd:__ZN5physx6shdfnd4sortIPvNS0_4LessIS2_EENS0_19ReflectionAllocatorINS_2Sc18TriggerInteractionEEEEEvPT_jRKT0_RKT1_j
vsi:_Array_InternalArray__ICollection_CopyTo_TisDecimal_t2948259380_m2749946216_gshared
yFl:__ZL54EnumBuilder_t2400448213_CustomAttributesCacheGeneratorP21CustomAttributesCache
dlf:__ZNSt3__26vectorIN5physx25PxVehicleWheelQueryResultENS_9allocatorIS2_EEE21__push_back_slow_pathIKS2_EEvRT_
ZTg:_ReceiveRecordAsyncResult_get_ResultingBuffer_m1839161335
r0a:__ZN12BaseRenderer23RendererBecameInvisibleEv
FXd:__ZNK5physx2Sc8BodyCore14getMaxAngVelSqEv
Fkh:_EnvoyInfo__ctor_m276600651
C3e:__ZN20TextRenderingPrivate8FontImpl13CharacterInfo8TransferI18StreamedBinaryReadILb0EEEEvRT_
mXl:__ZL78Mathf_t3464937446_CustomAttributesCacheGenerator_Mathf_PerlinNoise_m2335393878P21CustomAttributesCache
RJb:__Z29Transfer_Blittable_ArrayFieldI24GenerateTypeTreeTransferfEvRT_R9ArrayInfoRK23StaticTransferFieldInfo
lla:__ZNSt3__26__treeINS_12__value_typeIN4core12basic_stringIcNS2_20StringStorageDefaultIcEEEES6_EENS_19__map_value_compareIS6_S7_NS_4lessIS6_EELb1EEE13stl_allocatorIS7_L18MemLabelIdentifier13ELi16EEE7destroyEPNS_11__tree_nodeIS7_PvEE
oSk:_UnityEvent_FindMethod_Impl_m2312362624
vbc:__ZN19CustomRenderTexture9AddParentE4PPtrIS_E
Bga:__ZN8Gradient8TransferI14SafeBinaryReadEEvRT_
$Lf:_FloatTween_AddOnChangedCallback_m2814315272
vgi:_Single_System_IConvertible_ToUInt64_m3299129161_AdjustorThunk
scb:__ZNSt3__26vectorIN4core12basic_stringIcNS1_20StringStorageDefaultIcEEEE13stl_allocatorIS5_L18MemLabelIdentifier1ELi16EEE7reserveEj
Wfg:_ArrayList_Shift_m395607654
X6l:__ZL93CanvasRenderer_t2598313366_CustomAttributesCacheGenerator_CanvasRenderer_set_cull_m4222419074P21CustomAttributesCache
jim:__ZL91CarController_t4228304488_CustomAttributesCacheGenerator_CarController_set_Revs_m3708846203P21CustomAttributesCache
Ieh:_ValueCollection_System_Collections_Generic_ICollectionU3CTValueU3E_Contains_m3110959791_gshared
VPh:_IPv6Address_AsIPv4Int_m844941024
Zvb:__ZN18IDCollectorFunctorD0Ev
Oje:__ZN5physx2Gu32PCMConvexVsMeshContactGeneration15processTriangleEPKNS_6PxVec3EjhPKj
plg:_SortedList_GetEnumerator_m772783392
iMi:_StringBuilder__ctor_m3504405255
Rim:__ZL118U3CCountStartU3Ec__Iterator0_t113046106_CustomAttributesCacheGenerator_U3CCountStartU3Ec__Iterator0_Dispose_m472557558P21CustomAttributesCache
$4f:_Marshal__cctor_m4007734770
yFk:_GC_new_free_list_inner
aMh:_SymmetricTransform_Random_m2004892672
Xil:__Z79RuntimeInvoker_Void_t1185182177_RuntimeObject_Byte_t1134296376_Byte_t1134296376PFvvEPK10MethodInfoPvPS4_
xNg:_EncryptedPrivateKeyInfo_get_IterationCount_m2912222740
NCl:__ZL72RuntimeCompatibilityAttribute_t1169614002_CustomAttributesCacheGeneratorP21CustomAttributesCache
kFl:__ZL63PathTooLongException_t2919094560_CustomAttributesCacheGeneratorP21CustomAttributesCache
qne:__ZN5physx6shdfnd5ArrayINS_2Cm8Matrix34ENS0_19ReflectionAllocatorIS3_EEE15growAndPushBackERKS3_
QNg:_RSAManaged_DecryptValue_m1804388365
Vje:__ZN5physx2Gu32PCMConvexVsMeshContactGeneration31generatePolyDataContactManifoldERNS0_9TriangleVEjjhPNS0_21MeshPersistentContactERjRKNS_6shdfnd3aos6FloatVERNS8_5Vec3VE
pXg:_InternalEnumerator_1_System_Collections_IEnumerator_get_Current_m2980550840_AdjustorThunk
yze:__ZN5physx10SubSortSAH5splitEPjj
Bqh:_ObjectReader_ReadArrayOfPrimitiveType_m3374303005
zqf:__Z41setPxVehicleSuspensionDataMSpringStrengthPN5physx23PxVehicleSuspensionDataEf
Fs:__ZN25RuntimeAnimatorController8TransferI14SafeBinaryReadEEvRT_
MPc:__ZN8JSONRead8TransferI10RectOffsetEEvRT_PKc17TransferMetaFlagsb
ovk:__ZNK15dense_hashtableINSt3__24pairIK10KeyWrapperINS1_IPKcS4_EEEiEES6_24NamespaceAndNamePairHashN14dense_hash_mapIS6_iS9_NS6_14EqualsComparerI26NamespaceAndNamePairEqualsEENS0_9allocatorIS8_EEE9SelectKeyESD_SF_E12test_deletedERK24dense_hashtable_iteratorIS8_S6_S9_SH_SD_SF_E
k0:__ZN9JSONWrite8TransferIN11UnityEngine15CloudWebService14DataErrorEvent15FileErrorDetailEEEvRT_PKc17TransferMetaFlags
L9i:_Collection_1_ClearItems_m2728738230_gshared
Fsg:_Int32_Parse_m2087562008
f3a:__Z21ClearFenceWithoutSyncR8JobFence
uAf:__ZN5physx3Pvd17PvdPropertyFilterINS_2Sn17RepXVisitorWriterINS_30PxVehicleAckermannGeometryDataEEEE14handleAccessorILj554ENS_22PxRepXPropertyAccessorILj554ES4_ffEEEEvRKT0_
ofd:__ZN5physx2Gu3EPA8addFacetEjjjRKNS_6shdfnd3aos6FloatVES6_
r$c:__ZN14RotationModule8TransferI17RemapPPtrTransferEEvRT_
Y1f:_MonoProperty_GetAccessors_m412928203
Bzj:_TweenRunner_1_Start_m3757154622_gshared
nS:__ZN12SoundManager20RegisterModifiedClipEP10SampleClip
Boh:_RemotingServices_GetClientChannelSinkChain_m1499550585
TSf:_Assembly_FillName_m1660001542
rIl:__ZL56_EventBuilder_t2558055199_CustomAttributesCacheGeneratorP21CustomAttributesCache
hBh:_ScrollRect_get_decelerationRate_m74583805
Kbi:_SHA384Managed_processBlock_m1272529332
TU:__ZN11AudioSource4PlayEd
eFj:_X509Store_get_Crls_m1211262034
xfg:_Char_ToString_m278452217_AdjustorThunk
Ymd:__ZN5physx3Cct9CCTParamsC2Ev
$4j:__ZN15dense_hashtableI10KeyWrapperIPK17Il2CppGenericInstES4_N6il2cpp8metadata21Il2CppGenericInstHashEN14dense_hash_setIS4_S7_NS4_14EqualsComparerINS6_24Il2CppGenericInstCompareEEENSt3__29allocatorIS4_EEE8IdentityESB_SE_E13set_empty_keyERKS4_
HDj:_X509Certificate_get_RSA_m1755006809
qng:_Convert_ToDouble_m2924063577
rNd:__ZN5physx7NpCloth21setStiffnessFrequencyEf
Zzb:__ZNK20LocalFileSystemPosix8IsHiddenERK13FileEntryData
qce:__ZN5physx17PxcSweepBoxConvexERKNS_11PxsCCDShapeES2_PKNS_12PxsRigidBodyES5_RKNS_11PxTransformES8_S8_S8_fRNS_6PxVec3ESA_RNS_10PxcNpCacheERNS_18PxcNpThreadContextEf
Kve:__ZThn8_N5physx2Gu11HeightField14onRefCountZeroEv
MRe:__ZN12TreeRenderer17UpdateShaderPropsERK27ScriptableCullingParametersf
zqd:__ZN5physx2Sc5Actor9setActiveEbj
G5g:_InternalEnumerator_1_System_Collections_IEnumerator_Reset_m1601477281_AdjustorThunk
Alf:__ZN13WheelCollider8TransferI18StreamedBinaryReadILb0EEEEvRT_
Ddd:__ZN12_GLOBAL__N_127SphereMeshContactGeneration15processTriangleEjRKN5physx6PxVec3ES4_S4_PKj
_Qe:__ZN13dynamic_arrayI4AABBLj4EE9push_backERKS0_
T6l:__ZL113CanvasRenderer_t2598313366_CustomAttributesCacheGenerator_CanvasRenderer_SplitUIVertexStreamsInternal_m3280623346P21CustomAttributesCache
Veb:__ZN7Cubemap23VirtualRedirectTransferER18StreamedBinaryReadILb0EE
k5g:_InternalEnumerator_1__ctor_m1739091604_gshared
zBc:__ZNSt3__27__sort4IRNS_6__lessI11KeyframeTplIfES3_EEPS3_EEjT0_S7_S7_S7_T_
d0e:_Read_CVT
Vqd:__ZN5physx2Sc10NPhaseCore28reserveContactReportPairDataEjjRj
Udd:__ZN5physx2Gu22barycentricCoordinatesERKNS_6shdfnd3aos5Vec3VES5_S5_RNS2_6FloatVE
LYa:__ZN12FileAccessor4SeekEx10FileOrigin
FIb:__ZL26Transfer_SimpleNativeClassI24GenerateTypeTreeTransfer17AnimationCurveTplIfELb0EEvRK29SerializationCommandArgumentsR31RuntimeSerializationCommandInfo
MQc:__ZN8JSONRead21TransferSTLStyleArrayI13dynamic_arrayI9BoundsIntLj4EEEEvRT_17TransferMetaFlags
ahb:__ZN24GenerateTypeTreeTransfer8TransferI13dynamic_arrayI33EnlightenTerrainChunksInformationLj4EEEEvRT_PKc17TransferMetaFlags
SYh:_DateTimeFormatInfo__ctor_m3106345035
tQg:_TlsServerKeyExchange_verifySignature_m3412856769
hzi:_EqualityComparer_1_System_Collections_IEqualityComparer_GetHashCode_m4137147946_gshared
Sxe:__ZL18TestUnifiedNormalsjPKN5physx6PxVec3EjPNS_2Gu9TriangleTIjEEb
Ima:__ZN16LightmapSettings20DidChangeActiveSceneEP10UnitySceneS1_
fKb:__Z18Transfer_BlittableI19StreamedBinaryWriteILb0EELb0EN4math12int3_storageEEvRK29SerializationCommandArgumentsR31RuntimeSerializationCommandInfo
Qnm:_Suspension__ctor_m3130278506
CMe:__ZN14SplatMaterials16DestroyMaterialsEv
Mbk:__ZN6il2cpp5utils9PathUtils8BasenameIcEENSt3__212basic_stringIT_NS3_11char_traitsIS5_EENS3_9allocatorIS5_EEEERKSA_
Roh:_RemotingProxy__cctor_m4096951805
FIc:__Z35Register_UnityEngine_Event_get_typev
Shm:__ZL82CarController_t4228304488_CustomAttributesCacheGenerator_m_FullTorqueOverAllWheelsP21CustomAttributesCache
tsk:__ZN6il2cpp2vm9Exception23GetInvalidCastExceptionERKNS_5utils10StringViewIDsEE
ocm:__ZL64Scrollbar_t1494447233_CustomAttributesCacheGenerator_m_DirectionP21CustomAttributesCache
Fqc:__ZN4NodeD2Ev
tue:__ZNK5physx13GuMeshFactory17getNbConvexMeshesEv
oJl:__ZL48Header_t549724581_CustomAttributesCacheGeneratorP21CustomAttributesCache
A6l:__ZL88CanvasGroup_t4083511760_CustomAttributesCacheGenerator_CanvasGroup_get_alpha_m2918269489P21CustomAttributesCache
d8c:__ZN14ParticleSystem15InitializeClassEv
D6:__Z63ThreadAndSerializationSafeCheckGetMonoBehaviourBeingTransferredv
R2h:_StackTrace__ctor_m206492268
gYi:_List_1_set_Item_m4224739467_gshared
J8k:__Z74RuntimeInvoker_Int32_t2950945753_RuntimeObject_RuntimeObject_RuntimeObjectPFvvEPK10MethodInfoPvPS4_
rLf:_ColorTween_set_startColor_m2562993758_AdjustorThunk
mVf:_ConstructorBuilder_get_Name_m2426555260
ZAc:__Z37Register_UnityEngine_Input_GetAxisRawv
kTl:__ZL80ModulusRing_t596511505_CustomAttributesCacheGenerator_ModulusRing_Pow_m729002192P21CustomAttributesCache
CHj:_Parser_ParseCharacterClass_m4285351396
oog:_Convert_ToSByte_m2653418303
Ckg:_SyncHashtable__ctor_m2449935938
FU:__ZN11AudioSource5ResetEv
Wai:_RSAPKCS1SignatureFormatter_SetKey_m2935054088
S$b:__ZN12ImageFilters27SetSurfaceUseResolvedBufferEP13RenderTextureb
dHj:_Regex__ctor_m3948448025
tkb:__ZN14Texture2DArray23VirtualRedirectTransferER18StreamedBinaryReadILb0EE
Kqa:__ZN13TrailRenderer5ResetEv
SNi:_UTF7Encoding_GetByteCount_m209415911
Jxb:__ZN2UI13RectTransform13AwakeFromLoadE17AwakeFromLoadMode
iKj:_RegularExpression_Compile_m2385682508
k6h:_CompareInfo__cctor_m1837489679
ape:__ZN5physx23PxsSolverSetupSolveTaskD2Ev
skf:__ZN5physx23PxVehicleWheels4SimData26setSuspForceAppPointOffsetEjRKNS_6PxVec3E
O4b:__ZN14qsort_internal30FindAndMovePivotToLastPositionIP20ShadowCasterSortDatai26ShadowCasterSortDataSorterEEvT_S4_T0_T1_
F5j:__ZNK15dense_hashtableI10KeyWrapperIPK19Il2CppGenericMethodES4_N6il2cpp8metadata23Il2CppGenericMethodHashEN14dense_hash_setIS4_S7_NS4_14EqualsComparerINS6_26Il2CppGenericMethodCompareEEENSt3__29allocatorIS4_EEE8IdentityESB_SE_E3endEv
bCb:__Z18Transfer_BlittableI14SafeBinaryReadLb1EiEvRK29SerializationCommandArgumentsR31RuntimeSerializationCommandInfo
XSh:_X509ExtensionEnumerator_get_Current_m256207749
Mha:__GLOBAL__sub_I_modules_profiler_public_0_cpp
Dvj:_Predicate_1__ctor_m3829092036_gshared
jwb:__ZN17PersistentManager13GetAllFileIDsERKN4core12basic_stringIcNS0_20StringStorageDefaultIcEEEER13dynamic_arrayIxLj8EE
aNl:__ZL83StringBuilder_t_CustomAttributesCacheGenerator_StringBuilder_AppendLine_m1438862993P21CustomAttributesCache
Tag:_Array_Sort_m182264525
bwh:_LayoutGroup_set_padding_m282562135
c6i:_Collection_1_System_Collections_IList_get_IsReadOnly_m773226719_gshared
QTf:_Default_IsArrayAssignable_m953489228
GL:__ZNK4PPtrI8RendererEcvPS0_Ev
Qmk:_il2cpp_field_get_offset
pUi:_UInt16_ToString_m355311020_AdjustorThunk
zHd:__ZN18MultiQueryCallbackIN5physx12PxOverlapHitEE6invokeERfPKNS0_2Sq13PrunerPayloadEj
Lwj:_InvokableCall_1_remove_Delegate_m667188944_gshared
Chd:__ZN5physx2Gu18gjkRelativeRayCastINS0_4BoxVES2_NS0_10ShrunkBoxVES3_EEbRT_RT0_RKNS_6shdfnd3aos15PsMatTransformVERKNS9_6FloatVERKNS9_5Vec3VESI_RSD_RSG_SK_fb
zkh:_SynchronizedClientContextSink__ctor_m4129963630
ml:_glGetStringi
Kji:_DecoderExceptionFallback_CreateFallbackBuffer_m1133375601
kwk:__ZNK15dense_hashtableI10KeyWrapperIP18Il2CppGenericClassES3_N6il2cpp8metadata22Il2CppGenericClassHashEN14dense_hash_setIS3_S6_NS3_14EqualsComparerINS5_25Il2CppGenericClassCompareEEENSt3__29allocatorIS3_EEE8IdentityESA_SD_E10test_emptyERK30dense_hashtable_const_iteratorIS3_S3_S6_SF_SA_SD_E
Cah:_Enumerator_get_CurrentKey_m889650866_gshared
_Rd:__ZN5physx22NpParticleBaseTemplateINS_15PxParticleFluidENS_15NpParticleFluidEE14setRestitutionEf
nlb:__ZN18StreamedBinaryReadILb0EE21TransferSTLStyleArrayI13dynamic_arrayI8Vector4fLj4EEEEvRT_17TransferMetaFlags
H8g:_Comparer_1_get_Default_m1513846993_gshared
w$j:_Physics_Raycast_m3133704280
$ue:__ZThn8_N5physx2Gu10ConvexMeshD0Ev
rMh:_EncryptedData_get_EncryptionAlgorithm_m1297902161
qam:__ZL67OptionDataList_t1438173104_CustomAttributesCacheGenerator_m_OptionsP21CustomAttributesCache
y9d:__ZNK5physx2Sq12BucketPruner7raycastERKNS_6PxVec3ES4_RfRNS0_14PrunerCallbackE
RI:__ZN8Animator9WriteStepEy
X0:__ZN11UnityEngine15CloudWebService20WebRequestRestClient18GetResponseHeadersEv
Apc:__ZN16PropertyAccessorC2Ev
eib:__ZNSt3__23mapIN4core12basic_stringIcNS1_20StringStorageDefaultIcEEEE9PrefValueNS_4lessIS5_EENS_9allocatorINS_4pairIKS5_S6_EEEEEixERSB_
_Mb:__Z35Transfer_Blittable_FixedBufferFieldI18StreamedBinaryReadILb1EEaEvRK29SerializationCommandArgumentsR31RuntimeSerializationCommandInfo
Woc:__ZN15DirectorManager22ConstructPlayableGraphEv
ncm:__ZL65Scrollbar_t1494447233_CustomAttributesCacheGenerator_m_HandleRectP21CustomAttributesCache
WBc:__ZN11PlayerPrefs8GetFloatERKN4core12basic_stringIcNS0_20StringStorageDefaultIcEEEEf
gHb:__Z18Transfer_BlittableI17RemapPPtrTransferLb0EdEvRK29SerializationCommandArgumentsR31RuntimeSerializationCommandInfo
h7i:_Collection_1_ConvertItem_m1743542180_gshared
W6e:__Z38Register_UnityEngine_Font_HasCharacterv
sxl:__Z68RuntimeInvoker_Boolean_t97287965_Int16_t2552820387_Int16_t2552820387PFvvEPK10MethodInfoPvPS4_
L8b:__Z35IntersectSpherePlaneBoundsOptimizedRKN4math7_float4EPS1_i
bai:_RNGCryptoServiceProvider__cctor_m3587754670
Rod:__ZN5physx2Sc8ShapeSim20createLowLevelVolumeEjRKNS_9PxBounds3EjNS_9AABBMgrIdE
OUj:__ZL25UnresolvedVirtualCall_117P12Il2CppObjecthS0_PK10MethodInfo
_$g:_InternalEnumerator_1_MoveNext_m1728532725_AdjustorThunk
sKi:_List_1_get_Count_m241572196_gshared
t3c:__ZN37InheritVelocityModulePropertyBindings13GetFloatValueERK14ParticleSystemi
QY:__ZN11AudioSource14SetSecPositionEf
wNd:__ZNK5physx7NpCloth22getAngularInertiaScaleEv
$v:__ZN7mecanim6memory16ChainedAllocator10DeallocateEPv
pjd:__ZN26IntersectAnyVsMeshCallbackILi1ELb1EE10processHitERKN5physx12PxRaycastHitERKNS1_6PxVec3ES7_S7_RfPKj
fma:__Z22CleanupLODGroupManagerPv
O4d:__ZN5physx6shdfnd5ArrayINS_2Sc5Scene14SimpleBodyPairENS0_19ReflectionAllocatorIS4_EEE8recreateEj
Xl:_glUniform3fv
qLk:__ZNK6il2cpp8metadata24Il2CppGenericInstCompareclERK10KeyWrapperIPK17Il2CppGenericInstES8_
htb:__ZNSt3__218__insertion_sort_3IRN15ResourceManager10Dependency6SorterEPS2_EEvT0_S6_T_
qTh:_X509ChainElement_Set_m655180762
buc:__ZNK8Gradient19InitializeOptimizedER17OptimizedGradient
iWk:_MonoBehaviour_StopCoroutine_m615723318
UYk:_Quaternion_GetHashCode_m2636680144
z3b:__ZNK16LightmapSettings31GetRealtimeLightmapDecodeValuesEv
HT:__ZN5audio5mixer12SetSuspendedERNS0_16AudioMixerMemoryEb
bxb:__ZN17PersistentManager21UnloadNonDirtyStreamsEv
UBe:__ZN8Collider12ScaleChangedEv
Lrk:__ZN6il2cpp2vm13LivenessStateC2EP11Il2CppClassjPFvPP12Il2CppObjectiPvES7_PFvvESB_
tTk:_Input_GetButtonDown_m3074252807
sYj:_Canvas_get_overrideSorting_m2740418462
oQi:_Scheduler__ctor_m3313141270
Dlb:__ZN12ImageFilters4BlitER17ShaderPassContextP7TextureP13RenderTextureiPK18SharedMaterialDataPKcP6ShaderiNS_9BlitFlagsE11CubemapFaceRK8Vector2fSH_
jHe:__ZN5physx6shdfnd8PoolBaseINS_24NpPtrTableStorageManager8PtrBlockILi4EEENS0_19ReflectionAllocatorIS4_EEE12allocateSlabEv
STl:__ZL80Enumerable_t538148348_CustomAttributesCacheGenerator_Enumerable_Where_m264777709P21CustomAttributesCache
Tdm:__ZL69CanvasScaler_t2767979955_CustomAttributesCacheGenerator_m_ScaleFactorP21CustomAttributesCache
bih:_ConfigHandler_CheckPath_m3079311646
L0:__ZN11UnityEngine15CloudWebService10RestClientINS0_23WebRequestRestHeaderMapEED2Ev
ase:__ZN5physx2Sc5Scene13ccdBroadPhaseEPNS_10PxBaseTaskE
sm:_emscripten_glDepthMask
Qje:__ZN5physx2Gu24PCMMeshContactGeneration15processContactsEhb
fph:_RemotingServices_CreateClientProxy_m3886727610
WHa:__ZN4crnd25static_huffman_data_model22prepare_decoder_tablesEv
hNd:__ZN5physx7NpCloth12setParticlesEPKNS_15PxClothParticleES3_
Vfb:__ZN9Texture2D23VirtualRedirectTransferER17RemapPPtrTransfer
ZEe:__ZN5physx7profile8ZoneImplINS_28PxProfileNameProviderForwardEE9doAddNameEPKctb
zNk:_AssetBundleRequest_t699759206_marshal_pinvoke
sxi:_DefaultComparer__ctor_m1292755885_gshared
CTg:_RecordProtocol_GetMessage_m2086135164
zHc:__Z23GUIStatePopDisplayIndexv
hPb:__Z18Transfer_BlittableI18StreamedBinaryReadILb0EELb0E10ColorRGBAfEvRK29SerializationCommandArgumentsR31RuntimeSerializationCommandInfo
Nma:__Znaj
CEm:_emscripten_glEnableClientState__wrapper
Z$l:__ZL60PlayableBehaviour_t4203540982_CustomAttributesCacheGeneratorP21CustomAttributesCache
vja:__ZN17MessageIdentifierC2EPKcNS_7OptionsEPKN5Unity4TypeES1_
I6k:__Z45RuntimeInvoker_Void_t1185182177_RuntimeObjectPFvvEPK10MethodInfoPvPS4_
_jb:__ZN13dynamic_arrayI4PPtrI6SpriteELj4EE9push_backERKS2_
aWk:_Mesh_SetTriangles_m1523451247
kgi:_Single_System_IConvertible_ToSByte_m1208276900
ufj:_Array_InternalArray__set_Item_TisVector4_t3319028937_m757305038_gshared
o0a:__ZN11GameManager15ThreadedCleanupEv
acl:__Z105RuntimeInvoker_Void_t1185182177_RuntimeObject_RuntimeObject_RuntimeObject_RuntimeObject_Int32_t2950945753PFvvEPK10MethodInfoPvPS4_
dee:__ZN5physxL26solveFriction4_StaticBlockEPKNS_23PxcSolverConstraintDescERNS_16PxcSolverContextE
eui:_Array_InternalArray__Insert_TisContactPoint_t3758755253_m151422964_gshared
TZ:__Z55Register_UnityEngine_AudioSource_get_spatializeInternalv
mVa:__ZN14SafeBinaryRead8TransferI14ConstantStringEEvRT_PKc17TransferMetaFlags
YWj:__ZL25UnresolvedVirtualCall_235P12Il2CppObjecti19Vector2_t2156229523PK10MethodInfo
Jie:__ZN5physx30PxcGetMaterialShapeHeightFieldEPKNS_12PxsShapeCoreES2_RNS_18PxcNpThreadContextEPNS_15PxsMaterialInfoE
d_b:__ZNK6Camera16GetStereoEnabledEv
eSl:__ZL90HttpWebRequest_t1669436515_CustomAttributesCacheGenerator_HttpWebRequest__ctor_m1789065007P21CustomAttributesCache
Kgl:__Z72RuntimeInvoker_Int32_t2950945753_TimeSpan_t881159249_TimeSpan_t881159249PFvvEPK10MethodInfoPvPS4_
bUg:_SendRecordAsyncResult_SetComplete_m153213906
ny:__ZN13AnimationClip9PPtrCurveaSERKS0_
Pxa:__ZL24FindBelongingStructParamRPKcRNSt3__26vectorIN9ShaderLab20SerializedSubProgram14ConstantBufferENS2_9allocatorIS6_EEEE
Okc:__ZN12LightManager15InitializeClassEv
Lse:__ZN5physx6shdfnd8PoolBaseINS_2Sc19ParticlePacketShapeENS0_19ReflectionAllocatorIS3_EEE12allocateSlabEv
rbb:__ZN9ShaderLab11shaderprops16GetComputeBufferEPK19ShaderPropertySheetS3_NS_16FastPropertyNameE
vDk:__ZN6il2cpp6icalls8mscorlib6System10Reflection10MethodBase31GetMethodFromHandleInternalTypeEii
k8:__ZN18ScriptingArgumentsC2Ev
Ymm:_WheelEffects_PlayAudio_m3493420585
Atf:__ZN5physx3Pvd17PvdPropertyFilterINS_2Sn17RepXVisitorWriterINS_23PxVehicleSuspensionDataEEEE14handleAccessorILj592ENS_22PxRepXPropertyAccessorILj592ES4_ffEEEEvRKT0_
mgh:_Dictionary_2_System_Collections_IDictionary_get_Item_m1524611028_gshared
pWd:__ZNK5physx15NpActorTemplateINS_14PxRigidDynamicEE14getOwnerClientEv
Hzm:_emscripten_glBlendFuncSeparate__wrapper
w2a:__ZNSt3__26vectorIfNS_9allocatorIfEEE6assignIPfEENS_9enable_ifIXaasr21__is_forward_iteratorIT_EE5valuesr16is_constructibleIfNS_15iterator_traitsIS7_E9referenceEEE5valueEvE4typeES7_S7_
f4l:__ZL68GUISettings_t1774757634_CustomAttributesCacheGenerator_m_CursorColorP21CustomAttributesCache
Qvg:_FileSystemInfo__ctor_m3769019897
$jj:_Array_InternalArray__get_Item_TisContentType_t1787303396_m421427711_gshared
VZk:_Rect_get_xMin_m581135837_AdjustorThunk
ZEa:__Z17HasSampledTexture14GraphicsFormat13formatSupport
s$b:__ZNK25CameraStackRenderingState27GetStereoImageEffectTextureEb
JIg:_HMACSHA384__ctor_m1677515580
Z9h:_RIPEMD160Managed_J_m1336489154
Hq:__ZN8Vector3f8TransferI14SafeBinaryReadEEvRT_
i9j:__ZN6il2cpp6icalls6System6System3Net7Sockets6Socket7ReceiveEiP11Il2CppArrayiiNS4_11SocketFlagsEPi
vuc:__ZN13BuildSettings13GetSceneIndexERKN4core12basic_stringIcNS0_20StringStorageDefaultIcEEEE
Dp:FUNCTION_TABLE_ii
h0a:__ZN10TagManager8TransferI18StreamedBinaryReadILb0EEEEvRT_
qaj:_Collection_1_System_Collections_IList_get_IsReadOnly_m2202364665_gshared
mMc:__Z18Transfer_BlittableI9JSONWriteLb0E8BitFieldEvRK29SerializationCommandArgumentsR31RuntimeSerializationCommandInfo
Oxg:_MemoryStream_set_Capacity_m1773624579
$nk:__ZNK15dense_hashtableINSt3__24pairIK10KeyWrapperINS1_IP11Il2CppClassjEEES4_EES6_N6il2cpp8metadata14ArrayClassHashEN14dense_hash_mapIS6_S4_SB_NS6_14EqualsComparerINSA_17ArrayClassCompareEEENS0_9allocatorIS8_EEE9SelectKeyESF_SH_E10test_emptyEj
pEh:_SpriteState_set_pressedSprite_m3368686500_AdjustorThunk
Zsa:__ZNSt3__26vectorIN9ShaderLab20SerializedSubProgram15StructParameterENS_9allocatorIS3_EEE8__appendEj
Lb:invoke_diiii
BYh:_DateTime_ToString_m2992030064
uid:__ZL17sweepVolumeVsMeshPKN5physx3Cct9SweepTestEPKNS0_11TouchedMeshERNS0_12SweptContactERKNS_6PxVec3ERKNS_10PxGeometryERKNS_11PxTransformEjPKNS_10PxTriangleEj
uNe:__ZN13SplatDatabase8TransferI14SafeBinaryReadEEvRT_
cil:__Z95RuntimeInvoker_Void_t1185182177_RuntimeObject_RuntimeObject_SByte_t1669577662_SByte_t1669577662PFvvEPK10MethodInfoPvPS4_
MGd:__ZNK5physx12NpBatchQuery19getFilterShaderDataEv
cne:__ZN5physx2Gu31checkOverlapOBB_heightFieldGeomERKNS_10PxGeometryERKNS_11PxTransformERKNS0_3BoxE
NWa:__Z24CreateDirectoryRecursiveRKN4core12basic_stringIcNS_20StringStorageDefaultIcEEEE
Uxm:b41
tva:__ZN9ShaderLab20SerializedSubProgram8TransferI18StreamedBinaryReadILb0EEEEvRT_
UUg:_SslClientStream_get_HaveRemoteValidation2Callback_m2858953511
EZg:_InternalEnumerator_1_MoveNext_m2785895009_AdjustorThunk
Spa:__ZN19ThreadSpecificValueIP14StackAllocatorE15ReinitializeTLSEPv
VGc:__Z22MonoGUIContentToNative18ScriptingObjectPtrR10GUIContent
kbd:__ZN5physx2Gu23findRotationMatrixFromZERKNS_6PxVec3E
s7b:__Z9EndJobSetR8JobFence11JobPriority
xB:__ZN26AnimatorControllerPlayable13GenerateGraphEv
Xia:__ZN13RuntimeStaticI21ScalableBufferManagerLb0EE13StaticDestroyEPv
C7e:__ZN2UI13CanvasManager9AddCanvasEPNS_6CanvasE
llb:__ZN9Texture3D8TransferI19StreamedBinaryWriteILb0EEEEvRT_
X$b:__ZNK6Camera22CalculateRenderingPathEv
GNc:__ZN9JSONWrite8TransferI5RectTIfEEEvRT_PKc17TransferMetaFlags
K8f:_Hashtable_TestPrime_m3839319309
B3d:__ZN5physx13NpVolumeCache10invalidateEv
AK:__ZN11UnityEngine9Animation37SetGenericRootTransformPropertyValuesERKNS0_30AnimatorGenericBindingConstantERKN7mecanim10ValueArrayER9Transformbb
hOa:__Z13ConvertMipmap14GraphicsFormatPKvS_Pviiii
CDf:_BaseRaycaster_get_renderOrderPriority_m1110184610
OMh:_PKCS12_get_IterationCount_m626423090
it:__ZN15SerializeTraitsIKN4math7_float4EE8TransferI14SafeBinaryReadEEvRS2_RT_
lHb:__ZL12InvokeMethodI17RemapPPtrTransferEvRK29SerializationCommandArgumentsR31RuntimeSerializationCommandInfo
NMe:__ZN14SplatMaterials6UpdateEPK11TerrainDataP8MaterialRA3_KPKcRK11ColorRGBA32f
clm:_TiltInput_OnDisable_m1131217228
iji:_StringComparer_Compare_m991165676
Plm:_AeroplaneController_set_Altitude_m3124734897
MZe:_tt_sbit_decoder_load_image
aZg:_InternalEnumerator_1_MoveNext_m3299696349_AdjustorThunk
b2i:_List_1_System_Collections_ICollection_get_IsSynchronized_m1552759297_gshared
Hok:__ZN15dense_hashtableINSt3__24pairIK10KeyWrapperIP11Il2CppClassES4_EES5_N6il2cpp8metadata16SZArrayClassHashEN14dense_hash_mapIS5_S4_SA_NS5_14EqualsComparerINS9_19SZArrayClassCompareEEENS0_9allocatorIS7_EEE9SelectKeyESE_SG_EC2EjRKSA_RKSE_RKSI_
NRd:__ZN5physx22NpParticleBaseTemplateINS_15PxParticleFluidENS_15NpParticleFluidEE12setPositionsEjRKNS_16PxStrideIteratorIKjEERKNS4_IKNS_6PxVec3EEE
YBf:__Z47Register_UnityEngine_WheelCollider_GetGroundHitv
nzj:_U3CStartU3Ec__Iterator0_Dispose_m261027331_gshared
gPa:__ZN4core8hash_mapIPK17RenderSurfaceBaseP13RenderTexture19PointerHashFunctionIS3_ENSt3__28equal_toIS3_EEE6insertERKNS8_4pairIKS3_S5_EE
Jzf:__Z34setPxVehicleDriveTankMDriveSimDataPN5physx18PxVehicleDriveTankENS_21PxVehicleDriveSimDataE
tHc:__ZNSt3__24listIN10GUIManager12SortedScriptE11memory_poolIS2_EE6__sortI13OldSortScriptEENS_15__list_iteratorIS2_PvEESA_SA_jRT_
crf:__Z51getNbPxVehicleWheelsSimData_SuspForceAppPointOffsetPKN5physx22PxVehicleWheelsSimDataE
yBi:_EqualityComparer_1_System_Collections_IEqualityComparer_GetHashCode_m2588073987_gshared
qpd:__ZN5physx6shdfnd5ArrayIPvNS0_19ReflectionAllocatorINS_2Sc10NPhaseCore16ClothListElementEEEE15growAndPushBackERKS2_
haj:_Collection_1_System_Collections_IList_Add_m3364892189_gshared
DYi:_List_1_AddEnumerable_m3500350831_gshared
g8j:__ZN24dense_hashtable_iteratorINSt3__24pairIK10KeyWrapperIPK11Il2CppClassEPKcEES6_N6il2cpp5utils11PointerHashIS3_EEN14dense_hash_mapIS6_S9_SE_NS6_14EqualsComparerINS0_8equal_toIS5_EEEENS0_9allocatorISA_EEE9SelectKeyESJ_SL_E30advance_past_empty_and_deletedEv
Cmf:__ZN5physx23PxVehicleWheels4DynData17getBinaryMetaDataERNS_14PxOutputStreamE
BNg:_PrivateKeyInfo_get_PrivateKey_m3647771102
Qz:__ZN13AnimationClip8TransferI17RemapPPtrTransferEEvRT_
QGb:__Z18Transfer_BlittableI17RemapPPtrTransferLb1E8BitFieldEvRK29SerializationCommandArgumentsR31RuntimeSerializationCommandInfo
Yqk:__ZN6il2cpp6icalls8mscorlib6System9ThreadingL11ThreadStartEPv
Foa:__ZN15DirectorManager12OnSampleTimeEv
oqi:_Array_InternalArray__IndexOf_TisMark_t3471605523_m2905388260_gshared
vZf:_TypeBuilder_check_not_created_m3652863637
BHf:_StandaloneInputModule_UpdateModule_m450861257
iXj:_Font_add_textureRebuilt_m2164317336
Xrj:_ReadOnlyCollection_1_System_Collections_IList_Insert_m2928873627_gshared
XT:__ZNK4PPtrI10AudioMixerEptEv
QAi:_EqualityComparer_1__cctor_m314889309_gshared
Jfa:__ZN12CachedReader10Align4ReadEv
QZc:__ZN13dynamic_arrayIN9SubModule14SubEmitterDataELj4EE18resize_initializedEj12ResizePolicy
_xi:_DefaultComparer_GetHashCode_m556015105_gshared
wDj:_X501__cctor_m2428304915
rYj:_Canvas_get_renderOrder_m1489855841
py:__Z14resize_trimmedINSt3__26vectorIN13AnimationClip10FloatCurveE13stl_allocatorIS3_L18MemLabelIdentifier26ELi16EEEEEvRT_j
Nsk:__ZN6il2cpp2vm9Exception28GetMarshalDirectiveExceptionEPKc
E7l:__ZL77ExecuteEvents_t3484638744_CustomAttributesCacheGenerator_U3CU3Ef__mgU24cache1P21CustomAttributesCache
cMj:_Event_ToString_m1688862299
_gl:__Z70RuntimeInvoker_Boolean_t97287965_RuntimeObject_IPAddressU26_t589322682PFvvEPK10MethodInfoPvPS4_
Nnl:__Z105RuntimeInvoker_Void_t1185182177_Vector2U26_t2376273893_RuntimeObject_RuntimeObject_Vector2U26_t2376273893PFvvEPK10MethodInfoPvPS4_
nUa:__ZNK9Behaviour22GetTypeVirtualInternalEv
fId:__ZN5physx2Sc14ConstraintCore13setBreakForceEff
Puf:__Z34setPxVehicleAutoBoxData_DownRatiosPN5physx20PxVehicleAutoBoxDataENS_18PxVehicleGearsData4EnumEf
$5h:_CCGregorianCalendar_month_from_fixed_m4268992710
Zoi:_Array_compare_TisUICharInfo_t75501106_m1310495481_gshared
Sic:__ZNK28MonoBehaviourPropertyBinding12SetPPtrValueERKN11UnityEngine9Animation10BoundCurveEi
v9b:__Z21GetScriptingArraySize17ScriptingArrayPtr
_2e:__ZN20TextRenderingPrivate8FontImpl8TransferI14SafeBinaryReadEEvRT_
p8c:__ZNSt3__27__sort4IRN10vector_mapIi22ParticleModulePropertyNS_4lessIiEENS_9allocatorINS_4pairIiS2_EEEEE13value_compareEPS7_EEjT0_SD_SD_SD_T_
Ufc:__ZN13TrailRenderer18PrepareRenderNodesILb1EEEvR35RenderNodeQueuePrepareThreadContext
dEl:__ZL55ISymbolWriter_t780458634_CustomAttributesCacheGeneratorP21CustomAttributesCache
N0d:__ZN5physx7NpScene15removeAggregateERNS_11PxAggregateEb
kIc:__ZN11IMGUIModule21ClearDeveloperConsoleEv
y0l:__ZL81MessageTypeSubscribers_t1684935770_CustomAttributesCacheGenerator_m_messageTypeIdP21CustomAttributesCache
kqj:_ReadOnlyCollection_1_System_Collections_IList_Clear_m4022532825_gshared
sLi:_Encoding_get_ASCII_m3595602635
IBf:__ZN13WheelCollider14SetMotorTorqueEf
zMe:__ZN7Terrain23VirtualRedirectTransferER14SafeBinaryRead
oJe:__ZZN14PhysicsManager15InitializeClassEvEN63EarlyUpdatePhysicsResetInterpolatedTransformPositionRegistrator7ForwardEv
x_c:__ZN11ShapeModule18MultiModeParameterIN25IParticleSystemProperties8PropertyIfNS1_11ClampRadiusEEEE8TransferI14SafeBinaryReadEEvRT_
OBa:__ZN9GfxDevice17ImmediateTexCoordEifff
p2e:_ft_black_new
cmf:__ZNK5physx14PxVehicleDrive19getConcreteTypeNameEv
kWf:_DerivedType_GetCustomAttributes_m3536779709
XTj:__ZL24UnresolvedVirtualCall_72P12Il2CppObjectPK10MethodInfo
CNl:__ZL93Interlocked_t2273387594_CustomAttributesCacheGenerator_Interlocked_CompareExchange_m388540288P21CustomAttributesCache
x_f:_MethodBase_get_IsAbstract_m428833029
ibg:_AssemblyLoadEventHandler__ctor_m896828968
OHb:__Z35Transfer_Blittable_FixedBufferFieldI24GenerateTypeTreeTransferhEvRK29SerializationCommandArgumentsR31RuntimeSerializationCommandInfo
W7j:__ZN6il2cpp2vm13MetadataCache25GetMethodGenericContainerEPK10MethodInfo
Exm:_emscripten_glUniform4f__wrapper
ZXi:_List_1_Reverse_m4144036584_gshared
h1f:_MonoMethod_GetBaseDefinition_m2844667474
gHi:_Enumerator_MoveNext_m2595190390_AdjustorThunk
dqe:__ZN5physx6shdfnd5ArrayINS_25PxcThresholdStreamElementENS0_19ReflectionAllocatorIS2_EEE8recreateEj
vqi:_Array_InternalArray__IndexOf_TisColor32_t2600501292_m3783551884_gshared
Q5:__ZNK6Camera16GetProjectionFarEv
as:__Z24InverseTransformRotationRK23TransformAccessReadOnlyRKN4math7_float4E
wEj:_X509Chain_Build_m2469702749
oei:_Evidence_get_IsSynchronized_m3446368195
MU:__ZN11AudioSource6UpdateEv
gDh:_Selectable_OnPointerEnter_m3378734298
vdb:__ZNK14PlayableOutput11DerivesFromE17ScriptingClassPtr
Ieb:__ZN7Texture34CreateFileTextureUploadInstructionE18TextureUploadFlagsj
FPe:__ZN14TerrainManager26Heightmap_GetPxHeightFieldER9Heightmap
WPa:__ZN13ComputeShader14SetBufferParamEjRKN9ShaderLab16FastPropertyNameE15ComputeBufferID
y5a:__ZThn280_N31CanvasBatchIntermediateRenderer20OnAssetBoundsChangedEv
xOd:__ZN5physx7NpCloth21setCollisionMassScaleEf
rne:__ZN5physx6shdfnd5ArrayINS_7PxPlaneENS0_19ReflectionAllocatorIS2_EEE8recreateEj
ZJe:__ZN13PhysicsModule17GetRigidBodyStateERK9RigidbodyPN8IPhysics14RigidBodyStateE
tZf:_TypeBuilder_DefineConstructor_m2989882735
sZa:__ZN25SingleBlockMemoryFileDataC2E10MemLabelIdPvjb
k5l:__ZL59GUISkin_t1244372282_CustomAttributesCacheGenerator_m_toggleP21CustomAttributesCache
xic:__ZN19LowerResBlitTexture13ApplySettingsEv
glk:__ZN15dense_hashtableINSt3__24pairIK10KeyWrapperINS1_IPK11Il2CppImageP11Il2CppClassEEEjEES9_17ReflectionMapHashIS8_EN14dense_hash_mapIS9_jSD_NS9_14EqualsComparerINS0_8equal_toIS8_EEEENS0_9allocatorISB_EEE9SelectKeyESI_SK_E15set_deleted_keyERKSB_
JL:__ZN8Animator8TransferI14SafeBinaryReadEEvRT_
rok:__ZN15dense_hashtableINSt3__24pairIK10KeyWrapperIP11Il2CppClassES4_EES5_N6il2cpp8metadata16SZArrayClassHashEN14dense_hash_mapIS5_S4_SA_NS5_14EqualsComparerINS9_19SZArrayClassCompareEEENS0_9allocatorIS7_EEE9SelectKeyESE_SG_E4swapERSJ_
F_a:__ZN17GlobalGameManager23VirtualRedirectTransferER18StreamedBinaryReadILb0EE
vTd:__ZN5physx2Sc17ParticleSystemSim7releaseEb
cba:__Z23AsyncReadForceCloseFileRKN4core12basic_stringIcNS_20StringStorageDefaultIcEEEE
mC:__ZN17AnimationPlayable34CollectAnimatorControllerPlayablesER13dynamic_arrayIP26AnimatorControllerPlayableLj4EE
E0l:__ZL120RenderPipelineManager_t4036911426_CustomAttributesCacheGenerator_RenderPipelineManager_DoRenderLoop_Internal_m3799666479P21CustomAttributesCache
KX:__ZN16BaseVideoTexture19UpdateVideoTexturesEv
X0f:_MonoField_GetValue_m3124733531
G4a:__Z28BuildSingleStreamChannelInfo17ShaderChannelMaskRK20VertexChannelsLayoutS_S2_P11ChannelInfo
loi:_Array_InternalArray__IEnumerable_GetEnumerator_TisOrderBlock_t1585977831_m2414028303_gshared
ifa:__ZNK16LightmapSettings23HasLightProbeTetrahedraEv
EUc:__ZNK18ColorBySpeedModule12UpdateSingleERK22ParticleSystemParticleR11ColorRGBA32
Rib:__ZN6Sprite23VirtualRedirectTransferER19StreamedBinaryWriteILb0EE
b5h:_Enum_GetHashCode_m2848082716
XDc:__Z38Transform_CUSTOM_INTERNAL_set_positionP12Il2CppObjectRK8Vector3f
mEf:_EventTrigger_Execute_m2453060771
$sj:_Comparison_1_Invoke_m517083441_gshared
vXk:_PlayableBehaviour__ctor_m3891915003
$fk:__ZNK15dense_hashtableINSt3__24pairIK10KeyWrapperINS1_IPK9FieldInfoP11Il2CppClassEEEjEES9_17ReflectionMapHashIS8_EN14dense_hash_mapIS9_jSD_NS9_14EqualsComparerINS0_8equal_toIS8_EEEENS0_9allocatorISB_EEE9SelectKeyESI_SK_E5beginEv
aya:__ZNK9ShaderLab7Program19HasMatchingVariantsERK13dynamic_arrayI16ShaderKeywordSetLj4EE
goj:_ReadOnlyCollection_1_System_Collections_IList_get_IsFixedSize_m3402868227_gshared
EJ:__ZN15SerializeTraitsIN4math4trsXEE8TransferI8BlobSizeEEvRS1_RT_
IFa:__ZN14DataBufferGLES11CopySubDataEPKS_jjj
Oe:_emscripten_glVertexPointer
E9e:__ZN2UI13PrepareOutputERNS_7BatchesEjjNS_30AdditionalCanvasShaderChannelsE
Zbk:__ZN6il2cpp2vm7Runtime47RaiseExecutionEngineExceptionIfMethodIsNotFoundEPK10MethodInfo
eGj:_PatternCompiler_GetMachineFactory_m3758869886
r5b:__Z17GetFrustumPortionPK8Vector3fffPS_
esd:__ZNK5physx2Gu22SupportMapRelativeImplINS0_4BoxVEE18doWarmStartSupportEiRNS_6shdfnd3aos5Vec3VE
CZl:__ZL105RectTransform_t3704657025_CustomAttributesCacheGenerator_RectTransform_INTERNAL_get_anchorMin_m1735215721P21CustomAttributesCache
Ltk:__ZN15dense_hashtableINSt3__24pairIK10KeyWrapperIP14Il2CppIUnknownEjEES5_N6il2cpp5utils11PointerHashIS3_EEN14dense_hash_mapIS5_jSB_NS5_14EqualsComparerINS0_8equal_toIS4_EEEENS0_9allocatorIS7_EEE9SelectKeyESG_SI_E14squash_deletedEv
Q5a:__ZN5Light13AwakeFromLoadE17AwakeFromLoadMode
uMl:__ZL107CodeAccessPermission_t2681295399_CustomAttributesCacheGenerator_CodeAccessPermission_GetHashCode_m880096813P21CustomAttributesCache
INj:_GUILayoutEntry_ApplyOptions_m1741659338
MTf:_Default_check_arguments_m3882727959
Hlh:_MethodDictionary_set_MethodKeys_m1451825752
kgc:__ZN6Shader13GetDependencyERKN4core12basic_stringIcNS0_20StringStorageDefaultIcEEEE
oaj:_Collection_1_System_Collections_ICollection_get_SyncRoot_m1659213062_gshared
Fza:__ZNK9GfxDevice27GetPlatformAdjustedViewportEv
rnj:_ReadOnlyCollection_1_System_Collections_Generic_IListU3CTU3E_set_Item_m88350439_gshared
ENe:__ZN14SafeBinaryRead21TransferSTLStyleArrayINSt3__26vectorI12TreeInstanceNS1_9allocatorIS3_EEEEEEvRT_17TransferMetaFlags
juj:_Func_3_Invoke_m1194147890_gshared
pOi:_UTF8Encoding_GetMaxCharCount_m3762459613
Fpj:_ReadOnlyCollection_1_System_Collections_ICollection_CopyTo_m2672196987_gshared
Epc:__ZN16StreamedResource8TransferI24GenerateTypeTreeTransferEEvRT_
N_k:_RectTransform_get_anchorMin_m2928307238
Hld:__ZN5physx3Cct10Controller13onOriginShiftERKNS_6PxVec3E
Ifg:_ArrayList__ctor_m3828927650
QDa:__ZThn9568_N13GfxDeviceGLES26EnableScissorRectsPlatformEv
SQa:__ZN10Matrix3x3f15InvertTransposeEv
UNj:_GUILayoutGroup_SetHorizontal_m996475327
qfi:_SecurityException_get_Demanded_m2500043391
LNj:_GUILayoutEntry__cctor_m663865902
vVh:_CaptureCollection_GetEnumerator_m732412500
B0c:__ZN14EmissionModule8TransferI19StreamedBinaryWriteILb0EEEEvRT_
zZb:__Z11IsBatchmodev
Nce:__ZN5physx2Gu19_gjkRelativeRayCastINS0_9TriangleVENS0_11ConvexHullVEEEbRT_RT0_RKNS_6shdfnd3aos15PsMatTransformVERKNS9_6FloatVERKNS9_5Vec3VESI_RSD_RSG_SK_f
XY:__Z50AudioSettings_CUSTOM_GetAmbisonicDecoderPluginNamev
NFb:__Z29Transfer_Blittable_ArrayFieldI14SafeBinaryRead8Vector3fEvRT_R9ArrayInfoRK23StaticTransferFieldInfo
Zn:FUNCTION_TABLE_vfii
ZXk:_PlayerPrefs_TrySetFloat_m2507302512
oPl:__ZL78Convert_t2465617642_CustomAttributesCacheGenerator_Convert_ToSByte_m4075629912P21CustomAttributesCache
Cob:__ZN26SkinnedMeshRendererManager31HandlePreparationBreakingChangeER19SkinnedMeshRenderer
S6l:__ZL90CanvasRenderer_t2598313366_CustomAttributesCacheGenerator_CanvasRenderer_Clear_m1522820210P21CustomAttributesCache
P3e:__ZN20TextRenderingPrivate8FontImpl18ResetCachedTextureEv
Bak:__ZN6il2cpp6icalls8mscorlib6SystemL16GetFieldFromTypeINS_5utils10functional6FilterINSt3__212basic_stringIcNS7_11char_traitsIcEENS7_9allocatorIcEEEENS4_13VmStringUtils21CaseSensitiveComparerEEEEEP21Il2CppReflectionFieldP11Il2CppClassSK_iRKT_
_he:__ZNK5physx19ActorAABBUpdateTask7getNameEv
Irf:__Z30getPxVehicleWheels_VehicleTypePKN5physx15PxVehicleWheelsE
oRh:_X509KeyUsageExtension_Decode_m3150759625
gGk:_GC_print_finalization_stats
sbl:__Z74RuntimeInvoker_MonoFileType_t221779374_IntPtr_t_MonoIOErrorU26_t1548853198PFvvEPK10MethodInfoPvPS4_
tya:__ZN11NamedObject15ThreadedCleanupEv
zOj:_GUITargetAttribute_GetGUITargetAttrValue_m2954410352
tyc:__Z53Register_UnityEngine_Behaviour_get_isActiveAndEnabledv
$ag:_SimpleEnumerator_get_Current_m72361444
wr:__ZNSt3__26vectorIN4core12basic_stringIcNS1_20StringStorageDefaultIcEEEENS_9allocatorIS5_EEE8__appendEj
ZX:__ZN13ProduceHelperI10SampleClipLb0EE7ProduceE10MemLabelId18ObjectCreationMode
wsb:__ZN26PlayerSettingsSplashScreen8TransferI17RemapPPtrTransferEEvRT_
kJh:_ASN1_set_Value_m2803403806
Dnl:__Z75RuntimeInvoker_Void_t1185182177_RuntimeObject_MinMaxGradientU26_t2184085097PFvvEPK10MethodInfoPvPS4_
Iak:__ZN6il2cpp6icalls8mscorlib6SystemL17CollectTypeFieldsINS_5utils10functional10TrueFilterEEEvP11Il2CppClassPKS7_iRNSt3__26vectorIP9FieldInfoNSB_9allocatorISE_EEEERKT_
Z7k:__Z52RuntimeInvoker_Int16_t2552820387_Decimal_t2948259380PFvvEPK10MethodInfoPvPS4_
Gsd:__ZN5physx3Scb5Scene20addArticulationJointERNS0_17ArticulationJointE
x1d:__ZN5physx7NpScene14resetFilteringERNS_12PxRigidActorEPKPNS_7PxShapeEj
Tgc:__Z13GetTagManagerv
D8f:_Hashtable__ctor_m1815022027
nOi:_UTF8Encoding_GetChars_m1433288684
K_j:__ZL10roundUp128PyS_
U_:__ZN11UnityEngine15CloudWebService17CloudJobSchedulerD0Ev
i6k:__Z50RuntimeInvoker_Boolean_t97287965_SByte_t1669577662PFvvEPK10MethodInfoPvPS4_
gCe:__ZN15CapsuleCollider23VirtualRedirectTransferER14SafeBinaryRead
Cub:__ZN18LoadSceneOperation7PerformEv
Z6d:__ZN5physx2Sc5Scene26setSimulationEventCallbackEPNS_25PxSimulationEventCallbackEh
Bsl:__Z105RuntimeInvoker_Int32_t2950945753_RuntimeObject_OrderBlock_t1585977831_Int32_t2950945753_Int32_t2950945753PFvvEPK10MethodInfoPvPS4_
XRi:_TimeZone_ToUniversalTime_m2789507578
NNh:_DictionaryNodeEnumerator_get_Value_m1345533116
zpi:_Array_IndexOf_TisUICharInfo_t75501106_m3198896198_gshared
_7e:__ZNK2UI11CanvasGroup22GetTypeVirtualInternalEv
VRg:_Context_get_Current_m2853615040
Nad:__ZL30GeomMTDCallback_CapsuleCapsuleRN5physx6PxVec3ERfRKNS_10PxGeometryERKNS_11PxTransformES5_S8_
b2d:__ZN5physx7NpScene23forceDynamicTreeRebuildEbb
cjd:__ZL18intersectAnyVsMeshILi0EEbPKN5physx2Gu6SphereEPKNS1_7CapsuleEPKNS1_3BoxERKNS1_13RTreeMidphaseERKNS0_11PxTransformERKNS0_11PxMeshScaleEP14LimitedResults
y7h:_CultureInfo_construct_internal_locale_from_lcid_m2668301444
PIh:_PrimeGeneratorBase__ctor_m2973488305
NHc:__Z21CleanupGlobalGUIStatev
ZSi:_Type_IsContextfulImpl_m3693603908
VAl:__ZL81RuntimeArray_CustomAttributesCacheGenerator_Array_GetValue_m120423883____indices0P21CustomAttributesCache
Q3l:__ZL79Event_t2956885303_CustomAttributesCacheGenerator_Event_get_modifiers_m995073384P21CustomAttributesCache
GA:__ZN19StreamedBinaryWriteILb0EE21TransferSTLStyleArrayI22OffsetPtrArrayTransferIN7mecanim9animation10ValueDeltaEEEEvRT_17TransferMetaFlags
wzd:__ZN5physx14NpArticulation6wakeUpEv
prc:__ZNSt3__26vectorI14SubstanceInputNS_9allocatorIS1_EEE6assignIPS1_EENS_9enable_ifIXaasr21__is_forward_iteratorIT_EE5valuesr16is_constructibleIS1_NS_15iterator_traitsIS8_E9referenceEEE5valueEvE4typeES8_S8_
J8c:__Z49ParticleSystem_MainModule_CUSTOM_SetStartLifetimeP12Il2CppObjectR15MonoMinMaxCurve
h5k:__Z56RuntimeInvoker_RuntimeObject_RuntimeObject_RuntimeObjectPFvvEPK10MethodInfoPvPS4_
pSa:__ZN22VertexDeclarationCache5ClearEv
UGg:_CspParameters__ctor_m3852972821
P8f:_AppDomainInitializer_EndInvoke_m2095010821
wcc:__ZN17PersistentManager12SetPathRemapERKN4core12basic_stringIcNS0_20StringStorageDefaultIcEEEES6_
RE:__Z27ProcessRootMotionEmptyMixerP35AnimationPlayableEvaluationConstantP32AnimationPlayableEvaluationInputP33AnimationPlayableEvaluationOutput
U6b:__ZN6Camera24PrepareCullingParametersERK23CameraCullingParameters13RenderingPathR11CullResults
Qjf:__ZN13WheelCollider23VirtualRedirectTransferER24GenerateTypeTreeTransfer
Ntc:__Z12SetIUISystemP9IUISystem
Pub:__ZN19RuntimeSceneManager22EndIntegrateMainThreadEP10UnitySceneNS_11LoadingModeE
Zgj:_Array_Sort_TisUICharInfo_t75501106_m3474449559_gshared
AWk:__ZN21InterfaceFuncInvoker0IP34MessageTypeSubscribers_t1684935770E6InvokeEjP11Il2CppClassP12Il2CppObject
nHb:__Z26Transfer_UnityEngineObjectI17RemapPPtrTransferLb0EEvRK29SerializationCommandArgumentsR31RuntimeSerializationCommandInfo
Hyb:__ZN17WeakPtrSharedDataD0Ev
bHj:_QuickSearch_GetShiftDistance_m2542665852
lmb:__Z32TransferEnumWithNameForceIntSizeI14SafeBinaryRead11IndexFormatEvRT_RT0_PKc17TransferMetaFlags
xjj:_Array_InternalArray__get_Item_TisCustomAttributeTypedArgument_t2723150157_m2639399822_gshared
BHh:_BigInteger_GenerateRandom_m3141592944
IJb:__Z29Transfer_Blittable_ArrayFieldI24GenerateTypeTreeTransfer4AABBEvRT_R9ArrayInfoRK23StaticTransferFieldInfo
eXh:_Interval_Contains_m1454846757
UOf:_Graphic_CacheCanvas_m1120385152
x6g:_InternalEnumerator_1_MoveNext_m1262906009_gshared
PNf:_U3CDelayedDestroyDropdownListU3Ec__Iterator0_Dispose_m100123149
_ve:__ZN5physx20InternalTriangleMesh16allocateVerticesEj
Z5d:__ZN5physx2Sc16InteractionScene18releaseConstraintsEb
QXc:__Z15GetPositionMeshIL20MeshDistributionMode1ELb0E11ColorRGBA32EvRN4math8floatNx3ES4_RNS2_4pix4ERK13dynamic_arrayIS1_Lj4EERK14StrideIteratorI8Vector3fESF_RKSB_IT1_ERKS7_I16MeshTriangleDataLj4EERKS7_I11MeshAreaLUTLj4EERKfRKiST_R5RandNP12SkinMeshInfo
Zsh:_InputField_set_contentType_m1277230266
gge:__ZN5physx6shdfnd5ArrayINS_17PxcBroadPhasePairENS0_19ReflectionAllocatorIS2_EEE8recreateEj
Oom:_emscripten_GetProcAddress
JHi:_List_1_System_Collections_Generic_IEnumerableU3CTU3E_GetEnumerator_m944444416_gshared
Ka:invoke_fiiifii
jqm:_modff
ohd:__ZThn4_N16RayRTreeCallbackILi1ELb0EED1Ev
