cd:_glClearStencil
ETi:_UInt16_System_IConvertible_ToChar_m2096055221_AdjustorThunk
Pmi:_Array_TrueForAll_TisRuntimeObject_m1084992726_gshared
agd:__ZN5physx2Gu19gjkLocalPenetrationINS0_8CapsuleVENS0_17ShrunkConvexHullVEEEjRKT_RKT0_RKNS_6shdfnd3aos6FloatVERNSB_5Vec3VESG_SG_RSC_PhSI_Rhb
SXk:_PlayableOutputHandle_get_Null_m1200584339
UAk:__ZN6il2cpp2vm5Array13GetByteLengthEP11Il2CppArray
UOj:_KeyBuilder_get_Rng_m3373220441
jbm:__ZL102Image_t2670269651_CustomAttributesCacheGenerator_Image_t2670269651____eventAlphaThreshold_PropertyInfoP21CustomAttributesCache
H0a:__Z30GetIntermediateRendererManagerv
Us:__ZN10StateRange8TransferI14SafeBinaryReadEEvRT_
lQe:__ZN13SplatDatabase25RecalculateBasemapIfDirtyEv
eIa:__Z21SourceMipLevelForBlitiiii
u5a:__ZN31CanvasBatchIntermediateRenderer15AddAsRenderNodeER15RenderNodeQueueRK20DeprecatedSourceData
VQi:_TimeSpan_get_Hours_m550761902
K5l:__ZL57ParticleSystem_t1800779281_CustomAttributesCacheGeneratorP21CustomAttributesCache
U6d:__ZNK5physx2Sc5Scene24getContactModifyCallbackEv
cw:__ZN11UnityEngine9Animation28GenericAnimationBindingCacheD2Ev
_9d:__ZN5physx2Sq10AABBPruner10addObjectsEPjPKNS_9PxBounds3EPKNS0_13PrunerPayloadEj
gFj:_X509Store_LoadCrl_m1881903843
Ygj:_Array_Sort_TisUICharInfo_t75501106_TisUICharInfo_t75501106_m722747892_gshared
cc:invoke_viiiifiiiiif
lac:__Z18RestoreRenderStateR20CameraRenderOldStateR17ShaderPassContext
HMb:__Z18Transfer_BlittableI18StreamedBinaryReadILb1EELb1E5RectTIfEEvRK29SerializationCommandArgumentsR31RuntimeSerializationCommandInfo
zIb:__Z18Transfer_BlittableI24GenerateTypeTreeTransferLb0E11ColorRGBA32EvRK29SerializationCommandArgumentsR31RuntimeSerializationCommandInfo
sRb:__Z25scripting_class_from_name17ScriptingImagePtrPKcS1_
Npi:_Array_InternalArray__IndexOf_TisKeyValuePair_2_t3699644050_m1021241249_gshared
vlk:__ZN14dense_hash_mapI10KeyWrapperINSt3__24pairIPK12PropertyInfoP11Il2CppClassEEEj17ReflectionMapHashIS8_ENS9_14EqualsComparerINS1_8equal_toIS8_EEEENS1_9allocatorINS2_IKS9_jEEEEE15set_deleted_keyERSH_
TSb:__Z29scripting_class_enum_basetype17ScriptingClassPtr
npd:__ZN5physx6shdfnd8PoolBaseINS_2Sc10NPhaseCore16ClothListElementENS0_19ReflectionAllocatorIS4_EEE17releaseEmptySlabsEv
Wfc:__ZN13TrailRenderer21PrepareDispatchUpdateER13RendererScene10MemLabelId
mye:__ZN5physx2Gu15EdgeListBuilderC2Ev
u6g:_InternalEnumerator_1_get_Current_m1477715453_gshared
Wzb:__ZNK20LocalFileSystemPosix6ParentERK13FileEntryDataRN4core12basic_stringIcNS3_20StringStorageDefaultIcEEEE
k$k:_RectTransform_GetWorldCorners_m3553547973
Lze:__ZN5physx7Cooking20loadTriangleMeshDescERKNS_18PxTriangleMeshDescERNS_19TriangleMeshBuilderE
B9i:_Collection_1_System_Collections_IList_Remove_m1476284619_gshared
fDg:_MonoType_IsPrimitiveImpl_m2401722705
_ai:_SHA1CryptoServiceProvider__ctor_m4195188793
qsd:__ZN5physx9NpFactory21releaseConnectorArrayEPNS_16NpConnectorArrayE
fQk:_CSSMeasureFunc_BeginInvoke_m3802154595
DOf:_Graphic_get_defaultGraphicMaterial_m3107284931
Mhc:__Z13RegisterClassI12InputManagerEvv
SVa:__ZN17PersistentManager22CheckInstanceIDsLoadedEPii
oEg:_NumberFormatter_NumberToString_m264078176
Nli:_Array_InternalArray__ICollection_Remove_TisLink_t3209266973_m897088622_gshared
N3k:_Vector2_get_up_m2647420593
KFa:__ZN7ApiGLES17CopyBufferSubDataEjjlll
Usi:_Array_InternalArray__ICollection_CopyTo_TisUInt64_t4134040092_m691431926_gshared
KPh:_IPAddress_ToString_m1181734207
BMi:_StringBuilder_Append_m1965104174
TJc:__ZN5Unity9rapidjson15GenericDocumentINS0_4UTF8IcEE13JSONAllocatorS4_E11ParseStreamILj1ES3_NS0_25GenericInsituStringStreamIS3_EEEERS5_RT1_
gzi:_EqualityComparer_1__cctor_m3766928733_gshared
s2b:__ZN25CameraStackRenderingState20GetOrCreateBuiltinRTE24BuiltinRenderTextureTypeii17DepthBufferFormat19RenderTextureFormatj22RenderTextureReadWrite14VRTextureUsagei
vxj:_UnityAction_1_Invoke_m610765085_gshared
oX:__ZN11AudioModule26SetDefaultMicrophoneDriverEPv
FKg:_Kernel_modInverse_m652700340
xkb:__ZNK14Texture2DArray26CanReuploadDataToGfxDeviceEv
H6b:__ZN17PrePassRenderLoop14RenderBasePassEP13RenderTextureRK14LightingLayersR13dynamic_arrayI16RenderObjectDataLj4EERbR10MinMaxAABB
vHc:__ZN5IMGUI18RepaintModalWindowER8GUIState
Mda:__ZNK15dense_hashtableINSt3__24pairIKN9ShaderLab7Program23ShaderKeywordSetAndHashEPKNS2_10SubProgramEEES4_NS3_24ShaderKeywordHashFunctorEN14dense_hash_mapIS4_S8_SA_NS0_8equal_toIS4_EE13stl_allocatorIS9_L18MemLabelIdentifier67ELi16EEE9SelectKeyESD_SG_E23find_position_with_hashERS5_j
A6h:_CompareInfo_Finalize_m404687489
gjb:__Z23SetSpriteMeshIndexCountP14SharedMeshDataj
xOi:_UTF8Decoder_GetChars_m1236346907
K1k:_TouchScreenKeyboard_Open_m231964201
hbb:__ZN7Texture13SetFilterModeEi
tCk:__ZN6il2cpp8metadata13GenericMethod9GetMethodEPK19Il2CppGenericMethod
Br:__ZNSt3__26vectorIN4core12basic_stringIcNS1_20StringStorageDefaultIcEEEENS_9allocatorIS5_EEE7reserveEj
UTf:_Default_SelectProperty_m1220817815
Voh:_RemotingConfiguration_IsRemotelyActivatedClientType_m4117048589
m$k:_Transform_TransformPoint_m226827784
Dza:__ZN13GfxDeviceGLES11SetViewportERK5RectTIiE
l6c:__Z19UpdateSingleRow2TplIL27ParticleSystemCurveEvalMode3ELS0_2EEvfRK11MinMaxCurveS3_RK23ParticleSystemParticlesPfbiii
uRe:__ZN21TreeBinaryTreeBuilder18CalculatePosBoundsERKNSt3__26vectorI12TreeInstanceNS0_9allocatorIS2_EEEERK13dynamic_arrayIjLj4EERK8Vector3fSE_
KDc:__Z24Time_Get_Custom_PropTimev
Ub:invoke_vifiiii
ve:_emscripten_glDepthRange
oVg:_SslStreamBase_BeginNegotiateHandshake_m4180435790
_ad:__ZN5physx2Gu24contactConvexHeightfieldERKNS0_13GeometryUnionES3_RKNS_11PxTransformES6_RKfRNS0_5CacheERNS0_13ContactBufferE
Ttd:__ZN5physx6shdfnd5ArrayIPvNS0_19ReflectionAllocatorINS_2Cm5BlockIS2_Lj8EEEEEE15growAndPushBackERKS2_
Acc:__ZNSt3__26vectorINS_4pairIN4core12basic_stringIcNS2_20StringStorageDefaultIcEEEES6_EE13stl_allocatorIS7_L18MemLabelIdentifier38ELi16EEE12__move_rangeEPS7_SC_SC_
Nsa:__Z14resize_trimmedINSt3__26vectorIN9ShaderLab20SerializedSubProgram12UAVParameterENS0_9allocatorIS4_EEEEEvRT_j
lKc:__ZN5Unity9rapidjson13GenericReaderINS0_4UTF8IcEES3_13JSONAllocatorE11ParseObjectILj1ENS0_25GenericInsituStringStreamIS3_EENS0_15GenericDocumentIS3_S4_S4_EEEEvRT0_RT1_
Wrc:__Z10DestripifyPKjjRNSt3__26vectorIj13stl_allocatorIjL18MemLabelIdentifier1ELi16EEEE
OHf:_StandaloneInputModule_GetRawMoveVector_m2737091079
wuc:__ZN13BuildSettings34ConvertScenePathToDisplayScenePathERKN4core12basic_stringIcNS0_20StringStorageDefaultIcEEEE
HVg:_SslStreamBase_EndWrite_m4073224031
jba:__ZNSt3__218__insertion_sort_3IRNS_6__lessI14ObjectLoadDataS2_EEPS2_EEvT0_S6_T_
AHa:__ZN4crndL20crnd_default_reallocEPvjPjbS0_
dsm:__ZNSt3__212basic_stringIcNS_11char_traitsIcEENS_9allocatorIcEEEC2ERKS5_
bie:__ZN5physx24PxsComputeAABBLocalSpaceERKNS_18PxcAABBDataDynamicERNS_9PxBounds3E
Yjb:__ZN18SpriteAtlasManager19AddRequestingSpriteE4PPtrI6SpriteE
esc:__ZN16PackedQuatVector9PackQuatsEP11Quaternionfi
vDc:__Z33Texture_CUSTOM_Internal_GetHeightP12Il2CppObject
woc:__Z20IsValidRealtimeLightRK15SharedLightData9LightTypej
g_h:_DateTime__ParseDateSeparator_m1803046501
uoc:__Z23AddIntermediateRendererP20IntermediateRendererRKi
Beh:_ValueCollection_System_Collections_ICollection_get_SyncRoot_m3381653267_gshared
dBg:_UnmanagedMemoryStream_Write_m930787521
q9b:__ZN23ScriptableRenderContextC2Ev
zz:__ZN7mecanim9animation18ClipMuscleConstant8TransferI24GenerateTypeTreeTransferEEvRT_
iQf:_GridLayoutGroup_get_spacing_m2409263614
udh:_Enumerator_MoveNext_m3051926902_gshared
mIi:_List_1_CheckIndex_m581273900_gshared
W0e:_UNITY_FT_Stream_GetChar
ENj:_GUIStyle_get_fixedWidth_m2576616348
gNb:__Z18Transfer_BlittableI18StreamedBinaryReadILb1EELb1EdEvRK29SerializationCommandArgumentsR31RuntimeSerializationCommandInfo
Cae:__ZN5physx6shdfnd8internal8HashBaseINS0_4PairIKNS_2Sq13PrunerPayloadEjEES5_NS0_4HashIS5_EENS1_11HashMapBaseIS5_jS9_NS0_9AllocatorEE6GetKeyESB_Lb1EE5eraseERS6_
$Sb:__Z26BuildSerializationCacheFor17ScriptingClassPtrRb
KNa:__ZN7ApiGLES15BlitFramebufferEN2gl6HandleILNS0_10ObjectTypeE9EEENS0_15FramebufferReadES3_S3_iiiiiiiiNS0_15FramebufferTypeE
uue:__ZN5physx13GuMeshFactory16createConvexMeshERNS_13PxInputStreamE
aFe:__ZN5physx6shdfnd8internal8HashBaseINS0_4PairIKPKcjEES5_NS0_4HashIS5_EENS1_11HashMapBaseIS5_jS9_NS_7profile26WrapperReflectionAllocatorIjEEE6GetKeyESD_Lb1EE6createERS6_Rb
_il:__Z112RuntimeInvoker_RuntimeObject_RuntimeObject_RuntimeObject_RuntimeObject_RuntimeObject_RuntimeObject_RuntimeObjectPFvvEPK10MethodInfoPvPS4_
y1c:__ZN15CollisionModule5ResetEv
J5g:_InternalEnumerator_1_System_Collections_IEnumerator_get_Current_m3553395619_AdjustorThunk
f9l:__ZL64StandaloneInputModule_t2760469101_CustomAttributesCacheGeneratorP21CustomAttributesCache
bag:_Array_SetValue_m3998268557
EKf:_ColorBlock_set_highlightedColor_m2089444414_AdjustorThunk
Y_k:_RectTransform_INTERNAL_set_anchoredPosition_m939517950
$Rg:_Context_EndSwitchingSecurityParameters_m4148956166
_Xe:_otv_PairPos_validate
uE:__ZN7mecanim9animation14CopyHumanPosesEPKNS0_18AnimationNodeStateEPS1_RKNS_6bitsetILj83EEE
lbk:__ZN6il2cpp6icalls8mscorlib6SystemL8IsStaticEPK12PropertyInfo
qUb:__Z9InitInputv
xJb:__Z29Transfer_Blittable_ArrayFieldI24GenerateTypeTreeTransfer11ColorRGBA32EvRT_R9ArrayInfoRK23StaticTransferFieldInfo
Wvf:__ZN5physx18addTorqueCurvePairEPNS_19PxVehicleEngineDataEff
sue:__ZNK5physx13GuMeshFactory15getConvexMeshesEPPNS_12PxConvexMeshEjj
Sgk:__ZN6il2cpp2gc19AppendOnlyGCHashMapINSt3__24pairIPK10MethodInfoP11Il2CppClassEEP22Il2CppReflectionMethod17ReflectionMapHashIS9_ENS2_8equal_toIS9_EEE3AddERKS9_SB_
$Ab:__ZN16MemoryFileSystem6DeleteER13FileEntryDatab
rcl:__Z81RuntimeInvoker_Void_t1185182177_RuntimeObject_Int64_t3736567304_Int32_t2950945753PFvvEPK10MethodInfoPvPS4_
xJi:_List_1_set_Item_m1979164443_gshared
wIa:__ZL21BlitScaleStbImageImplRK14ImageReferenceRS_NS_10ColorSpaceE
VId:__ZN5physx10NpMaterial17setStaticFrictionEf
eWc:__Z9UpdateTplIL27ParticleSystemCurveEvalMode0EEvRK11MinMaxCurveS3_S3_R23ParticleSystemParticlesjjRKN4math8float3x3ERKNS6_7_float4E
W1d:__ZNK5physx7NpScene18getStaticStructureEv
s1d:__ZNK5physx7NpScene19getFilterShaderDataEv
fth:_InputField_get_keyboardType_m1248105267
qEb:__Z29Transfer_Blittable_ArrayFieldI14SafeBinaryReadyEvRT_R9ArrayInfoRK23StaticTransferFieldInfo
$U:__ZN20SoundChannelInstance15setChannelGroupEPN4FMOD12ChannelGroupE
EFj:_Match__ctor_m2425511580
MKh:_KeyPairPersistence_Remove_m1876145547
wof:__ZN5physx3Pvd17PvdPropertyFilterINS_2Sn17RepXVisitorReaderINS_22PxVehicleWheelsSimDataEEEE27handleExtendedIndexPropertyILj618ES4_NS_6PxVec3EKjNS_18PxUnknownClassInfoEEEvjRKNS_29PxExtendedIndexedPropertyInfoIXT_ET0_T2_T1_EERKT3_
YDd:__ZN5physx2Sc19ShapeInstancePairLL26onPoseChangedWhileSleepingEv
P1c:__ZN12LightsModule13AwakeFromLoadEP14ParticleSystemRK27ParticleSystemReadOnlyState
jce:__ZN5physx22PxcSweepCapsuleCapsuleERKNS_11PxsCCDShapeES2_PKNS_12PxsRigidBodyES5_RKNS_11PxTransformES8_S8_S8_fRNS_6PxVec3ESA_RNS_10PxcNpCacheERNS_18PxcNpThreadContextEf
Qc:invoke_vifffii
lsk:__ZN6il2cpp2vm9Exception27RaiseNullReferenceExceptionEv
bld:__ZNK5physx3Cct17CapsuleController21getHalfHeightInternalEv
JYa:__ZNK25MultiBlocksMemoryFileData5CloneEv
$Hk:_GC_add_ext_descriptor
hfk:__ZNK15dense_hashtableINSt3__24pairIK10KeyWrapperINS1_IPK14Il2CppAssemblyP11Il2CppClassEEEjEES9_17ReflectionMapHashIS8_EN14dense_hash_mapIS9_jSD_NS9_14EqualsComparerINS0_8equal_toIS8_EEEENS0_9allocatorISB_EEE9SelectKeyESI_SK_E23find_position_with_hashERSA_j
Sij:_LayoutGroup_SetProperty_TisSingle_t1397266774_m793506911_gshared
FGg:_CryptoConfig_CreateFromName_m1538277313
Ysf:__ZNK5physx30PxVehicleTireDataGeneratedInfo23visitInstancePropertiesINS_18RepXPropertyFilterINS_2Sn17RepXVisitorWriterINS_17PxVehicleTireDataEEEEEEEjT_j
yrd:__ZL30GeomOverlapCallback_CapsuleBoxRKN5physx10PxGeometryERKNS_11PxTransformES2_S5_PNS_2Gu12TriggerCacheE
jum:dynCall_iiiiiiiiiiii
a3h:_DllNotFoundException__ctor_m3079838043
aLe:__Z38Rigidbody_CUSTOM_INTERNAL_get_velocityP12Il2CppObjectP8Vector3f
qth:_InputField_set_caretPositionInternal_m3823580651
TCh:_Selectable_set_interactable_m3105888815
G5a:__ZL26KeywordSetToStringDontSortRKNSt3__26vectorIN4core12basic_stringIcNS1_20StringStorageDefaultIcEEEENS_9allocatorIS5_EEEERS5_
oKa:__ZN6prcoreL17RemapGenericFloatI16TexFormatRGFloat17TexFormatRGBAHalfEEvPKNS_9InnerInfoE
iP:__ZN12AudioManager22CreateFMODSoundFromWWWEP10IWWWStream15FMOD_SOUND_TYPE17FMOD_SOUND_FORMATjjbbP10SampleClip
jlc:__ZNK32RendererMaterialAnimationBinding15GenerateBindingERKN4core12basic_stringIcNS0_20StringStorageDefaultIcEEEEbRN11UnityEngine9Animation14GenericBindingE
X2f:_TargetException__ctor_m4172127019
PZi:_List_1_CheckCollection_m274117203_gshared
v7l:__ZL70EventSystem_t1003666588_CustomAttributesCacheGenerator_m_FirstSelectedP21CustomAttributesCache
F7:__ZN8Remapper23GetOrGenerateInstanceIDERK26SerializedObjectIdentifier
Qy:__ZN17AnimationCurveTplI8Vector3fEC2ERKS1_
qLf:_ColorTween_get_startColor_m3792586410_AdjustorThunk
jb:invoke_iiiiiifffiiifii
o9k:__Z85RuntimeInvoker_Void_t1185182177_Int32_t2950945753_Int32_t2950945753_Int32_t2950945753PFvvEPK10MethodInfoPvPS4_
cUh:_X509Chain__ctor_m2878811474
MRf:_CustomInfo__ctor_m426096741
hEf:_EventSystem_ToString_m3779610692
rjb:__ZN6Sprite8TransferI24GenerateTypeTreeTransferEEvRT_
FZg:_InternalEnumerator_1_get_Current_m2223614542_AdjustorThunk
JEc:__Z48Register_UnityEngine_Transform_SetAsFirstSiblingv
R0g:_InternalEnumerator_1_System_Collections_IEnumerator_get_Current_m694606607_gshared
ujb:__ZN7SubMesh8TransferI24GenerateTypeTreeTransferEEvRT_
nBd:__ZNK5physx19NpArticulationJoint28getTwistLimitContactDistanceEv
mck:_NativeTypeAttribute__ctor_m133676646
_9c:__ZN5physx3Cct10Controller6setPosERKNS_14PxExtendedVec3E
pcj:_Collection_1_System_Collections_IList_Contains_m296643274_gshared
fcd:__ZN5physx2GuL14testFaceNormalERKNS0_13PolygonalDataES3_PNS0_12SupportLocalES5_RKNS_6shdfnd3aos15PsMatTransformVESA_RKNS7_6FloatVERSB_RjRNS7_5Vec3VENS0_13FeatureStatusERSI_
gvg:_DirectoryInfo__ctor_m126519516
v$f:_MethodBase_GetMethodFromIntPtr_m3014201362
L3g:_InternalEnumerator_1_get_Current_m2315302778_AdjustorThunk
iA:__ZN7mecanim5human9HumanGoal8TransferI18StreamedBinaryReadILb0EEEEvRT_
vvc:__ZN9Transform23SetSiblingIndexInternalEib
Erd:__ZL32GeomOverlapCallback_ConvexConvexRKN5physx10PxGeometryERKNS_11PxTransformES2_S5_PNS_2Gu12TriggerCacheE
ylg:_Enumerator_MoveNext_m635366482
U6f:_X509Extension_Equals_m1222951829
OC:__ZN7mecanim5human12HumanPoseSubERNS0_9HumanPoseERKS1_S4_
rwk:__ZN6il2cpp8metadata15GenericMetadata15GetGenericClassEiPK17Il2CppGenericInst
RCb:__Z18Transfer_BlittableI14SafeBinaryReadLb0E10Matrix4x4fEvRK29SerializationCommandArgumentsR31RuntimeSerializationCommandInfo
qSb:__Z24GetFixedBehaviourManagerv
hak:__ZN6il2cpp2vm10ThreadPool4WaitEP17Il2CppAsyncResultPPv
RMh:_PKCS12_Encrypt_m2617413749
qpm:_vfprintf
UHc:__ZN10GUIManager12AddGUIScriptER8ListNodeI13MonoBehaviourE
Nlg:_Stack_Clear_m2010200235
EUe:_cf2_getVStore
ZFf:_PointerEventData_set_pointerPressRaycast_m1363193059
o0b:__ZN20DynamicPropertySheetD0Ev
n5f:_SafeHandle_Dispose_m4229010569
Ecc:__ZN14SafeBinaryRead17RegisterConverterEPKcS1_PFbPvRS_E
f_l:__ZL77RuntimePlatform_t4159857903_CustomAttributesCacheGenerator_OSXDashboardPlayerP21CustomAttributesCache
_ha:__ZN35RegisterRuntimeInitializeAndCleanup8RegisterEPFvPvES2_iS0_
AXf:_FieldBuilder_SetValue_m828035213
Zs:__ZN7mecanim6memory16ChainedAllocator7ReserveEj
Xti:_Array_InternalArray__Insert_TisSingle_t1397266774_m3161726127_gshared
O8a:__ZN20SphericalHarmonicsL215AddAmbientLightERK10ColorRGBAf
V7c:__ZN14ParticleSystem23UpdateLateTransformDataEv
nce:__ZN5physx25PxcSweepConvexHeightfieldERKNS_11PxsCCDShapeES2_PKNS_12PxsRigidBodyES5_RKNS_11PxTransformES8_S8_S8_fRNS_6PxVec3ESA_RNS_10PxcNpCacheERNS_18PxcNpThreadContextEf
NEc:__Z21Object_CUSTOM_DestroyP12Il2CppObjectf
qya:__ZN8Material26ResetAllCachedMaterialDataEP6Shader
jgl:__Z63RuntimeInvoker_Void_t1185182177_RuntimeObject_Int16_t2552820387PFvvEPK10MethodInfoPvPS4_
g1e:_UNITY_TT_Get_MM_Var
orh:_ObjectManager_AddFixup_m2154325362
L7g:_Comparer_1__cctor_m3761458313_gshared
__h:_DateTimeOffset_CompareTo_m1350732322_AdjustorThunk
aa:invoke_diddi
f9e:__ZNK2UI6Canvas13GetRenderModeEv
URk:_PersistentCall__ctor_m1217622171
Soi:_Array_compare_TisCustomAttributeTypedArgument_t2723150157_m1384644047_gshared
$qm:_unlink
aCb:__Z18Transfer_BlittableI14SafeBinaryReadLb0EiEvRK29SerializationCommandArgumentsR31RuntimeSerializationCommandInfo
V8j:__ZN6il2cpp2vm13MetadataCache30GetPropertyDefinitionFromIndexEi
aPj:_SymmetricTransform_Transform_m1683494363
$Vd:__ZN5physx14NpRigidDynamic7releaseEv
Rff:__ZN22BaseUnityConnectClient17InitializeSessionERKN4core12basic_stringIcNS0_20StringStorageDefaultIcEEEES6_N19CloudServiceHandler13InitModeFlagsE
Uml:__Z74RuntimeInvoker_RuntimeObject_Int32_t2950945753_RuntimeObject_RuntimeObjectPFvvEPK10MethodInfoPvPS4_
D8d:__ZN5physx6shdfnd8PoolBaseINS_21PxsBodyTransformVault13PxsBody2WorldENS0_19ReflectionAllocatorIS3_EEE15disposeElementsEv
J3i:_List_1_get_Item_m200663048_gshared
ku:__ZN15SerializeTraitsI9OffsetPtrIN7mecanim9animation23BlendDirectDataConstantEEE8TransferI24GenerateTypeTreeTransferEEvRS4_RT_
QAm:_emscripten_glDeleteBuffers__wrapper
vxc:__ZN13MonoBehaviour34StopCoroutineFromEnumeratorManagedE18ScriptingObjectPtr
Ack:_WheelCollider_GetWorldPose_m1498503109
hid:__ZN5physx2Gu30computeCapsule_TriangleMeshMTDERKNS_22PxTriangleMeshGeometryERKNS_11PxTransformERNS0_8CapsuleVEffbRNS_10PxSweepHitE
rub:__ZN30RuntimeInitializeOnLoadManager8TransferI18StreamedBinaryReadILb0EEEEvRT_
k_h:_DateTimeOffset__ctor_m2084804982
vZe:_UNITY_tt_face_load_pclt
Qwc:__ZL34GetComponentsImplementationRecurseILb1ELi0ELi2EEbR10GameObjectbRK17CompareParametersRK39GetComponentsImplementation_ReturnValue
Xse:__ZN5physx2Sc14ConstraintCore10breakApartEv
$Pa:__ZN20ComputeShaderVariantD2Ev
qUk:_Material_GetTexture_m3545614349
Q$d:__ZThn8_N5physx2Sc19ShapeInstancePairLL10onActivateEj
a7k:__Z64RuntimeInvoker_RuntimeObject_Int32_t2950945753_Int16_t2552820387PFvvEPK10MethodInfoPvPS4_
U0c:__ZN16CustomDataModule8TransferI19StreamedBinaryWriteILb0EEEEvRT_
cAi:_EqualityComparer_1__cctor_m4244842342_gshared
L$b:__ZNK6Camera18WorldToScreenPointERK8Vector3fPb
tie:__ZN5physx2Cm12DelegateTaskINS_10PxsContextEXadL_ZNS2_28mergeCMDiscreteUpdateResultsEPNS_10PxBaseTaskEEEE11runInternalEv
u0k:_SendMouseEvents_DoSendMouseEvents_m2140870850
gze:__ZN5physx19TriangleMeshBuilder10importMeshERKNS_18PxTriangleMeshDescERKNS_15PxCookingParamsEb
Njm:_CrossPlatformInputManager_SetAxis_m1144576044
TMa:__Z18IsCompressedFormat14GraphicsFormat
hD:__ZN7mecanim9animation19AdjustPoseForMotionERKNS0_14AvatarConstantERKNS0_14SkeletonTQSMapERKN4math4trsXERNS_10ValueArrayERNS_8skeleton13SkeletonPoseTIS8_EESG_
dV:__ZN11AudioSource19ApplyMinMaxDistanceERKNS_14ParameterCacheE12SoundChannel
iRi:__Z33il2cpp_codegen_check_add_overflowxx
H6:__ZNSt3__227__insertion_sort_incompleteIRPFbRKN18AwakeFromLoadQueue4ItemES4_EPS2_EEbT0_S9_T_
f0f:_TargetInvocationException__ctor_m3011316584
zug:_InvalidOperationException__ctor_m1685032583
V6j:__ZN14dense_hash_mapI10KeyWrapperIN6il2cpp5utils13dynamic_arrayIPK10Il2CppTypeLj4EEEEPFvvENS1_8metadata19Il2CppSignatureHashENS8_14EqualsComparerINSB_22Il2CppSignatureCompareEEENSt3__29allocatorINSG_4pairIKS8_SA_EEEEE15set_deleted_keyERSJ_
QRi:_TimeSpan_op_Subtraction_m3592306516
aCi:_EqualityComparer_1_System_Collections_IEqualityComparer_GetHashCode_m1517903420_gshared
aPd:__ZN5physx6shdfnd5ArrayINS_18PxClothFabricPhaseENS0_19ReflectionAllocatorIS2_EEE8recreateEj
Tgb:__ZN26EnlightenSystemInformation8TransferI14SafeBinaryReadEEvRT_
i1c:__ZN13InitialModule5ResetEv
wtb:__ZN24GenerateTypeTreeTransfer8TransferINSt3__26vectorIN15ResourceManager10DependencyE13stl_allocatorIS4_L18MemLabelIdentifier52ELi16EEEEEEvRT_PKc17TransferMetaFlags
hZj:_CanvasRenderer_SplitUIVertexStreams_m2753637362
Lol:__Z119RuntimeInvoker_Void_t1185182177_RuntimeObject_Single_t1397266774_Single_t1397266774_SByte_t1669577662_Int32_t2950945753PFvvEPK10MethodInfoPvPS4_
ehf:__ZN11UnityEngine15PlatformWrapper20SetPlayerPrefsUInt64ERKN4core12basic_stringIcNS1_20StringStorageDefaultIcEEEEy
Tnb:__ZN12MeshRendererD0Ev
DY:__ZN12AudioManager35GetCurrentSpatializerDefinitionNameEv
lgd:__ZN5physx2Gu16sweepBoxTriangleERKNS_10PxTriangleERKNS_9PxBounds3ERKNS_6PxVec3ES9_RS7_SA_Rf
gi:_utime
Sze:__ZN5physx10writeChunkEaaaaRNS_14PxOutputStreamE
YIj:_BalancingGroup_Compile_m2575117193
$J:__Z28SetExposedSkeletonTransformsRKN7mecanim9animation14AvatarConstantERKN11UnityEngine9Animation30AnimatorGenericBindingConstantERKNS_8skeleton13SkeletonPoseTIN4math4trsXEEERKNSA_INSB_7affineXEEERNS5_21AvatarBindingConstantEy
mak:__ZN6il2cpp6icalls8mscorlib6System8MonoType18IsGenericParameterEPK10Il2CppType
oek:__ZNSt3__26vectorIN6il2cpp2vm17TypeNameParseInfoENS_9allocatorIS3_EEE8allocateEj
Bjh:_Context_NotifyDynamicSinks_m1841702879
zFj:_Mark_get_Index_m3048692661_AdjustorThunk
Fn:FUNCTION_TABLE_viiiiif
p7g:_DefaultComparer_Compare_m3931992727_gshared
ro:FUNCTION_TABLE_viiiiii
l6g:_InternalEnumerator_1_System_Collections_IEnumerator_get_Current_m1847780851_AdjustorThunk
nsg:_Int32_System_IConvertible_ToType_m3009233912_AdjustorThunk
l_h:_DateTimeOffset__ctor_m74032857
PFd:__ZN5physx2Sc9RigidCore13onShapeChangeERNS0_9ShapeCoreENS_7PxFlagsINS0_21ShapeChangeNotifyFlag4EnumEjEENS4_INS_11PxShapeFlag4EnumEhEE
BL:__ZN7mecanim9animation22DestroyAvatarWorkspaceEPNS0_15AvatarWorkspaceERNS_6memory9AllocatorE
JSi:_Type_type_is_assignable_from_m76737532
zTd:__ZN5physx6shdfnd5ArrayIPvNS0_15InlineAllocatorILj256ENS0_19ReflectionAllocatorINS_2Sc19ParticlePacketShapeEEEEEE15growAndPushBackERKS2_
See:__ZN5physx17solveContactBlockEPKNS_23PxcSolverConstraintDescEjRNS_16PxcSolverContextE
$ze:__ZN5physx6shdfnd10FoundationD2Ev
L6b:__ZN15LightmapSTCacheC2ER13BatchRendererR15RenderLoopStats
wdb:__ZN14PlayableOutput17SetSourcePlayableEP8Playable
jub:__ZNSt3__26vectorIN4core12basic_stringIcNS1_20StringStorageDefaultIcEEEE13stl_allocatorIS5_L18MemLabelIdentifier13ELi16EEE8__appendEj
tVk:_Mesh_Internal_Create_m2853543051
RK:__ZN7mecanim9animation29MotionOutputGetDeltaTransformEPKNS0_12MotionOutputE
aEc:__Z43Transform_CUSTOM_INTERNAL_get_localRotationP12Il2CppObjectP11Quaternionf
_8d:__ZN5physx2Sc10NPhaseCoreD2Ev
Btd:__ZN5physx2Sc7BodySim18onConstraintDetachEv
Zck:__ZN6il2cpp2os4File9SetLengthEPNS0_10FileHandleExPi
gmc:__ZZL23RegisterLightPropertiesR22GenericPropertyBindingEN20Wrapper_LightColorr013SetFloatValueEPvf
Zqh:_ObjectReader_ReadObjectGraph_m340866276
Li:_emscripten_glGetTexParameteriv
Hil:__Z240RuntimeInvoker_RuntimeObject_Int16_t2552820387_RuntimeObject_Int32_t2950945753_Int32_t2950945753_Int32_t2950945753_SByte_t1669577662_SByte_t1669577662_SByte_t1669577662_SByte_t1669577662_Int16_t2552820387_SByte_t1669577662_SByte_t1669577662PFvvEPK10MethodInfoPvPS4_
y1d:__ZN5physx7NpScene8simulateEfPNS_10PxBaseTaskEPvjb
rAm:_glGenTextures__wrapper
ita:__ZN9ShaderLab20SerializedSubProgram14ConstantBufferaSERKS1_
Shc:__Z13RegisterClassI4MeshEvv
G2l:__ZL74SharedBetweenAnimatorsAttribute_t2857104338_CustomAttributesCacheGeneratorP21CustomAttributesCache
Uab:__ZN8PlayableD0Ev
dh:emscriptenWebGLGetBufferBinding
NQ:__ZN12AudioManager8TransferI19StreamedBinaryWriteILb0EEEEvRT_
uNf:_Dropdown_Hide_m504034854
QYj:_CanvasGroup_IsRaycastLocationValid_m2128397950
uDh:_Slider_UpdateCachedReferences_m3259451627
vVg:_SslStreamBase_get_KeyExchangeStrength_m217695965
vFj:_LinkStack_Pop_m4048583474
YNb:__ZN18StreamedBinaryReadILb1EE21TransferSTLStyleArrayI13dynamic_arrayI11ColorRGBA32Lj4EEEEvRT_17TransferMetaFlags
apk:__ZN15dense_hashtableINSt3__24pairIK10KeyWrapperINS1_IP11Il2CppClassjEEES4_EES6_N6il2cpp8metadata14ArrayClassHashEN14dense_hash_mapIS6_S4_SB_NS6_14EqualsComparerINSA_17ArrayClassCompareEEENS0_9allocatorIS8_EEE9SelectKeyESF_SH_E6insertERKS8_
RNf:_U3CShowU3Ec__AnonStorey1_U3CU3Em__0_m2340880019
DCd:__ZN5physx18NpArticulationLink10clearForceENS_11PxForceMode4EnumE
zji:_ASCIIEncoding_GetString_m58523364
Xcd:__ZN5physx2Gu30distanceSegmentTriangleSquaredERKNS_6PxVec3ES3_S3_S3_S3_PfS4_S4_
LBj:_TlsStream_Flush_m3793197834
Ezb:__ZN22LocalFileSystemHandler9MakeLocalER13FileEntryDatab
som:_U3CCountStartU3Ec__Iterator0_MoveNext_m1266638396
RDk:__ZN6il2cpp2vm8Profiler10AllocationEP12Il2CppObjectP11Il2CppClass
xKj:_Uri_IsHexEncoding_m3290929897
Nam:__ZL61Graphic_t1660335611_CustomAttributesCacheGenerator_m_MaterialP21CustomAttributesCache
D5e:__ZNSt3__23mapIN20TextRenderingPrivate7FontRefENS1_6OSFontENS_4lessIS2_EENS_9allocatorINS_4pairIKS2_S3_EEEEEixERS8_
Nbh:_ShimEnumerator_get_Value_m153531060_gshared
_pa:__Z13FormatOrderedPKcz
Ibk:__ZN6il2cpp2vm8basepathEPKc
hTh:_X509Chain_GetAuthorityKeyIdentifier_m614536199
b3e:__ZN14SafeBinaryRead21TransferSTLStyleArrayI10vector_mapINSt3__24pairIttEEfN20TextRenderingPrivate8FontImpl14KerningCompareENS2_9allocatorINS3_IS4_fEEEEEEEvRT_17TransferMetaFlags
OQg:_TlsServerFinished__ctor_m1445633918
$$a:__ZN13dynamic_arrayI17SortingLayerEntryLj4EE6insertEPS0_jRKS0_
w6b:__ZN25DeferredRenderLoopScratchD0Ev
kF:__ZN27AnimationLayerMixerPlayable14SetInputWeightEif
f3k:_UnityException__ctor_m1456865679
KC:__ZN7mecanim9animation17EvaluateHumanPoseERKNS0_18ClipMuscleConstantERKNS0_15ClipMuscleInputEPKfRKNS0_12MotionOutputERNS_5human9HumanPoseE
bLh:_PKCS1_Encrypt_v15_m1016948107
ssa:__ZN15dense_hashtableINSt3__24pairIKiN4core17string_with_labelILi1EEEEEi18SInt32HashFunctionN14dense_hash_mapIiS5_S7_NS0_8equal_toIiEE13stl_allocatorIS6_L18MemLabelIdentifier1ELi16EEE9SelectKeyESA_SD_E9copy_fromERKSG_j
sUf:_CustomAttributeNamedArgument_GetHashCode_m2317130892
Tsb:__ZN15ResourceManagerD0Ev
Zda:__ZN22CreateGpuProgramOutputD2Ev
bmd:__ZNK5physx3Cct15ObstacleContext14getNbObstaclesEv
E6c:__Z17UpdateSprites2TplIL27ParticleSystemCurveEvalMode2ELS0_3EEvfRK11MinMaxCurveS3_RK23ParticleSystemParticlesPf
Swe:__ZN5physx6shdfnd8PoolBaseINS_11NpAggregateENS0_19ReflectionAllocatorIS2_EEE12allocateSlabEv
It:__ZN7mecanim9animation23BlendDirectDataConstant8TransferI14SafeBinaryReadEEvRT_
abi:_SHA1CryptoServiceProvider_Finalize_m1793183797
HDi:_HashSet_1_System_Collections_Generic_ICollectionU3CTU3E_CopyTo_m408073502_gshared
tUd:__ZN5physx7NpScene26removeFromParticleBaseListERNS_14PxParticleBaseE
hUd:__ZN5physx23NpParticleFluidReadData18getDataAccessFlagsEv
Pyb:__ZN12HandlerChain4OpenER13FileEntryData14FilePermission16FileAutoBehavior
Pul:__Z72RuntimeInvoker_Void_t1185182177_Int32_t2950945753_RaycastHit_t1056001966PFvvEPK10MethodInfoPvPS4_
Wgk:__ZN15dense_hashtableINSt3__24pairIK10KeyWrapperINS1_IPK10MethodInfoP11Il2CppClassEEEjEES9_17ReflectionMapHashIS8_EN14dense_hash_mapIS9_jSD_NS9_14EqualsComparerINS0_8equal_toIS8_EEEENS0_9allocatorISB_EEE9SelectKeyESI_SK_E6insertERKSB_
ctf:__ZN5physx3Pvd17PvdPropertyFilterINS_2Sn17RepXVisitorWriterINS_17PxVehicleTireDataEEEE27extendedDualIndexedPropertyILj605ES4_jjfEEvjRKNS_33PxExtendedDualIndexedPropertyInfoIXT_ET0_T1_T2_T3_EEjj
$9f:_Array_SetValue_m394135409
Daa:__ZN14FileCacherReadD2Ev
Rvb:__ZN13RendererScene23UpdatePreviousFrameDataEii
qkf:__ZN5physx22PxVehicleWheelsSimData26setTireForceAppPointOffsetEjRKNS_6PxVec3E
wii:_String_Remove_m562998446
jzc:__Z50Register_UnityEngine_CullingGroup_FinalizerFailurev
zwb:__ZN27UnloadUnusedAssetsOperationD0Ev
csm:__ZNKSt3__221__basic_string_commonILb1EE20__throw_out_of_rangeEv
Sbe:__ZN5physx10PxsCCDPair12updateShapesEv
eij:_Dictionary_2_Do_ICollectionCopyTo_TisBoolean_t97287965_m3600337818_gshared
idk:_UpdatedEventHandler_Invoke_m1320302085
AO:__ZN9AudioClip23VirtualRedirectTransferER18StreamedBinaryReadILb0EE
Vkm:_StandaloneInput_SetButtonUp_m191088641
i3i:_List_1_AddEnumerable_m2724989594_gshared
iQd:__ZN5physx2Sc9ClothCore22removeCollisionCapsuleEj
Mnl:__Z82RuntimeInvoker_Vector2_t2156229523_Vector2_t2156229523_RuntimeObject_RuntimeObjectPFvvEPK10MethodInfoPvPS4_
BRa:__ZN18GlslGpuProgramGLESC2ERK13dynamic_arrayIhLj1EER22CreateGpuProgramOutput
QFc:__Z70Register_UnityEngine_Playables_PlayableHandle_GetPlayableType_Injectedv
Jud:__ZN5physx16PxsIslandManager25setArticulationLinkHandleEjPvRKNS_20PxsIslandManagerHookIjLj4294967295EEE
lk:_glCopyTexSubImage2D
nVc:__ZNK21RotationBySpeedModule6UpdateERK27ParticleSystemReadOnlyStateRK19ParticleSystemStateR23ParticleSystemParticlesRKN4math7_float4Ejj
k3k:_UnitySynchronizationContext_ExecuteTasks_m1310741010
I9h:_RIPEMD160Managed_CompressFinal_m497690796
Ubc:__ZN18ScreenManagerWebGL13SetShowCursorEb
RXb:__ZN13DrawImmediateC2ER9GfxDevice
Bpm:_frexp
xaf:__ZN2UI13CanvasManager14GetRenderOrderEPKNS_6CanvasE
yEd:__ZN5physx6shdfnd5ArrayIPNS_3Scb5ShapeENS0_15InlineAllocatorILj16ENS0_19ReflectionAllocatorIS4_EEEEE15growAndPushBackERKS4_
NCb:__Z18Transfer_BlittableI14SafeBinaryReadLb0E5RectTIfEEvRK29SerializationCommandArgumentsR31RuntimeSerializationCommandInfo
Ktg:_NumberFormatter_NumberToString_m2562899600
gYe:_otv_u_C_x_Ox
qEa:__ZN14GfxContextGLES14GetFramebufferEv
fBm:_emscripten_glGenVertexArrays__wrapper
UWi:_Version_Clone_m1749041863
$Ia:__ZN6prcoreL21CreateRemapAnyBlitterE13TextureFormatS0_
TNg:_RSAManaged_ExportParameters_m1754454264
Vtc:__ZN17AnimationCurveTplIfE16StripInvalidKeysEv
Ycg:_Boolean_Equals_m535526264_AdjustorThunk
yli:_Array_InternalArray__ICollection_Contains_TisTouch_t1921856868_m354355717_gshared
m9e:__ZNK2UI6Canvas17GetSortingLayerIDEv
dwc:__ZL12HashLen0to16PKcj
lnk:_il2cpp_method_has_attribute
Ihc:__Z13RegisterClassI17GlobalGameManagerEvv
Rfa:__ZN8Renderer24SetupNewRendererForSceneEv
ESi:_Type_internal_from_name_m1721940673
Enk:_il2cpp_type_get_class_or_element_class
gmh:_RemotingServices_GetMethodBaseFromName_m3194612939
NOc:__Z35Transfer_Blittable_FixedBufferFieldI8JSONReadtEvRK29SerializationCommandArgumentsR31RuntimeSerializationCommandInfo
nne:__ZN5physx2Sc8ClothSim16addCollisionMeshEPKNS0_8ShapeSimE
jpc:__ZN14PlayableOutput6HandleEv
Qib:__ZNK6Sprite22GetTypeVirtualInternalEv
Lsf:__ZN5physx6shdfnd5ArrayINS_12PxFilterDataENS0_15InlineAllocatorILj80ENS0_19ReflectionAllocatorIS2_EEEEE6resizeEjRKS2_
bCf:__ZN13RuntimeStaticINSt3__26vectorI23UnityVRDeviceDefinition13stl_allocatorIS2_L18MemLabelIdentifier90ELi16EEEELb0EE13StaticDestroyEPv
lo:FUNCTION_TABLE_iiiiiiiiiiiiii
qse:__ZN5physx6shdfnd5ArrayIPKNS_10PxsCCDBodyENS0_19ReflectionAllocatorIS4_EEE8recreateEj
sEd:__ZN5physx6shdfnd4sortINS_2Cm19PreallocatingRegionENS0_4LessIS3_EENS0_19ReflectionAllocatorIS3_EEEEvPT_jRKT0_RKT1_j
m7a:__ZN11Tetrahedron8TransferI24GenerateTypeTreeTransferEEvRT_
ZYe:_UNITY_tt_get_cmap_info
zJb:__Z29Transfer_Blittable_ArrayFieldI24GenerateTypeTreeTransfer5RectTIiEEvRT_R9ArrayInfoRK23StaticTransferFieldInfo
X7a:__ZN16ReflectionProbes8ScheduleEN18ReflectionProbeJob7JobTypeEP15ReflectionProbei
SQg:_ClientSessionInfo_KeepAlive_m1020179566
w9e:__ZN13dynamic_arrayIN2UI13UIInstructionELj4EE12emplace_backEv
yWa:__Z18IsDirectoryCreatedRKN4core12basic_stringIcNS_20StringStorageDefaultIcEEEE
Cdi:_String_FormatHelper_m3913915042
l8e:__ZN2UI13CanvasManagerD2Ev
j8c:__ZZN14ParticleSystem15InitializeClassEvEN52PreLateUpdateParticleSystemBeginUpdateAllRegistrator7ForwardEv
e4j:__ZN15dense_hashtableINSt3__24pairIK10KeyWrapperIPKcEP11Il2CppClassEES5_N6il2cpp5utils11StringUtils12StringHasherIS4_EEN14dense_hash_mapIS5_S8_SE_NS5_14EqualsComparerINSB_13VmStringUtils21CaseSensitiveComparerEEENS0_9allocatorIS9_EEE9SelectKeyESJ_SL_E15set_deleted_keyERKS9_
_7f:_AttrListImpl_get_Names_m977594476
e5e:_UNITY_FT_GlyphLoader_Done
Jkm:_MobileInput_SetAxisZero_m4114279636
W2h:_StackTrace_get_FrameCount_m344690939
sLe:__Z59Register_UnityEngine_Rigidbody_INTERNAL_get_angularVelocityv
Rwg:_FileStream_BeginRead_m2419864669
SAg:_UnexceptionalStreamWriter_Write_m363195622
zfe:__ZN5physx18ComputeSortedListsEPNS_2Cm10BitMapBaseINS_6shdfnd9AllocatorEEEjjPKjPPNS_8SapBox1DES7_PjSB_jRKNS_2Gu4AxesESB_RjSB_SG_RbSH_
zEf:_EventTrigger_OnInitializePotentialDrag_m2172162368
kBf:__ZL28VehicleWheelRaycastPreFilterN5physx12PxFilterDataES0_PKvjRNS_7PxFlagsINS_9PxHitFlag4EnumEtEE
EA:__ZN15SerializeTraitsIN4math4trsXEE8TransferI19StreamedBinaryWriteILb0EEEEvRS1_RT_
duh:_Selectable_OnPointerDown_m1086067264
j2e:_psh_globals_new
jNf:_Dropdown_SetupTemplate_m628218778
DOi:_Thread_GetCompressedStack_m2923422412
Ohg:_SynchronizedArrayListWrapper_CopyTo_m4207791406
wRh:_X509BasicConstraintsExtension_ToString_m1809935297
Pya:__ZN9GfxDevice20SetMaxBufferedFramesEi
Dzj:_TweenRunner_1_StartTween_m1055628540_gshared
Ofj:_Array_qsort_TisUIVertex_t4057497605_TisUIVertex_t4057497605_m678708019_gshared
Anj:_ReadOnlyCollection_1_System_Collections_IList_Remove_m4129318771_gshared
Eij:_GameObject_GetComponents_TisRuntimeObject_m1246177135_gshared
Cum:dynCall_vdd
Zdc:__Z23ConvertIntegerToTypePtrIsEbPvR14SafeBinaryRead
NAf:__ZN5physx15computeTankDiffEffjPKbPfS2_S2_
Hzd:__ZNK5physx14NpArticulation17releaseDriveCacheERNS_24PxArticulationDriveCacheE
ATe:__ZNSt3__26vectorI13dynamic_arrayI21TreePrototypeColliderLj4EE13stl_allocatorIS3_L18MemLabelIdentifier1ELi16EEE8__appendEjRKS3_
rzi:_EqualityComparer_1_System_Collections_IEqualityComparer_GetHashCode_m2230215241_gshared
$dm:__ZL60ContentSizeFitter_t3850442145_CustomAttributesCacheGeneratorP21CustomAttributesCache
Wjg:_Hashtable_Contains_m2145146412
jUl:__ZL64UnmarshalledAttribute_t1517743549_CustomAttributesCacheGeneratorP21CustomAttributesCache
wsc:__ZN4Mesh24UpdateSubMeshVertexRangeEi
LPd:__ZNK5physx2Sc9ClothCore25getSelfCollisionStiffnessEv
BTc:__Z13UpdateSizeTplIL27ParticleSystemCurveEvalMode3EEvRK11MinMaxCurveR23ParticleSystemParticlesbjj
zqg:_Int32_FindCurrency_m3541026887
lXh:_Interval_CompareTo_m3282557545
gMk:__ZN6il2cpp8metadata19Il2CppSignatureHash4HashERKNS_5utils13dynamic_arrayIPK10Il2CppTypeLj4EEE
jCm:_pthread_cond_wait__wrapper
J5b:__ZNK14RenderSettings19GetFlatAmbientColorEv
BIa:__ZN6prcoreL10inner_flipILj4EEEvPhS1_j
Brb:__ZN18StreamedBinaryReadILb0EE21TransferSTLStyleArrayI10vector_mapIPKN5Unity4TypeE7Hash128NSt3__24lessIS6_EENS8_9allocatorINS8_4pairIS6_S7_EEEEEEEvRT_17TransferMetaFlags
hH:__ZNK27StateMachineBehaviourPlayer15IsSenderEnabledEv
UJg:_RijndaelManagedTransform_TransformBlock_m1610137419
CEc:__Z40Register_UnityEngine_Transform_SetParentv
Fkb:__ZN14Texture2DArray17UploadToGfxDeviceEv
ULj:_Event_set_displayIndex_m1342258734
uS:__Z14FMODMemoryFreePvjPKc
$pg:_Int16_System_IConvertible_ToType_m3672347013
NRk:_NetFxCoreExtensions_GetMethodInfo_m444570327
O3b:__Z14SetSHConstantsR13BatchRendererR17ShaderPassContextRK20SphericalHarmonicsL2b
Y_e:_tt_cmap0_validate
xeg:_Char_System_IConvertible_ToDecimal_m3534906463
jVe:_cf2_glyphpath_moveTo
u5d:__ZN5physx3Scb4Body9syncStateEv
g4k:_Vector3_get_magnitude_m27958459_AdjustorThunk
b1k:_StackTraceUtility_SetProjectFolder_m830524047
RDd:__ZN5physx12PxsRigidBody23updatePoseDependenciesVERNS_10PxsContextE
KD:__ZN7mecanim23TransformValueArrayLoopEiiiRKN4math4trsXES3_RNS_10ValueArrayEf
Amm:_JetParticleEffect_Update_m1333449538
PHc:__ZN5IMGUI14GUIWindowStateD2Ev
cQg:_ClientContext_Clear_m1774063253
Msc:__ZN4Mesh17SetIndicesComplexEPKvjj16GfxPrimitiveTypeij
E5c:__Z20UpdateWholeSheet2TplIL27ParticleSystemCurveEvalMode1ELS0_0EEvfRK11MinMaxCurveS3_RK23ParticleSystemParticlesPf
CZh:_DateTime_AddSeconds_m332574389_AdjustorThunk
_2k:_RequestAtlasCallback_Invoke_m378128467
Fdg:_Byte_System_IConvertible_ToSByte_m1869482168
MNf:_U3CDelayedDestroyDropdownListU3Ec__Iterator0_MoveNext_m213723240
JVb:__Z21PlayerStartFirstSceneb
bK:__ZN7mecanim5human10RetargetToEPKNS0_5HumanEPKNS0_9HumanPoseES6_RKN4math4trsXEPS4_PNS_8skeleton13SkeletonPoseTIS8_EESF_
CD:__ZN7mecanim9animation8SeekClipERKNS0_12StreamedClipERNS0_18StreamedClipMemoryEf
XSk:_GameObject_Internal_AddComponentWithType_m3797731663
Um:_emscripten_glIsTexture
dz:__ZN24CompressedAnimationCurveaSERKS_
s4i:_List_1_CheckIndex_m3933537097_gshared
zl:_emscripten_glHint
WSc:__ZN15PolynomialCurve22IsValidPolynomialCurveERK17AnimationCurveTplIfE
uPj:_Check_SourceAndPredicate_m2332465641
Mml:__Z67RuntimeInvoker_Boolean_t97287965_TextGenerationSettings_t1351628751PFvvEPK10MethodInfoPvPS4_
U0e:_ft_var_readpackeddeltas
Tei:_String_op_Inequality_m215368492
SOe:__ZN9Heightmap16CheckConsistencyEv
DMb:__Z35Transfer_Blittable_FixedBufferFieldI18StreamedBinaryReadILb1EEtEvRK29SerializationCommandArgumentsR31RuntimeSerializationCommandInfo
MUi:_UInt32_System_IConvertible_ToInt64_m2261037378
Xm:_SDL_UpperBlit
T7a:__Z35GetTextureDecodeValuesWithIntensity16TextureUsageMode17TextureColorSpace10ColorSpacef
Lli:_Array_InternalArray__ICollection_Remove_TisChar_t3634460470_m4143749387_gshared
dYb:__ZN15dense_hashtableINSt3__24pairIK9TextureIDiEES2_14GfxGenericHashIS2_EN14GfxDoubleCacheIS2_iS6_NS0_8equal_toIS2_EEN31GfxDoubleCacheConcurrencyPolicy11LocklessGetE42GfxDoubleCacheDefaultEmptyDeletedGeneratorIS2_EE9SelectKeyES9_13stl_allocatorIS4_L18MemLabelIdentifier24ELi16EEE14squash_deletedEv
zLd:__ZNK5physx7NpShape16getContactOffsetEv
uhe:__ZN5physx14PxsAABBManager21processAggregatePairsEPKNS_19AggregateSortedDataE
jIe:_PxCreateCooking
WYh:_GregorianCalendar__ctor_m979779718
uUg:_SslClientStream__ctor_m2402546929
ySb:__ZN14SafeBinaryRead20OverrideRootTypeNameEPKc
KNh:_DictionaryNodeEnumerator_get_Entry_m2309234501
Haa:__ZN14FileCacherRead16UnlockCacheBlockEj
dja:__ZN10InstancingL21OnGraphicsCapsChangedEv
DQi:_WaitHandle_get_Handle_m3260446580
UGi:_Enumerator_VerifyState_m1745883925_AdjustorThunk
od:_emscripten_glUniform1f
Tkg:_SortedList__ctor_m1261191695
J5e:__Z20ParseImageParametersR11UTF16StringRiRN20TextRenderingPrivate16TextFormatChangeE
Qdm:__ZL55CanvasScaler_t2767979955_CustomAttributesCacheGeneratorP21CustomAttributesCache
td:_emscripten_glUniform1i
XHb:__Z18Transfer_BlittableI24GenerateTypeTreeTransferLb1EN4math12int3_storageEEvRK29SerializationCommandArgumentsR31RuntimeSerializationCommandInfo
_qe:__ZN5physx2Sc19ShapeInstancePairLL23postIslandGenSecondPassEv
nDe:__ZN14PhysicsManager23VirtualRedirectTransferER19StreamedBinaryWriteILb0EE
mua:__ZN9ShaderLab16SerializedTagMapaSERKS0_
L$:__ZN11UnityEngine15CloudWebService16SessionContainer20RestoreSessionHeaderERKN4core12basic_stringIcNS2_20StringStorageDefaultIcEEEES8_RNS0_13SessionHeaderE
Jae:__ZN5physx2Sq16BucketPrunerCore12updateObjectERKNS_9PxBounds3ERKNS0_13PrunerPayloadE
lqe:__ZN5physx18PxsDynamicsContext23atomIntegrationParallelEfPKPNS_11PxsBodyCoreEPKPNS_12PxsRigidBodyEjPKNS_2Cm13SpatialVectorEPNS_13PxcSolverBodyEPNS_17PxcSolverBodyDataEPSA_RjSI_RNS_10PxBaseTaskE
pL:__ZN11UnityEngine9Animation27CreateAvatarBindingConstantER9TransformPKN7mecanim9animation14AvatarConstantERNS3_6memory9AllocatorE
Wbl:__Z151RuntimeInvoker_RuntimeObject_Int32_t2950945753_RuntimeObject_ObjectU5BU5DU26_t712384779_RuntimeObject_RuntimeObject_RuntimeObject_ObjectU26_t2146539884PFvvEPK10MethodInfoPvPS4_
Jxc:__ZN9BlobWriteC2ER13dynamic_arrayIhLj16EE24TransferInstructionFlags19BuildTargetPlatform
VJf:_CanvasUpdateRegistry__ctor_m2005397069
V8:__ZN14MessageHandler3GetEv
l0f:_MonoMethodInfo_GetCallingConvention_m3156036493
ywh:_LayoutGroup_SetLayoutInputForAxis_m2458344630
Hd:_emscripten_glAttachShader
Ucm:__ZL62Selectable_t3250028441_CustomAttributesCacheGenerator_m_ColorsP21CustomAttributesCache
DNe:__ZN12TreeDatabase8TransferI14SafeBinaryReadEEvRT_
D4:__Z40DebugStringToFilePostprocessedStacktraceRK21DebugStringToFileData
LRf:_Image__cctor_m1927508576
Eua:__ZNSt3__26vectorIN4core12basic_stringIcNS1_20StringStorageDefaultIcEEEENS_9allocatorIS5_EEE6assignIPS5_EENS_9enable_ifIXaasr21__is_forward_iteratorIT_EE5valuesr16is_constructibleIS5_NS_15iterator_traitsISC_E9referenceEEE5valueEvE4typeESC_SC_
Ijd:__ZN5physx2Gu19GetRaycastFuncTableEv
p6g:_InternalEnumerator_1_get_Current_m3331252162_AdjustorThunk
uCb:__Z18Transfer_BlittableI14SafeBinaryReadLb0E11QuaternionfEvRK29SerializationCommandArgumentsR31RuntimeSerializationCommandInfo
Sqe:__ZN5physx17EdgeChangeManager23cleanupBrokenEdgeEventsEPKNS_4EdgeE
JPb:__Z18Transfer_BlittableI18StreamedBinaryReadILb0EELb1E12PropertyNameEvRK29SerializationCommandArgumentsR31RuntimeSerializationCommandInfo
k4:_tlsf_walk_heap
Lbl:__Z49RuntimeInvoker_Void_t1185182177_OpCode_t123070264PFvvEPK10MethodInfoPvPS4_
Gpd:__ZN5physx2Sc35ParticleElementRbElementInteraction7destroyEbj
Ybk:__ZN6il2cpp2vm7Runtime6InvokeEPK10MethodInfoPvPS5_PP15Il2CppException
_og:_Convert_ToUInt32_m3592050311
zb:invoke_vif
tij:_Component_GetComponents_TisRuntimeObject_m2416546752_gshared
Ab:invoke_vid
usm:__ZNSt3__212basic_stringIcNS_11char_traitsIcEENS_9allocatorIcEEE6insertEjPKc
Bb:invoke_vii
k$b:__ZNK12ImageFilters8DoRenderER17ShaderPassContextP13RenderTextureS3_RKNSt3__26vectorI11ImageFilterNS4_9allocatorIS6_EEEE
N3d:__ZN5physx13NpVolumeCacheD2Ev
jVa:__ZN12TLSAllocatorI14StackAllocatorE16ThreadInitializeEP13BaseAllocator
jdl:__Z82RuntimeInvoker_Boolean_t97287965_SByte_t1669577662_RuntimeObject_SByte_t1669577662PFvvEPK10MethodInfoPvPS4_
nza:__ZN9GfxDevice32UpdateStereoViewProjectionMatrixE21MonoOrStereoscopicEye
Nne:__ZThn8_N5physx2Sc35ParticleElementRbElementInteraction12onDeactivateEj
hOe:__Z14resize_trimmedINSt3__26vectorI14SplatPrototypeNS0_9allocatorIS2_EEEEEvRT_j
mbf:__Z41CanvasRenderer_CUSTOM_DisableRectClippingP12Il2CppObject
OCg:_MonoType_GetConstructorImpl_m441167626
Ede:__ZN5physx16PxsThreadContextC2EPNS_10PxsContextE
rMf:_DefaultControls_CreateRawImage_m4219873755
W7i:_Collection_1_IsFixedSize_m3709118201_gshared
uZa:__ZN25SingleBlockMemoryFileDataD0Ev
qVa:__ZNSt3__26vectorI14ConstantStringNS_9allocatorIS1_EEE6assignINS_11__wrap_iterIPS1_EEEENS_9enable_ifIXaasr21__is_forward_iteratorIT_EE5valuesr16is_constructibleIS1_NS_15iterator_traitsISA_E9referenceEEE5valueEvE4typeESA_SA_
$9c:__ZN5physx3Cct10Controller4moveERNS0_11SweptVolumeERKNS_6PxVec3EffRKNS_19PxControllerFiltersEPKNS_17PxObstacleContextEb
G$:__ZN11UnityEngine15CloudWebService16SessionContainer21ConvertFromFolderTimeERKN4core12basic_stringIcNS2_20StringStorageDefaultIcEEEEPjPt
eXd:__ZN5physx14NpRigidDynamic17setAngularDampingEf
fEb:__ZNSt3__26vectorI8GUIStyle13stl_allocatorIS1_L18MemLabelIdentifier1ELi16EEE7reserveEj
frk:__ZN6il2cpp6icalls8mscorlib6System9Threading6Thread27GetSerializedCurrentCultureEP12Il2CppThread
fZ:__Z32AudioSource_Get_Custom_PropPitchP12Il2CppObject
CRg:_Context_set_ReadSequenceNumber_m2154909392
PJg:_RijndaelTransform_SubByte_m3037693507
Afc:__Z31CalculateHierarchyTransformType23TransformAccessReadOnly
eic:__Z13RegisterClassI11TimeManagerEvv
EHj:_ExpressionCollection_Add_m41125344
lS:__ZN4FMOD8ChannelI11setPositionEjj
Kqg:_NumberFormatter_FastIntegerToString_m390846811
ITk:_Input_INTERNAL_CALL_GetTouch_m3481893561
Kzf:__ZN5physx2Sn18writeAllPropertiesINS_18PxVehicleDriveTankEEEvPKT_RNS_9XmlWriterERNS_12MemoryBufferERNS_12PxCollectionE
cGk:_GC_set_fl_marks
pwd:__ZN5physx6shdfnd8PoolBaseINS_2Sc12SimStateDataENS0_19ReflectionAllocatorIS3_EEE17releaseEmptySlabsEv
MQf:_Image__ctor_m2551076292
qza:__ZN9GfxDevice17SetStereoViewportE15StereoscopicEyeRK5RectTIiE
vpa:__ZN17BaseObjectManager13StaticDestroyEPv
UYj:_CanvasRenderer_INTERNAL_CALL_GetColor_m597074473
XNi:_UTF7Decoder_GetChars_m3413809261
Qdd:__ZN5physx2Gu22closestPtPointTriangleEPNS_6shdfnd3aos5Vec3VES4_S4_Rj
kGd:__ZN5physx2Cm8PtrTableC2Ev
t2k:_Vector3_get_forward_m3100859705
dR:__ZN4FMOD6Reverb13setPropertiesEPK22FMOD_REVERB_PROPERTIES
X0b:__ZN9DepthPass13PrepareSubsetEjRK10RenderNodeifRK17ShaderReplaceData
Oge:__ZN5physx16PxsBroadPhaseMBP6updateEjjRKNS_23PxcBroadPhaseUpdateDataEPNS_10PxBaseTaskE
_Jd:__ZN5physx9NpPhysics18createRigidDynamicERKNS_11PxTransformE
erd:__ZN5physx6shdfnd5ArrayIPvNS0_19ReflectionAllocatorINS_2Sc18TriggerInteractionEEEE15growAndPushBackERKS2_
rta:__ZN9ShaderLab20SerializedSubProgram16TextureParameter8TransferI14SafeBinaryReadEEvRT_
btc:__Z35SetMeshComponentFromArrayFromScriptR4Mesh30InternalScriptingShaderChannel34InternalScriptingVertexChannelTypei17ScriptingArrayPtri
uri:_Array_InternalArray__ICollection_Add_TisCustomAttributeNamedArgument_t287865710_m4157175270_gshared
ihd:__ZN5physx2Gu17intersectRayAABB2ERKNS_6shdfnd3aos5Vec3VES5_S5_S5_RKNS2_6FloatVERS6_S9_
ur:__ZN4core20StringStorageDefaultIcE6assignEPKcj
RVi:_UInt64_System_IConvertible_ToUInt64_m2135047981_AdjustorThunk
gLd:__ZNK5physx7NpShape17getSphereGeometryERNS_16PxSphereGeometryE
YKg:_BigInteger_ModPow_m3776562770
kjd:__ZL18intersectAnyVsMeshILi1EEbPKN5physx2Gu6SphereEPKNS1_7CapsuleEPKNS1_3BoxERKNS1_13RTreeMidphaseERKNS0_11PxTransformERKNS0_11PxMeshScaleEP14LimitedResults
Dxk:__ZN15dense_hashtableINSt3__24pairIK10KeyWrapperIP12Il2CppObjectEN6il2cpp2gc9CachedCCWEEES5_NS7_5utils11PointerHashIS3_EEN14dense_hash_mapIS5_S9_SD_NS5_14EqualsComparerINS0_8equal_toIS4_EEEENS0_9allocatorISA_EEE9SelectKeyESI_SK_E3endEv
Kmc:__ZN15SharedLightDataC2E10MemLabelId
$fg:_ArrayList_IndexOf_m305368842
xud:__ZN5physx6shdfnd5ArrayIPvNS0_15InlineAllocatorILj256ENS0_19ReflectionAllocatorINS_2Cm5BlockIhLj128EEEEEEEE15growAndPushBackERKS2_
Y9b:__ZN6Camera6SetFarEf
Sph:_FormatterConverter_ToBoolean_m1680758923
RJa:__ZN6prcoreL12RemapGenericI17TexFormatABGR888817TexFormatARGB8888EEvPKNS_9InnerInfoE
q_a:__ZN11GameManager17MainThreadCleanupEv
Clj:_ReadOnlyCollection_1__ctor_m1345363288_gshared
Ucf:__Z50Register_UnityEngine_UISystemProfilerApi_EndSamplev
hMj:_GUI_INTERNAL_CALL_DoLabel_m2007226197
iSe:__ZN12TreeRenderer21ComputeWindPropertiesEib
ALe:__Z52Register_UnityEngine_Rigidbody_INTERNAL_get_rotationv
hSc:__ZN14ParticleSystem10ResetSeedsEv
Sqh:_SerializationCallbacks_GetSerializationCallbacks_m2939476649
KNd:__ZNK5physx7NpCloth24getParticleAccelerationsEPNS_6PxVec4E
Cjg:_Hashtable__cctor_m4112166779
D$e:_UNITY_tt_slot_init
eZb:__ZZ23InitPlayerLoopCallbacksvEN41PostLateUpdateUpdateResolutionRegistrator7ForwardEv
uRb:__Z25scripting_array_class_get17ScriptingClassPtrj
PMc:__ZL22Transfer_ManagedObjectI9JSONWriteLb1EEvRK29SerializationCommandArgumentsR31RuntimeSerializationCommandInfo
iO:__ZNK10SampleClip22GetTypeVirtualInternalEv
zAa:__ZN9GfxDevice20DestroyRenderSurfaceER12ObjectHandleI17RenderSurface_TagP17RenderSurfaceBaseE
Hlg:_Stack__ctor_m2602729586
GTa:__ZN9GfxDevice22UpdateComputeResourcesEjPK9TextureIDPK16TextureDimensionPKijPKjjPK15ComputeBufferIDS7_PK20ComputeBufferCounterjSC_S2_S5_S9_SF_
wba:__ZN12_GLOBAL__N_15qAsinEff
B8g:_Comparer_1__cctor_m3470905005_gshared
VZg:_InternalEnumerator_1_System_Collections_IEnumerator_get_Current_m2629988057_AdjustorThunk
kVa:__ZN12TLSAllocatorI14StackAllocatorE13ThreadCleanupEv
EWi:_ValueType_InternalEquals_m1384040357
LDk:__ZThn4_N6il2cpp2vm13ComObjectBase16MarshalInterfaceEP13Il2CppIStreamRK10Il2CppGuidPvjS7_j
tng:_Convert_ToDouble_m996590115
gUb:__Z27FindActiveTransformWithPathPKc
Mpj:_ReadOnlyCollection_1_System_Collections_IList_Remove_m4169110229_gshared
qUi:_UInt16_ToString_m3020002356
z$d:__ZN5physx16PxsIslandManager14setEdgeRigidCMERKNS_20PxsIslandManagerHookIjLj4294967295EEEPNS_17PxsContactManagerE
Wwh:_LayoutRebuilder_LayoutComplete_m68578143
C9a:__ZN7Texture5ResetEv
mbi:_SHA1Internal_Initialize_m499810128
nve:__ZN5physx2Gu11HeightField7releaseEv
R5:__ZNK6Camera7GetNearEv
HXf:_GenericTypeParameterBuilder_GetConstructorImpl_m863833310
MMa:__ZN7ApiGLES11UnmapBufferEjN2gl12BufferTargetE
ZDk:__ZN6il2cpp5utilsL24Utf32CharToSurrogatePairEjRA2_Ds
yfb:__Z25GetNextAllowedTextureSizeib13TextureFormat
_Tb:__ZN20LocalFileSystemWebGL4CopyER13FileEntryDataS1_
pNe:__ZN11TerrainData23VirtualRedirectTransferER18StreamedBinaryReadILb0EE
j2:__ZN19CloudServiceHandler6RetainEv
smj:_ReadOnlyCollection_1_System_Collections_IList_IndexOf_m198887188_gshared
zIc:__Z36Event_CUSTOM_Internal_SetNativeEventPv
nNi:_UTF32Encoding_GetBytes_m3180303867
eda:__ZN12BaseRenderer20FlattenToRenderQueueER15RenderNodeQueueRK20DeprecatedSourceData
one:__ZN5physx2Sc8ClothSim23addCollisionHeightfieldEPKNS0_8ShapeSimE
_nj:_ReadOnlyCollection_1_System_Collections_IList_Clear_m2007013334_gshared
Owb:__Z34scripting_liveness_calculation_endPv
xzk:__ZN6il2cpp2os6ThreadC2Ev
T$i:_List_1_set_Capacity_m725662605_gshared
n$h:_DateTimeOffset_get_UtcDateTime_m1021718282_AdjustorThunk
ZC:__ZN21AnimationClipPlayable22ProcessAnimationNoClipEPK35AnimationPlayableEvaluationConstantPK32AnimationPlayableEvaluationInputP33AnimationPlayableEvaluationOutput
gNh:_HybridDictionary_get_Count_m1166314536
GBj:_TlsStream_Write_m1412844442
pOc:__Z18Transfer_BlittableI8JSONReadLb0E8Vector3fEvRK29SerializationCommandArgumentsR31RuntimeSerializationCommandInfo
Hy:__ZN13AnimationClip12Vector3Curve8TransferI14SafeBinaryReadEEvRT_
xpk:__ZN6il2cpp2vm6Thread6DetachEP12Il2CppThread
hCj:_GeneralNames_get_DNSNames_m3788548987
y2e:_Render_Single_Pass
snd:__GLOBAL__sub_I_runtime_dynamics_2_cpp
xim:__ZL55WheelEffects_t1559845116_CustomAttributesCacheGeneratorP21CustomAttributesCache
Frf:__ZNK5physx22PxVehicleWheelsSimData11getTireDataEj
vL:__ZN7mecanim8skeleton30SkeletonBuildReverseIndexArrayEPiPKiPKNS0_8SkeletonES6_
uGc:__Z19GetGUIBlendMaterialv
rBg:_Math_Round_m3018379666
mAk:__ZN6il2cpp2os10ThreadImpl5SleepEjb
d4j:__ZN14dense_hash_mapI10KeyWrapperIPKcEP11Il2CppClassN6il2cpp5utils11StringUtils12StringHasherIS2_EENS3_14EqualsComparerINS7_13VmStringUtils21CaseSensitiveComparerEEENSt3__29allocatorINSF_4pairIKS3_S5_EEEEE15set_deleted_keyERSI_
umj:_ReadOnlyCollection_1_System_Collections_IList_Remove_m1965826685_gshared
age:__ZN5physx14SapPairManager12shrinkMemoryEv
p2h:_Delegate_CreateDelegate_m1051651521
Bze:__ZN5physx6shdfnd8internal7median3IjKNS_19SortBoundsPredicateEEEvPT_iiRT0_
Vmi:_PlayableHandle_IsPlayableOfType_TisRuntimeObject_m503495943_AdjustorThunk
ss:__ZN18AnimatorController23VirtualRedirectTransferER24GenerateTypeTreeTransfer
jyf:__ZN5physx18RepXPropertyFilterINS_2Sn17RepXVisitorWriterINS_27PxVehicleDifferentialNWDataEEEEclILj550ES3_jjEEvRKNS_14PxPropertyInfoIXT_ET0_T1_T2_EEj
HAm:_glBindSampler__wrapper
h_a:__ZNSt3__26vectorIN20ArchiveStorageHeader12StorageBlockE13stl_allocatorIS2_L18MemLabelIdentifier55ELi16EEE8__appendEj
og:_emscripten_set_mouseup_callback
bsa:__Z14resize_trimmedINSt3__26vectorIN9ShaderLab14SerializedPassENS0_9allocatorIS3_EEEEEvRT_j
YUk:_Mathf_Clamp_m3350697880
wdl:__Z165RuntimeInvoker_Void_t1185182177_UInt32U26_t3735378166_Int32_t2950945753_UInt32U26_t3735378166_Int32_t2950945753_Int32_t2950945753_Int32_t2950945753_Int32_t2950945753PFvvEPK10MethodInfoPvPS4_
MIi:_List_1_System_Collections_IList_Remove_m3140917266_gshared
oHj:_CompositeExpression__ctor_m2434860303
r3g:_InternalEnumerator_1_get_Current_m2112392701_AdjustorThunk
l2d:__ZN5physx7NpScene22removeBroadPhaseRegionEj
xrd:__ZL34GeomOverlapCallback_CapsuleCapsuleRKN5physx10PxGeometryERKNS_11PxTransformES2_S5_PNS_2Gu12TriggerCacheE
Ybc:__ZNK18ScreenManagerWebGL8GetWidthEv
t1d:__ZNK5physx7NpScene23getFilterShaderDataSizeEv
fO:__ZN10SampleClipD2Ev
svj:_Predicate_1_Invoke_m2389850270_gshared
hwb:__Z13GetGISettingsv
V1:__ZN11UnityEngine15CloudWebService20WebRequestRestClientC2Ev
WWe:_cff_cmap_unicode_init
Vki:_Array_InternalArray__ICollection_Contains_TisRuntimeObject_m4067783231_gshared
w6i:_Collection_1_IsValidItem_m3080586124_gshared
Lia:__ZNSt3__26__treeI19RepeatingLogMessageNS_4lessIS1_EE13stl_allocatorIS1_L18MemLabelIdentifier73ELi16EEE4findIS1_EENS_15__tree_iteratorIS1_PNS_11__tree_nodeIS1_PvEEiEERKT_
vKf:_ClipperRegistry_Register_m2407166513
Vqm:_readlink
Rik:__ZN15dense_hashtableINSt3__24pairIK10KeyWrapperINS1_IPK9EventInfoP11Il2CppClassEEEjEES9_17ReflectionMapHashIS8_EN14dense_hash_mapIS9_jSD_NS9_14EqualsComparerINS0_8equal_toIS8_EEEENS0_9allocatorISB_EEE9SelectKeyESI_SK_E12resize_deltaEjj
g0f:_MonoCMethod_Invoke_m2700167622
ykg:_KeyMarker__cctor_m2590194914
qUc:__ZN14ParticleSystem38UpdateModulesPostSimulationIncrementalER24ParticleSystemUpdateDataR23ParticleSystemParticlesjRKf
O9g:_Enumerator_Reset_m627751027_AdjustorThunk
KWi:_Version__ctor_m872301635
Oob:__ZNK6Sprite9GetBoundsE8Vector2fbb
G1a:__ZNK19RenderEventsContext21CleanupCommandBuffersEv
dBf:__ZN5physx15PxVehicleUpdate13updateNoDriveEfRKNS_6PxVec3EffRKNS_43PxVehicleDrivableSurfaceToTireFrictionPairsEPNS_16PxVehicleNoDriveEPNS_25PxVehicleWheelQueryResultEPNS_29PxVehicleConcurrentUpdateDataE
xt:__ZN7mecanim12statemachine13StateConstant8TransferI14SafeBinaryReadEEvRT_
tEa:__ZN11ContextGLES6CreateEi
Kid:__ZN5physx6shdfnd5ArrayINS_10PxTriangleENS0_19ReflectionAllocatorIS2_EEE15growAndPushBackERKS2_
aZi:_List_1_set_Capacity_m3382070520_gshared
uvh:_U3CMouseDragOutsideRectU3Ec__Iterator1_Dispose_m267465418
n1h:_Decimal_CompareTo_m3502307243_AdjustorThunk
xQb:__Z19TransferField_ArrayI18StreamedBinaryReadILb0EE27Converter_SimpleNativeClassI17AnimationCurveTplIfEEEvRK23StaticTransferFieldInfoR31RuntimeSerializationCommandInfoRT0_
NUa:__ZN14StackAllocator16FrameMaintenanceEb
aed:__ZL11SweepBoxBoxPKN5physx3Cct9SweepTestEPKNS0_11SweptVolumeEPKNS0_11TouchedGeomERKNS_14PxExtendedVec3ERKNS_6PxVec3ERNS0_12SweptContactE
_Wa:__Z18ReadStringFromFilePN4core17string_with_labelILi1EEERKNS_12basic_stringIcNS_20StringStorageDefaultIcEEEE
Wzh:_Scrollbar_get_value_m760470106
W5:__ZNK10GameObject20QueryComponentByTypeEPKN5Unity4TypeE
C0h:_Decimal_System_IConvertible_ToInt32_m1488426794_AdjustorThunk
VBg:_MonoCustomAttrs_IsUserCattrProvider_m2878058089
tbm:__ZL71InputField_t3762917431_CustomAttributesCacheGenerator_m_HideMobileInputP21CustomAttributesCache
Keb:__ZN11TextureData5ResetEv
Szc:__Z53Register_UnityEngine_GameObject_get_activeInHierarchyv
Oci:_ToBase64Transform_InternalTransformFinalBlock_m360524956
f8f:_ActivationContext_Dispose_m2038725770
l8:__ZL30InitializeCoreScriptingClassesv
lh:_glBlitFramebuffer
p7d:__ZNK5physx2Sc5Scene17prefetchForRemoveERKNS0_10StaticCoreE
RGi:_Enumerator_System_Collections_IEnumerator_get_Current_m3594024719_gshared
UFb:__Z35Transfer_Blittable_SingleValueFieldI14SafeBinaryReadhEvRT_R17GeneralMonoObjectRK23StaticTransferFieldInfo
Ygf:__ZN22BaseUnityConnectClientC2ERN11UnityEngine7Connect20BasePersistentValuesE
zsi:_Array_InternalArray__ICollection_CopyTo_TisInt64_t3736567304_m2845057751_gshared
Pdb:__ZNK12CubemapArray22GetTypeVirtualInternalEv
v7a:__ZN11Tetrahedron8TransferI18StreamedBinaryReadILb0EEEEvRT_
Lo:FUNCTION_TABLE_vif
Mo:FUNCTION_TABLE_vid
No:FUNCTION_TABLE_vii
Zwb:__Z40scripting_liveness_calculation_from_root18ScriptingObjectPtrPv
$1c:__ZN13InitialModuleD2Ev
Lab:__ZN7Texture23VirtualRedirectTransferER24GenerateTypeTreeTransfer
z4e:_UNITY_FT_Set_Transform
Gwk:__ZN6il2cpp8metadata15GenericMetadata20RegisterGenericClassEP18Il2CppGenericClass
kAm:_glDeleteFramebuffers__wrapper
T9k:__Z220RuntimeInvoker_Boolean_t97287965_RuntimeObject_Int32U26_t1369213839_Int32_t2950945753_Int32_t2950945753_Int32_t2950945753_RuntimeObject_SByte_t1669577662_Int32_t2950945753_ContractionU26_t961830454_ContextU26_t3937453398PFvvEPK10MethodInfoPvPS4_
nAc:__Z36Register_UnityEngine_RectOffset_Initv
cVe:_cff_blend_build_vector
AQh:_WebHeaderCollection_ToString_m1263025316
Ilc:__ZZN12MeshRenderer15InitializeClassEvEN29FunctorImpl_134kDidDeleteMesh4CallEPviR11MessageData
o2f:_GetterAdapter_Invoke_m3767885970
c_i:_List_1__ctor_m747758800_gshared
$ii:_String_CreateString_m2818852475
Vgb:__ZN28EnlightenRendererInformation8TransferI14SafeBinaryReadEEvRT_
qZj:_CanvasRenderer_get_hasMoved_m2236392341
QGd:__ZN5physx12NpBatchQuery13getUserMemoryEv
GWk:_MessageEvent__ctor_m1231650089
Gra:__ZNK15Lz4Decompressor16DecompressMemoryEPKvPjPvS2_
VZe:_UNITY_tt_face_build_cmaps
xVi:_UInt64_System_IConvertible_ToDecimal_m806594027
$gc:__ZN4core8hash_mapINS_12basic_stringIcNS_20StringStorageDefaultIcEEEE10vector_setI4PPtrI11SpriteAtlasENSt3__24lessIS8_EE13stl_allocatorIS8_L18MemLabelIdentifier81ELi16EEENS_4hashIS4_EENS9_8equal_toIS4_EEEixERKS4_
Lcb:__Z35UnityPropertySheet_MakeSortedColorsRKNSt3__23mapIN9ShaderLab16FastPropertyNameE10ColorRGBAfNS_4lessIS2_EENS_9allocatorINS_4pairIKS2_S3_EEEEEER10vector_mapIS2_S3_S5_NS6_INS7_IS2_S3_EEEEE
pZe:_UNITY_tt_face_load_os2
hle:__ZN5physx2GuL34fullContactsGenerationSphereConvexERKNS0_8CapsuleVERKNS0_11ConvexHullVERKNS_6shdfnd3aos12PsTransformVESB_PNS0_17PersistentContactERjRNS0_13ContactBufferEbRNS0_25PersistentContactManifoldERNS8_5Vec3VERKNS8_6FloatVEb
lud:__ZN5physx6shdfnd8PoolBaseINS_2Sc19ConstraintGroupNodeENS0_19ReflectionAllocatorIS3_EEE17releaseEmptySlabsEv
mFb:__Z29Transfer_Blittable_ArrayFieldI14SafeBinaryRead8Vector4fEvRT_R9ArrayInfoRK23StaticTransferFieldInfo
AJe:__ZNSt3__27__sort4IRNS_6__lessI24InterpolationDepthHandleS2_EEPS2_EEjT0_S6_S6_S6_T_
XUf:_ModuleBuilder_RegisterToken_m4166846047
XYb:__ZZ23InitPlayerLoopCallbacksvEN51PostLateUpdateUpdateCustomRenderTexturesRegistrator7ForwardEv
dzh:_RawImage_OnPopulateMesh_m1115858855
gvj:_Predicate_1_Invoke_m2887746805_gshared
c9j:__ZN6il2cpp2vm13MetadataCache25GetStringLiteralFromIndexEi
G8f:_Hashtable_ToPrime_m33531354
vD:__ZN7mecanim9animation12EvaluateClipEPKNS0_4ClipEPKNS0_9ClipInputEPNS0_10ClipMemoryEPNS0_10ClipOutputE
Ucj:_Collection_1_IsSynchronized_m1117613618_gshared
mmd:__ZN5physx3Cct9SweepTest15onObstacleAddedEjPKNS_17PxObstacleContextERKNS_6PxVec3ES7_f
vTi:_TypeInitializationException__ctor_m3546444694
Evc:__ZNK9Transform16GetLocalRotationEv
x1:__ZN11UnityEngine15CloudWebService23WebRequestUploadHandler17ConsumeUploadDataEj
epl:__Z68RuntimeInvoker_Void_t1185182177_Single_t1397266774_SByte_t1669577662PFvvEPK10MethodInfoPvPS4_
Rxg:_MemoryStream_set_Position_m3169779190
Q8b:__ZN13RenderManager29SetCurrentCameraAndStackStateEP6CameraP25CameraStackRenderingState
gFf:_ExecuteEvents_get_scrollHandler_m2659345019
d0a:__ZNSt3__26__treeINS_12__value_typeIjN4core12basic_stringIcNS2_20StringStorageDefaultIcEEEEEENS_19__map_value_compareIjS7_NS_4lessIjEELb1EEE13stl_allocatorIS7_L18MemLabelIdentifier7ELi16EEE7destroyEPNS_11__tree_nodeIS7_PvEE
ipk:__ZN15dense_hashtableINSt3__24pairIK10KeyWrapperINS1_IP11Il2CppClassjEEES4_EES6_N6il2cpp8metadata14ArrayClassHashEN14dense_hash_mapIS6_S4_SB_NS6_14EqualsComparerINSA_17ArrayClassCompareEEENS0_9allocatorIS8_EEE9SelectKeyESF_SH_E12resize_deltaEjj
Ai:_JS_WebRequest_Release
f0:__ZN11UnityEngine15CloudWebService14DataErrorEventD0Ev
atk:__ZN6il2cpp6icalls8mscorlib6System4Type20internal_from_handleEi
Lcg:_Boolean_System_IConvertible_ToUInt16_m3465173538_AdjustorThunk
k1c:__ZN14EmissionModule5ResetEv
Wkm:_StandaloneInput_SetAxisPositive_m3047996072
cjh:_Context__ctor_m254302079
Hbe:__ZN5physx13PxsCCDContext12postCCDSweepEPNS_10PxBaseTaskE
Cwk:__ZN6il2cpp8metadata15GenericMetadata7InflateEPK19Il2CppGenericMethodPK20Il2CppGenericContext
kgb:__ZN19ShaderPropertySheet16SetArrayPropertyEN9ShaderLab16FastPropertyNameENS_12PropertyTypeEPKvj
EAh:_Selectable_FindSelectable_m2348614027
TNf:_DropdownItem_OnPointerEnter_m1492957598
hAe:__ZN5physx6shdfnd10Foundation19AlignCheckAllocator28deregisterAllocationListenerERNS_20PxAllocationListenerE
XHc:__ZN8GUIState8EndOnGUIEv
K$e:_UNITY_TT_Get_VMetrics
Vde:__ZN5physx33solveContactCoulombBlockWriteBackEPKNS_23PxcSolverConstraintDescEjRNS_16PxcSolverContextEPNS_25PxcThresholdStreamElementEjPi
phg:_SimpleEnumerator__cctor_m2844299657
fBg:_LocalDataStoreSlot__ctor_m4104083971
dqj:_ReadOnlyCollection_1_System_Collections_Generic_IListU3CTU3E_RemoveAt_m3849058645_gshared
vRj:_AudioSource_ReadExtensionName_m725112169
hEj:_X509CertificateEnumerator_System_Collections_IEnumerator_Reset_m2039524926
Ile:__ZN5physx9PxTaskMgr17submitUnnamedTaskERNS_6PxTaskENS_10PxTaskType4EnumE
Fgl:__Z128RuntimeInvoker_Void_t1185182177_RuntimeObject_BooleanU26_t4125257963_SByte_t1669577662_Int32U26_t1369213839_Int32U26_t1369213839PFvvEPK10MethodInfoPvPS4_
kHa:__ZN7Texture21GetMasterTextureLimitEv
Fac:__Z12CanAddScriptR10GameObject17ScriptingClassPtrPS1_S2_
Rlk:__ZN6il2cpp2vm10Reflection12HasAttributeEP12Il2CppObjectP11Il2CppClass
Ysj:_Comparison_1_BeginInvoke_m3263247262_gshared
zja:__ZN9ShaderLabL25StaticInitializeShaderLabEPv
HCe:__ZN12MeshCollider23VirtualRedirectTransferER24GenerateTypeTreeTransfer
A9d:__ZNK5physx2Sq12BucketPruner5sweepERKNS0_9ShapeDataERKNS_6PxVec3ERfRNS0_14PrunerCallbackE
U:Math_max
jem:__ZL64HorizontalLayoutGroup_t2586782146_CustomAttributesCacheGeneratorP21CustomAttributesCache
rmk:_il2cpp_class_get_methods
iSc:__ZN14ParticleSystem33UpdateLocalToWorldMatrixAndScalesERK9Transformb
D0k:_HitInfo_SendMessage_m1343099429_AdjustorThunk
_Hb:__Z18Transfer_BlittableI24GenerateTypeTreeTransferLb0EN4math12int2_storageEEvRK29SerializationCommandArgumentsR31RuntimeSerializationCommandInfo
V2h:_StackTrace_get_trace_m1194606084
Agi:_Single_CompareTo_m2785801815_AdjustorThunk
Fzk:__ZN6il2cpp2os6Thread16GetCurrentThreadEv
pui:_Array_InternalArray__Insert_TisUILineInfo_t4195266810_m3191124053_gshared
Unc:__ZN10GameObject13ComponentPair15SetComponentPtrEPN5Unity9ComponentE
Dym:_glBlitFramebuffer__wrapper
nIe:__ZN5physx6shdfnd8internal8HashBaseINS0_4PairIKPKNS0_14NamedAllocatorEPKcEES6_NS0_4HashIS6_EENS1_11HashMapBaseIS6_S9_SC_NS0_20NonTrackingAllocatorEE6GetKeyESE_Lb1EE15reserveInternalEj
Thc:__Z13RegisterClassI10MeshFilterEvv
e2k:_Transform_INTERNAL_set_position_m3627767375
j0a:__ZN10TagManager8TransferI19StreamedBinaryWriteILb0EEEEvRT_
swb:__ZN11PreloadData23VirtualRedirectTransferER18StreamedBinaryReadILb0EE
hYk:_PropertyNameUtils_PropertyNameFromString_Injected_m1259736140
veg:_Char_System_IConvertible_ToDateTime_m3564102661
Lqa:__ZNK13TrailRenderer22GetTypeVirtualInternalEv
Oib:__ZN6Sprite17MainThreadCleanupEv
Nym:_glBlendFuncSeparate__wrapper
ST:__ZN10AudioMixer14UpdateMuteSoloEv
sJd:__ZN5physx6shdfnd5ArrayINS_3Scb13MaterialEventENS0_19ReflectionAllocatorIS3_EEE15growAndPushBackERKS3_
w$a:__ZN9Transform35SetLocalPositionWithoutNotificationERKN4math7_float3Ey
mgl:__Z69RuntimeInvoker_UInt64_t4134040092_Int32_t2950945753_SByte_t1669577662PFvvEPK10MethodInfoPvPS4_
Bj:_JS_Eval_ClearTimeout
eEm:_glDepthFunc__wrapper
Fzh:_Raycast2DCallback_Invoke_m1500574149
WLa:__ZN7ApiGLES16SetPatchVerticesEi
Vlb:__ZN13CameraLODData9AddAtBackEhf
awd:__ZN5physx2Sc5Scene11onBodySleepEPNS0_7BodySimE
wBk:__ZN6il2cpp2gc16GarbageCollector16InvokeFinalizersEv
Edg:_Byte_System_IConvertible_ToInt64_m285584218_AdjustorThunk
UZk:_Rect_get_size_m477575021_AdjustorThunk
T0j:__ZN6il2cpp2vm5Class20FromGenericParameterEPK22Il2CppGenericParameter
Dpi:_Array_IndexOf_TisVector3_t3722313464_m4284163268_gshared
Kad:__ZL28GeomMTDCallback_PlaneCapsuleRN5physx6PxVec3ERfRKNS_10PxGeometryERKNS_11PxTransformES5_S8_
Noa:__ZN15GlobalCallbacksC2Ev
wri:_Array_InternalArray__ICollection_Add_TisLabelData_t360167391_m1648183135_gshared
S8g:_Comparer_1_System_Collections_IComparer_Compare_m2016223770_gshared
gLi:_Encoding_GetBytes_m3823106599
Dfl:__Z74RuntimeInvoker_DateTime_t3738529785_DateTime_t3738529785_Int32_t2950945753PFvvEPK10MethodInfoPvPS4_
O5e:_UNITY_FT_New_Memory_Face
z9i:_Collection_1_System_Collections_IList_IndexOf_m3271188411_gshared
dQg:_Context_Clear_m2678836033
S3e:__ZN20TextRenderingPrivate21TextMeshGeneratorImpl5FlushEv
Dxg:_MonoIO_GetFileStat_m678141354
xMf:__Z15CastclassSealedP12Il2CppObjectP11Il2CppClass
BOe:__ZN14DetailDatabase8TransferI18StreamedBinaryReadILb0EEEEvRT_
PJd:__ZN5physx9NpPhysics16createConvexMeshERNS_13PxInputStreamE
c1h:_Decimal_IsZero_m4250358244_AdjustorThunk
TAg:_UnmanagedMemoryStream_get_CanRead_m3770815400
x9b:__ZN16ReflectionProbes40UpdateRealtimeReflectionProbesTimeslicedEv
U0h:_Decimal_u64_m3374804932
nvd:__ZN5physx2Sq17SceneQueryManager8addShapeERKNS_7NpShapeERKNS_12PxRigidActorEbPNS_9PxBounds3E
OTi:_UInt16_System_IConvertible_ToInt32_m1950778303_AdjustorThunk
Htb:__ZNK30RuntimeInitializeOnLoadManager22GetTypeVirtualInternalEv
n6j:__ZN15dense_hashtableINSt3__24pairIK10KeyWrapperIN6il2cpp5utils13dynamic_arrayIPK10Il2CppTypeLj4EEEEPFvvEEESA_NS3_8metadata19Il2CppSignatureHashEN14dense_hash_mapISA_SD_SG_NSA_14EqualsComparerINSF_22Il2CppSignatureCompareEEENS0_9allocatorISE_EEE9SelectKeyESK_SM_E12resize_deltaEjj
Pkc:__ZN16ReflectionProbes15InitializeClassEv
Xnj:_ReadOnlyCollection_1_System_Collections_ICollection_CopyTo_m2527663815_gshared
Zhj:_Dictionary_2_Do_ICollectionCopyTo_TisKeyValuePair_2_t3699644050_m4159638770_gshared
Duk:__ZN6il2cpp2vm5Image9GetCorlibEv
n4k:_Vector3_get_left_m2428419009
yI:__ZN8Animator13BatchedFKPassERK13dynamic_arrayIP14PlayableOutputLj4EE
Cde:__ZNK5physx2Gu29EPASupportMapPairRelativeImplINS0_8CapsuleVES2_E9doSupportERKNS_6shdfnd3aos5Vec3VERS6_S9_S9_
VEf:_ExecuteEvents_Execute_m113814934
ila:__ZN13RuntimeStaticINSt3__23mapIN4core12basic_stringIcNS2_20StringStorageDefaultIcEEEES6_NS0_4lessIS6_EE13stl_allocatorINS0_4pairIKS6_S6_EEL18MemLabelIdentifier13ELi16EEEELb0EE13StaticDestroyEPv
Gfj:_Array_qsort_TisColor32_t2600501292_m1362211604_gshared
sze:__ZN5physx10SubSortSAH5sort4EPjjRNS_6shdfnd5ArrayINS_11RTreeNodeNQENS2_19ReflectionAllocatorIS4_EEEERjjPS4_
Y8g:_Enumerator_System_Collections_IEnumerator_get_Current_m2979767597_AdjustorThunk
kJg:_MD5CryptoServiceProvider_ProcessFinalBlock_m2241588515
OBh:_ScrollRect_GetBounds_m449872505
Ak:_glIsVertexArray
q7f:_SmallXmlParser_Read_m3485223434
oqg:_Int16_Parse_m2276856944
ga:invoke_fff
Kqm:_mbsinit
nxm:b14
wHe:__ZN5physx2Sc7PhysicsC2ERKNS_17PxTolerancesScaleERKNS_14PxvOffsetTableE
wJe:__ZNSt3__26__sortIRNS_6__lessI24InterpolationDepthHandleS2_EEPS2_EEvT0_S6_T_
k7e:__ZN2UI6Canvas17MainThreadCleanupEv
Cpb:__ZNSt3__26vectorI14SubstanceInputNS_9allocatorIS1_EEE6assignINS_11__wrap_iterIPS1_EEEENS_9enable_ifIXaasr21__is_forward_iteratorIT_EE5valuesr16is_constructibleIS1_NS_15iterator_traitsISA_E9referenceEEE5valueEvE4typeESA_SA_
zJa:__ZN6prcoreL12RemapGenericI17TexFormatARGB155517TexFormatRGBA8888EEvPKNS_9InnerInfoE
z3j:__ZN13Il2CppHashMapIPK19Il2CppGenericMethodPK26Il2CppGenericMethodIndicesN6il2cpp8metadata23Il2CppGenericMethodHashENS7_26Il2CppGenericMethodCompareENSt3__29allocatorINSA_4pairIK10KeyWrapperIS2_ES5_EEEEEC2EjRKS8_RKS9_
B_f:_TypeBuilder_HasElementTypeImpl_m1871001960
Ffi:_SecurityFrame__ctor_m2140076703_AdjustorThunk
Pyi:_DefaultComparer_Equals_m2458578172_gshared
yNa:__ZN7ApiGLES13CreateProgramEv
kxm:b11
W9g:_Enumerator_VerifyState_m4003066746_gshared
zHa:__ZN4crnd12crn_unpackerD2Ev
Ok:_emscripten_glTexImage2D
M7g:_Comparer_1_System_Collections_IComparer_Compare_m2537217645_gshared
$7:__ZN18ScriptingArguments9AddStringEPKc
lHk:_setup_header
Qqa:__ZN13TrailRenderer23VirtualRedirectTransferER14SafeBinaryRead
Bde:__ZNK5physx2Gu29EPASupportMapPairRelativeImplINS0_8CapsuleVES2_E18doWarmStartSupportEiiRNS_6shdfnd3aos5Vec3VES7_S7_
TJh:_CryptoConvert_ToCapiKeyBlob_m3371450375
HIa:__ZL23stbir__resize_arbitraryPvPKviiiS_iiiffffPfiij14stbir_datatype12stbir_filterS4_10stbir_edgeS5_16stbir_colorspace
dSc:__ZN23ParticleSystemParticles13array_reserveEj
sIb:__Z18Transfer_BlittableI24GenerateTypeTreeTransferLb1E8Vector4fEvRK29SerializationCommandArgumentsR31RuntimeSerializationCommandInfo
rxm:b18
sSc:__ZNK24OptimizedPolynomialCurve26FindMinMaxDoubleIntegratedEv
Zk:_pthread_detach
t9j:__ZN6il2cpp2vm19SocketPollingThread7RunLoopEv
zOf:_FontUpdateTracker_UntrackText_m1981515690
K8d:__ZN5physx11EdgeManager6resizeEj
Toc:__ZN15DirectorManager20ScheduleGraphDestroyERK14HPlayableGraph
kRb:__ZNSt3__213__stable_sortIRN10vector_mapI17ScriptingClassPtrPKN5Unity4TypeENS_4lessIS2_EENS_9allocatorINS_4pairIS2_S6_EEEEE13value_compareENS_11__wrap_iterIPSB_EEEEvT0_SJ_T_NS_15iterator_traitsISJ_E15difference_typeEPNSM_10value_typeEi
CGh:_SimpleCollator_FillSurrogateSortKeyRaw_m725998232
kOe:__ZNSt3__26vectorI14SplatPrototypeNS_9allocatorIS1_EEE8__appendEj
r0i:_List_1_AddEnumerable_m1284696147_gshared
NPh:_IPAddress_Equals_m1823478787
Vjh:_Context_CreateNewContext_m3053563976
fva:__ZN9ShaderLab25SerializedTextureProperty8TransferI24GenerateTypeTreeTransferEEvRT_
iQe:__ZN7Terrain10FlushDirtyEv
dLb:__Z18Transfer_BlittableI19StreamedBinaryWriteILb0EELb0EdEvRK29SerializationCommandArgumentsR31RuntimeSerializationCommandInfo
DXd:__ZN5physx2Sc5Scene12removeStaticERNS0_10StaticCoreERNS_6shdfnd11InlineArrayIPKNS0_9ShapeCoreELj64ENS4_19ReflectionAllocatorIS8_EEEEb
iva:__ZN11NamedObject8TransferI18StreamedBinaryReadILb0EEEEvRT_
JRk:_InvokableCall_remove_Delegate_m1376110510
mVh:_Capture_get_Value_m3919646039
Vjg:_Hashtable_Clear_m3112193608
ZNi:_UTF8Encoding_InternalGetByteCount_m771565606
nPc:__Z18Transfer_BlittableI8JSONReadLb1EyEvRK29SerializationCommandArgumentsR31RuntimeSerializationCommandInfo
uXi:_List_1_System_Collections_IList_Remove_m3654336679_gshared
wWl:__ZL51GUILayer_t2783472903_CustomAttributesCacheGeneratorP21CustomAttributesCache
ul:_emscripten_glMatrixMode
qyh:_MaskableGraphic_UnityEngine_UI_IClippable_get_gameObject_m1739855597
hB:__ZN8Animator23VirtualRedirectTransferER18StreamedBinaryReadILb0EE
b9h:_Guid__ctor_m3562600567_AdjustorThunk
y2:__ZN19CloudServiceHandler19StopEventDispatcherEv
ive:__ZN5physx13GuMeshFactory17createHeightFieldERNS_13PxInputStreamE
M_d:__ZN5physx2Sc10NPhaseCore25createShapeInstancePairLLERNS0_8ShapeSimES3_NS_7PxFlagsINS_10PxPairFlag4EnumEtEE
Jjf:__ZN13WheelCollider16CheckConsistencyEv
A$:__ZN11UnityEngine15CloudWebService14DataDispatcher16PrepareDataBlockERNS0_16SessionContainerE
gSa:__ZN18GfxFramebufferGLES5ClearE13GfxClearFlagsRK10ColorRGBAffib
R$d:__ZThn8_N5physx2Sc19ShapeInstancePairLL12onDeactivateEj
fuf:__ZNK5physx40PxVehicleDifferential4WDataGeneratedInfo23visitInstancePropertiesINS_18RepXPropertyFilterINS_2Sn17RepXVisitorReaderINS_27PxVehicleDifferential4WDataEEEEEEEjT_j
erh:_ObjectManager_DoFixups_m3038765937
pWi:_UIntPtr_ToString_m984583492_AdjustorThunk
OPb:__ZL26Transfer_SimpleNativeClassI18StreamedBinaryReadILb0EE10RectOffsetLb0EEvRK29SerializationCommandArgumentsR31RuntimeSerializationCommandInfo
I0g:_InternalEnumerator_1_get_Current_m2316281569_gshared
G0b:__ZL12DepthPassJobPN21GfxDeviceAsyncCommand10ArgScratchEPKNS_3ArgE
tta:__ZNSt3__26vectorIN9ShaderLab20SerializedSubProgram16TextureParameterENS_9allocatorIS3_EEE6assignINS_11__wrap_iterIPS3_EEEENS_9enable_ifIXaasr21__is_forward_iteratorIT_EE5valuesr16is_constructibleIS3_NS_15iterator_traitsISC_E9referenceEEE5valueEvE4typeESC_SC_
IKc:__ZN5Unity9rapidjson6WriterI16TempBufferWriterNS0_4UTF8IcEES4_13JSONAllocatorE11WriteDoubleEd
UAe:__ZN9Rigidbody16ApplyConstraintsEv
FPi:_Thread_SetCachedCurrentUICulture_m1729523031
ibf:__Z55Register_UnityEngine_CanvasGroup_get_ignoreParentGroupsv
ric:__Z13RegisterClassI19LowerResBlitTextureEvv
bQg:_ClientContext_set_ClientHelloProtocol_m4189379912
wZc:__ZN11MinMaxCurve5ResetE23ParticleSystemCurveModef
Bn:FUNCTION_TABLE_iiiiiiiiiiii
cSc:__ZNK14ParticleSystem27CalculateMaxActiveParticlesEv
V$i:_List_1_get_Item_m1686506901_gshared
tTd:__ZN5physx2Sc17ParticleSystemSim8setFlagsEj
z2a:__ZN16GraphicsSettingsD0Ev
n:cttz_i8
SUe:_UNITY_FT_GlyphLoader_Add
kye:__ZN5physx2Gu15EdgeListBuilder18CreateEdgesToFacesEjPKjPKt
vid:__ZN5physx11PxMeshQuery5sweepERKNS_6PxVec3EfRKNS_10PxGeometryERKNS_11PxTransformEjPKNS_10PxTriangleERNS_10PxSweepHitENS_7PxFlagsINS_9PxHitFlag4EnumEtEEPKjfb
EBf:__Z23RegisterModule_Vehiclesv
RRj:_AudioListener_INTERNAL_CALL_ReadExtensionPropertyName_m330480156
Gpb:__ZN14SubstanceInput22CopyFromSubstanceInputERKS_
Kog:_Convert_ToUInt16_m867476252
rm:_emscripten_glViewport
yDk:__ZN6il2cpp6icalls8mscorlib6System15MonoCustomAttrs17IsDefinedInternalEP12Il2CppObjectP20Il2CppReflectionType
gbe:__ZN5physx6shdfnd5ArrayIPhNS0_19ReflectionAllocatorIS2_EEE8recreateEj
A_j:_SkeletonBone_t4134054672_marshal_pinvoke_back
oWe:_cff_parse_font_bbox
DDe:__ZThn28_N14PhysicsManagerD0Ev
Jjd:__Z14raycast_sphereRKN5physx10PxGeometryERKNS_11PxTransformERKNS_6PxVec3ES8_fNS_7PxFlagsINS_9PxHitFlag4EnumEtEEjPNS_12PxRaycastHitEbPFbRSD_PvESG_
Yrb:__ZN14PlayerSettings23VirtualRedirectTransferER18StreamedBinaryReadILb0EE
l3h:_Double_System_IConvertible_ToDateTime_m2414543049_AdjustorThunk
Cdf:__ZN11UnityEngine15PlatformWrapper16GetVRFieldOfViewEv
K3h:_Double_CompareTo_m3151899116
qMk:__ZN6il2cpp2os5Event5ResetEv
T5b:__Z26CombineDepthNormalsTextureRK17RenderLoopContextR13dynamic_arrayI16RenderObjectDataLj4EE
IZe:_tt_name_ascii_from_other
rQj:_ToggleGroup__ctor_m3308114662
nwk:__ZN6il2cpp8metadata15GenericMetadata17InflateParametersEPK13ParameterInfohPK20Il2CppGenericContextb
w0a:__ZN6Camera13AwakeFromLoadE17AwakeFromLoadMode
ahj:_Array_Sort_TisUILineInfo_t4195266810_m3737783007_gshared
tXk:_PlayableAsset_Internal_CreatePlayable_m2550417712
pE:__ZNK17AnimationPlayable27GetNextCompatibleDescendantEi
sj:_emscripten_glPixelStorei
PBj:_TlsStream_Write_m188217214
hjl:__Z50RuntimeInvoker_Ray_t3785851493_Vector3_t3722313464PFvvEPK10MethodInfoPvPS4_
NUb:__Z25SetNeedToPerformRenderingb
G$c:__ZN12LightsModule8TransferI17RemapPPtrTransferEEvRT_
EVi:_UInt64_System_IConvertible_ToInt32_m949522652_AdjustorThunk
J_a:__ZN10GameObjectD2Ev
V0b:__ZN14qsort_internal30FindAndMovePivotToLastPositionIP15RODataDepthPassi17ROSorterDepthPassEEvT_S4_T0_T1_
w3c:__ZN29InitialModulePropertyBindings13GetFloatValueERK14ParticleSystemi
Ece:__ZN5physxL27PxcSweepAnyShapeHeightfieldERKNS_11PxsCCDShapeES2_PKNS_12PxsRigidBodyES5_RKNS_11PxTransformES8_fRNS_6PxVec3ESA_RNS_10PxcNpCacheERNS_18PxcNpThreadContextE
G8b:__ZN12CullingGroup10SendEventsEPK17CullingGroupEventj
vGf:_PointerInputModule__ctor_m3728889932
g5:__ZThn32_NK8Renderer8GetLayerEv
Qsc:__ZNK4Mesh17GetPrimitiveCountEv
sqi:_Array_InternalArray__IndexOf_TisUInt64_t4134040092_m1206929132_gshared
K7d:__ZN5physx3Scb5SceneD2Ev
qGi:_Enumerator_System_Collections_IEnumerator_Reset_m2915500989_gshared
tWe:_cff_parse_vsindex
Aqg:_Int32_ValidDigit_m1059003769
cDm:_emscripten_glTexParameterfv__wrapper
ewh:_LayoutGroup_get_rectTransform_m442863741
BCb:__Z18Transfer_BlittableI14SafeBinaryReadLb1E9BoundsIntEvRK29SerializationCommandArgumentsR31RuntimeSerializationCommandInfo
xym:b63
ink:_il2cpp_method_get_param_count
Zuc:__ZN10systeminfo19ISOToSystemLanguageERN4core12basic_stringIcNS0_20StringStorageDefaultIcEEEE
Bik:__ZNK15dense_hashtableINSt3__24pairIK10KeyWrapperINS1_IPK12PropertyInfoP11Il2CppClassEEEjEES9_17ReflectionMapHashIS8_EN14dense_hash_mapIS9_jSD_NS9_14EqualsComparerINS0_8equal_toIS8_EEEENS0_9allocatorISB_EEE9SelectKeyESI_SK_E3endEv
cBe:__Z16GetDynamicsScenev
L1e:_ps_dimension_done
pxb:__ZN12ScriptMapperD0Ev
Tlm:_AeroplaneController_set_AirBrakes_m3742686053
P3h:_Double_Parse_m4153729520
Vyj:_IndexedSet_1_AddUnique_m861843892_gshared
Epb:__ZN14SubstanceInputD2Ev
Agb:__ZN16LightmapSettings8TransferI14SafeBinaryReadEEvRT_
Gya:__ZN17BufferManagerGLES13ReleaseBufferEP14DataBufferGLES
aPg:_CipherSuite_Write_m1172814058
tsd:__ZN5physx6shdfnd5ArrayIPvNS0_19ReflectionAllocatorINS_16NpConnectorArrayEEEE15growAndPushBackERKS2_
cAg:_SynchronizedWriter_Write_m301917713
ria:__ZN9profiling6MarkerC2EPKc13ProfilerGroupNS0_5FlagsE
UZd:__ZN5physx2Sc5Scene15prepareSimulateEv
kPc:__Z18Transfer_BlittableI8JSONReadLb1EjEvRK29SerializationCommandArgumentsR31RuntimeSerializationCommandInfo
Ztd:__ZN5physx6shdfnd5ArrayIPNS_2Sc11InteractionENS0_19ReflectionAllocatorIS4_EEE8recreateEj
$Uf:_ConstructorBuilder_get_IsCompilerContext_m3364441562
a0j:_Rigidbody_get_angularVelocity_m191123884
psj:_ReadOnlyCollection_1_System_Collections_Generic_IListU3CTU3E_RemoveAt_m4037795630_gshared
Odl:__Z117RuntimeInvoker_Void_t1185182177_RuntimeObject_Int32_t2950945753_Int32_t2950945753_Int32_t2950945753_Int32_t2950945753PFvvEPK10MethodInfoPvPS4_
pJf:_U3COnFinishSubmitU3Ec__Iterator0_Reset_m3632769946
oq:stackSave
e2e:_ps_dimension_end
CFc:__Z41Register_UnityEngine_Mesh_Internal_Createv
lwk:__ZNK15dense_hashtableI10KeyWrapperIP18Il2CppGenericClassES3_N6il2cpp8metadata22Il2CppGenericClassHashEN14dense_hash_setIS3_S6_NS3_14EqualsComparerINS5_25Il2CppGenericClassCompareEEENSt3__29allocatorIS3_EEE8IdentityESA_SD_E12test_deletedERK30dense_hashtable_const_iteratorIS3_S3_S6_SF_SA_SD_E
W1j:__ZN6il2cpp2vm5Class14GetNestedTypesEP11Il2CppClassPPv
pLe:__Z63Register_UnityEngine_Physics_INTERNAL_CALL_Internal_RaycastTestv
cmg:_Console_Open_m3077673205
dac:__ZN6Camera9SetAspectEf
Upi:_Array_InternalArray__IndexOf_TisDateTime_t3738529785_m2463359116_gshared
Ca:invoke_viiffiii
V$c:__ZN8UVModule8TransferI18StreamedBinaryReadILb0EEEEvRT_
EEm:_emscripten_glBindVertexArray__wrapper
aKj:_Parser_IsECMAScript_m674158805
E$a:__ZN9Transform37InitializeTransformHierarchyRecursiveER18TransformHierarchyRii
WRa:__ZN26SinglePassStereoSupportExt23SetupStereoMatrixParamsE21MonoOrStereoscopicEye24BuiltinShaderMatrixParamRK10Matrix4x4f
W7c:__ZN14ParticleSystem22UpdateAllTransformDataEv
mQh:_ServicePointManager_get_CertificatePolicy_m1966679142
Fqm:_fscanf
zif:__ZNK25UnityWebRequestJavaScript16GetUploadedBytesEv
$Y:__Z46AudioListener_CUSTOM_GetNumExtensionPropertiesP12Il2CppObject
Eak:__ZN6il2cpp6icalls8mscorlib6SystemL16CheckMemberMatchI9FieldInfoNS_5utils10functional6FilterINSt3__212basic_stringIcNS8_11char_traitsIcEENS8_9allocatorIcEEEENS5_13VmStringUtils23CaseInsensitiveComparerEEEEEbPKT_PK11Il2CppClassSN_iRKT0_
d3c:__ZN27ColorModulePropertyBindings13AddPropertiesER10vector_mapIi22ParticleModulePropertyNSt3__24lessIiEENS2_9allocatorINS2_4pairIiS1_EEEEE
MUg:_SslClientStream_Finalize_m1251363641
RSe:__ZZN4Tree15InitializeClassEvEN30FunctorImpl_61kBecameInvisible4CallEPviR11MessageData
BQe:__ZN15TerrainRenderer26CreateQuadTreeNodeRendererER12QuadTreeNodeRK10Matrix4x4fP8MaterialRKNS_22QuadTreeNodeParametersE
fqi:_Array_InternalArray__IndexOf_TisMonoResource_t4103430009_m1351751258_gshared
Hsb:__ZN10VRSettings8TransferI19StreamedBinaryWriteILb0EEEEvRT_
ZYd:__ZN5physx2Sc9StaticSim21postActor2WorldChangeEv
I5h:_FieldAccessException__ctor_m3583219052
W4c:__ZL16ParticleGeomInitILb0EEvRK31ParticleSystemParticlesTempDatajRN4math8floatNx3ERK23ParticleSystemParticlesS5_S5_RKNS3_7_float4EPKfSB_SD_SB_RKNS3_5_int4EbSB_
tEc:__Z57Register_UnityEngine_Transform_INTERNAL_set_localPositionv
KCa:__ZN13GfxDeviceGLES26SetRandomWriteTargetBufferEi15ComputeBufferID
aBc:__Z38Register_UnityEngine_Input_GetButtonUpv
jgj:_Array_Resize_TisUICharInfo_t75501106_m3903846016_gshared
LYb:__ZZ23InitPlayerLoopCallbacksvEN49EarlyUpdateResetFrameStatsAfterPresentRegistrator7ForwardEv
_Ed:__ZN5physx6shdfnd4sortIPvNS0_4LessIS2_EENS0_19ReflectionAllocatorINS_2Cm5BlockIhLj256EEEEEEEvPT_jRKT0_RKT1_j
frm:_poll
cpj:_ReadOnlyCollection_1_System_Collections_IEnumerable_GetEnumerator_m1671097018_gshared
cWi:_UInt64_ToString_m1529093114_AdjustorThunk
gdm:__ZL85Selectable_t3250028441_CustomAttributesCacheGenerator_Selectable_IsPressed_m907486548P21CustomAttributesCache
q5f:_TypeLibImportClassAttribute__ctor_m2302178978
kHh:_Escape_t3294788190_marshal_pinvoke
Auh:_InputField_OnUpdateSelected_m1118869681
Zve:__ZN5physx20InternalTriangleMesh7releaseEv
jbe:__ZN5physx6shdfnd5ArrayINS_16PxsCCDBlockArrayINS_13PxsCCDOverlapELi128EE9BlockInfoENS0_19ReflectionAllocatorIS5_EEE15growAndPushBackERKS5_
mvd:__ZNK5physx7NpShape8getFlagsEv
JHa:__ZN4crnd12crn_unpacker11unpack_dxt1EPPhjjj
Fuc:__ZNK11ICallString6ToUTF8Ev
Z0j:__ZN15dense_hashtableINSt3__24pairIK10KeyWrapperIPK22Il2CppGenericParameterEP11Il2CppClassEES6_N6il2cpp5utils11PointerHashIS4_EEN14dense_hash_mapIS6_S9_SE_NS6_14EqualsComparerINS0_8equal_toIS5_EEEENS0_9allocatorISA_EEE9SelectKeyESJ_SL_E15insert_noresizeERKSA_
Cch:_Transform_1_Invoke_m2468053724_gshared
W0b:__ZNSt3__211__sift_downIR17ROSorterDepthPassP15RODataDepthPassEEvT0_S5_T_NS_15iterator_traitsIS5_E15difference_typeES5_
icb:__ZN18UnityPropertySheet11UnityTexEnvC2Ev
_8f:_ArgumentException__ctor_m3200406061
TI:__ZN8Animator17ApplyOnAnimatorIKEiRNS_11AnimatorJobE
Saa:__ZN12FileAccessor4ReadEyyPvPy
N1i:_List_1_set_Capacity_m2777925136_gshared
VRe:__ZN22ForwardLinearAllocatorD2Ev
Iuc:__Z21GetSceneHierarchyPathPK6Object
DBf:__Z13RegisterClassI13WheelColliderEvv
Pqf:__Z37setPxVehicleWheelsSimData_ChassisMassPN5physx22PxVehicleWheelsSimDataEf
G9b:__ZN13RenderTexture9SetHeightEi
GC:__ZN7mecanim9animation17ClearMotionOutputEPNS0_18AnimationNodeStateE
OPg:_CipherSuiteCollection_get_IsFixedSize_m3127823890
t6g:_InternalEnumerator_1_System_Collections_IEnumerator_get_Current_m3537550566_gshared
Vzh:_Scrollbar_UpdateVisuals_m2492252165
vrk:__ZN6il2cpp6icalls8mscorlib6System2IO6MonoIO17GetFileAttributesEP12Il2CppStringPi
BIg:_HMACMD5__ctor_m3008609295
e_h:_DateTime__ParseAmPm_m3478436123
K_h:_DateTime_ToString_m2992030064_AdjustorThunk
B_e:_tt_cmap8_char_index
A8:__Z24scripting_class_get_name17ScriptingClassPtr
Nyg:_Stream_WriteByte_m1519852120
QQj:_VerticalLayoutGroup_CalculateLayoutInputHorizontal_m1404590745
Sla:__ZN13RuntimeStaticI15GUIEventManagerLb0EE13StaticDestroyEPv
HCg:_ShortComparer_Compare_m1881262465
sEb:__Z29Transfer_Blittable_ArrayFieldI14SafeBinaryReadjEvRT_R9ArrayInfoRK23StaticTransferFieldInfo
Ne:_emscripten_set_keydown_callback
GKi:_EncoderReplacementFallback__ctor_m1483565116
zWh:_Interpreter_IsWordChar_m2858055765
pZc:__ZN18ColorBySpeedModule8TransferI14SafeBinaryReadEEvRT_
_aa:__ZN12FileAccessorC2Ev
Rzd:__ZN5physx2Sc15ArticulationSim12applyImpulseERNS0_8BodyCoreERKNS_9PxcFsDataERKNS_6PxVec3ES9_
fhi:_String_System_IConvertible_ToDouble_m3740733360
$Vc:__Z15UpdateRandomTplIL27ParticleSystemCurveEvalMode0EEvRK11MinMaxCurveS3_S3_R5RandNR23ParticleSystemParticlesjjRKN4math8float3x3ERKNS8_7_float4E
KG:__ZThn152_NK26AnimatorControllerPlayable25GetStateMachineBehavioursEv
Qyj:_EventFunction_1_Invoke_m2429482587_gshared
vEf:_EventTrigger_OnDeselect_m1919608102
Y7c:__ZN14ParticleSystem16AssignRayBudgetsEv
fRh:_AsnEncodedData_SubjectAltName_m4049949414
Y6:__ZN14StackAllocator10ReallocateEPvji
Tbk:__ZN6il2cpp2vm7Runtime12GetConfigDirEv
L2c:__ZN16CustomDataModuleD2Ev
QFi:_Enumerator_MoveNext_m1177880931_AdjustorThunk
kzd:__ZNK5physx14NpArticulation26getInternalDriveIterationsEv
vDh:_Slider_UpdateVisuals_m3662961057
bYj:_TextGenerator_Populate_m194003733
cWf:_DerivedType_get_FullName_m1025358827
HGg:_CryptoConfig_MapNameToOID_m2044758263
hZc:__ZN14VelocityModule8TransferI14SafeBinaryReadEEvRT_
xbm:__ZL70InputField_t3762917431_CustomAttributesCacheGenerator_m_OnValueChangedP21CustomAttributesCache
bTb:__Z39WriteQueueForTransferSignatureIntoCacheRK31TransferFunctionScriptingTraitsRK24TransferRequestSignature17ScriptingClassPtrR23CachedSerializationDataRb
SLi:_Encoding_get_UTF8UnmarkedUnsafe_m320312322
OPi:_Thread_Thread_free_internal_m333849022
pu:__ZN18AnimatorController19TransferRuntimeDataI18StreamedBinaryReadILb0EEEEvRT_
mFj:_CostDelegate_BeginInvoke_m2828452701
fdf:__ZN22BaseUnityConnectClient30OnEnteringStatePausedOrStoppedEv
wbj:_Collection_1_ConvertItem_m1556170494_gshared
UC:__ZN7mecanim5human12HumanPoseAddERNS0_9HumanPoseERKS1_S4_
EYh:_DateTime_ToUniversalTime_m1945318289
ogg:_ArrayList_ToArray_m3827492363
L5c:__Z20UpdateWholeSheet2TplIL27ParticleSystemCurveEvalMode2ELS0_2EEvfRK11MinMaxCurveS3_RK23ParticleSystemParticlesPf
NDh:_Slider_get_stepSize_m1423227661
ZVi:_UInt64_Parse_m819899889
sci:_SymmetricAlgorithm_set_IV_m3196220308
uYf:_GenericTypeParameterBuilder_GetHashCode_m852224381
Wog:_Convert_ToUInt32_m1453583008
D6h:_CompareInfo_Compare_m894311506
m$a:__Z24MergeTransformComponentsR9TransformS0_b
G5j:__ZNK15dense_hashtableI10KeyWrapperIPK19Il2CppGenericMethodES4_N6il2cpp8metadata23Il2CppGenericMethodHashEN14dense_hash_setIS4_S7_NS4_14EqualsComparerINS6_26Il2CppGenericMethodCompareEEENSt3__29allocatorIS4_EEE8IdentityESB_SE_E10test_emptyEj
F6g:_InternalEnumerator_1_System_Collections_IEnumerator_get_Current_m3982010935_AdjustorThunk
Rud:__ZThn24_N5physx2Sc20ArticulationJointSimD0Ev
eDf:_EventSystem_UpdateModules_m3643806022
lEe:__ZN14PhysicsManager32AddToTriggerStayStatesIfRequiredEPK9Rigidbody
d_j:_AnimationOffsetPlayable__cctor_m1029460816
Xod:__ZN5physx14PxsAABBManager12createBPElemEv
MLd:__ZThn12_N5physx7NpShape14onRefCountZeroEv
Xad:__ZL26GeomMTDCallback_ConvexMeshRN5physx6PxVec3ERfRKNS_10PxGeometryERKNS_11PxTransformES5_S8_
ADk:__ZN6il2cpp2vm13ComObjectBase19GetRuntimeClassNameEPP15Il2CppHString__
yk:_emscripten_glVertexAttribPointer
g4a:__ZNK20IntermediateRenderer12GetSceneMaskEv
QVb:__ZN14PreloadManager26UpdatePreloadingSingleStepENS_21UpdatePreloadingFlagsEi
bSe:__ZNK15TerrainRenderer27CreateSharedMeshDataPatchesER13dynamic_arrayIP14SharedMeshDataLj4EERK4AABB
BCh:_ScrollRect_SetLayoutHorizontal_m3078869633
mre:__ZN18ScBeforeSolverTask11runInternalEv
Mkf:__ZNK5physx22PxVehicleWheelsSimData23getSceneQueryFilterDataEj
$Fh:_SimpleCollator__ctor_m1587210019
qCc:__Z57Register_UnityEngine_RectTransform_INTERNAL_set_anchorMinv
zrd:__ZL33GeomOverlapCallback_CapsuleConvexRKN5physx10PxGeometryERKNS_11PxTransformES2_S5_PNS_2Gu12TriggerCacheE
Sog:_Convert_ToUInt16_m1480956416
gJa:__ZN6prcoreL25inner_stretch_i8_bilinearEPKNS_9InnerInfoE
Gwb:__ZL30RegisterFilteredObjectCallbackPP12Il2CppObjectiPv
Nrj:_ReadOnlyCollection_1_System_Collections_Generic_IListU3CTU3E_RemoveAt_m3317217538_gshared
g3l:__ZL54AudioSource_t3935305588_CustomAttributesCacheGeneratorP21CustomAttributesCache
gWb:__Z19InitializeGfxDevicev
W$:__ZN11UnityEngine15CloudWebService16SessionContainer24GetSessionHeaderJsonDataERKN4core12basic_stringIcNS2_20StringStorageDefaultIcEEEERNS2_13StringBuilderE
HVf:_DerivedType_GetEvent_m4157575360
Ela:__ZN13RuntimeStaticI21AssetReferenceStorageLb0EE13StaticDestroyEPv
ewe:__ZN5physx20InternalTriangleMesh9loadRTreeERNS_13PxInputStreamEj
yej:_Array_InternalArray__set_Item_TisKeyValuePair_2_t2530217319_m258011711_gshared
mpl:__Z72RuntimeInvoker_Bounds_t2266837910_RuntimeObject_Matrix4x4U26_t3606180965PFvvEPK10MethodInfoPvPS4_
ozk:__ZN6il2cpp6icalls8mscorlib6System9AppDomain22InternalGetProcessGuidEP12Il2CppString
x9i:_Collection_1_System_Collections_IList_Contains_m3397768605_gshared
$Td:__ZN5physx2Sc18ParticleSystemCore16releaseParticlesEv
xjd:__ZN5physx2Gu20intersectTriangleBoxERKNS_6shdfnd3aos5Vec3VES5_S5_S5_S5_
C7k:__Z48RuntimeInvoker_RuntimeObject_Decimal_t2948259380PFvvEPK10MethodInfoPvPS4_
IXa:__ZNK17FileSystemHandler10IsReadOnlyERK13FileEntryData
eYh:_DateTime__cctor_m1880035693
PIb:__Z18Transfer_BlittableI24GenerateTypeTreeTransferLb1EjEvRK29SerializationCommandArgumentsR31RuntimeSerializationCommandInfo
Nmf:__ZN5physx16PxVehicleNoDrive14setBrakeTorqueEjf
hof:__Z49setPxVehicleWheelsDynData_TireForceShaderFunctionPN5physx22PxVehicleWheelsDynDataEPFvPKvffffffffffffRfS4_S4_S4_E
X0j:__ZN6il2cpp2os12FastAutoLockD2Ev
Gga:__ZN11ColorRGBA328TransferI14SafeBinaryReadEEvRT_
IWe:_cff_vstore_done
TGe:__ZN5physx6shdfnd5ArrayIPvNS0_19ReflectionAllocatorINS_24NpPtrTableStorageManager8PtrBlockILi4EEEEEE15growAndPushBackERKS2_
dil:__Z68RuntimeInvoker_Void_t1185182177_UInt16_t2177724958_SByte_t1669577662PFvvEPK10MethodInfoPvPS4_
PZg:_InternalEnumerator_1_get_Current_m3008260692_AdjustorThunk
_Ig:_MACTripleDES_HashFinal_m3613553534
tVi:_UInt64_System_IConvertible_ToChar_m2074245892
DIa:__Z11IsHDRFormat13TextureFormat
bOi:_UTF8Encoding_InternalGetBytes_m1965760031
qg:_emscripten_glClearDepth
$mc:__ZNK8GUILayer22GetTypeVirtualInternalEv
Ghb:__ZN14SafeBinaryRead21TransferSTLStyleArrayINSt3__26vectorIN15QualitySettings14QualitySettingENS1_9allocatorIS4_EEEEEEvRT_17TransferMetaFlags
$Ie:__Z13RegisterClassI12MeshColliderEvv
Sdm:__ZL80CanvasScaler_t2767979955_CustomAttributesCacheGenerator_m_ReferencePixelsPerUnitP21CustomAttributesCache
wrb:__ZNSt3__26vectorINS_4pairIPKN5Unity4TypeE7Hash128EENS_9allocatorIS7_EEE8__appendEj
LWe:_cff_font_load
Gkm:_MobileInput_SetButtonUp_m157564634
Uzk:__GLOBAL__sub_I_LibraryLoader_cpp
Svc:__Z13IsPathCreatedRKN4core12basic_stringIcNS_20StringStorageDefaultIcEEEE
Zee:__ZN5physx35solveContactPreBlock_ConcludeStaticEPKNS_23PxcSolverConstraintDescEjRNS_16PxcSolverContextE
NIa:__ZL22stbir__encode_scanlineP11stbir__infoiPvPfiii
C4f:_ExternalException__ctor_m2877839282
fMe:__ZN20QuadTreeNodeRenderer13StaticDestroyEPv
S0:__ZN11UnityEngine15CloudWebService20WebRequestRestClient5AbortEv
mIj:_Regex_Matches_m2080913806
pjc:__ZN9Transform12CleanupClassEv
L0k:_Sprite_get_rect_m2575211689
Ntd:__ZN5physx6shdfnd5ArrayIPvNS0_15InlineAllocatorILj256ENS0_19ReflectionAllocatorINS_2Cm5BlockIS2_Lj32EEEEEEEE15growAndPushBackERKS2_
mqe:__ZN5physx18PxsSolverStartTask13setupDescTaskEv
R5e:_UNITY_FT_Set_Pixel_Sizes
hSf:_OperatingSystem_Clone_m1122165140
nkj:_GameObject_AddComponent_TisRuntimeObject_m3469369570_gshared
oua:__ZNSt3__26vectorIN9ShaderLab19SerializedSubShaderENS_9allocatorIS2_EEE26__swap_out_circular_bufferERNS_14__split_bufferIS2_RS4_EE
xI:__ZN11UnityEngine9Animation33SetGenericTransformPropertyValuesERKNS0_30AnimatorGenericBindingConstantERKN7mecanim10ValueArrayEP9Transformy
vz:__ZN11UnityEngine9Animation28AnimationClipBindingConstant8TransferI24GenerateTypeTreeTransferEEvRT_
x9c:__ZN5physx3Cct13BoxController6resizeEf
RZi:_List_1_RemoveAll_m3165362277_gshared
wSi:_Type_type_is_subtype_of_m1406623598
Sre:__ZN5physx6shdfnd5ArrayINS_2Cm12DelegateTaskINS_2Sc5SceneEXadL_ZNS5_19updateCCDSinglePassEPNS_10PxBaseTaskEEEEENS0_19ReflectionAllocatorIS8_EEE8recreateEj
COi:_Thread_get_CurrentThread_m4142136012
H4a:__Z30ProcessDynamicBatchGeometryJobP25DynamicVBOGeometryJobDataj
q1b:__ZNSt3__27__sort4IRNS_6__lessI11CulledLightS2_EEPS2_EEjT0_S6_S6_S6_T_
Gdk:__ZN6il2cpp2vm14TypeNameParser26ParseArrayModifierOptionalEv
v7:__Z26scripting_object_get_class18ScriptingObjectPtr
Njf:__ZN13WheelCollider23VirtualRedirectTransferER19StreamedBinaryWriteILb0EE
hub:__ZNSt3__26vectorIN4core12basic_stringIcNS1_20StringStorageDefaultIcEEEE13stl_allocatorIS5_L18MemLabelIdentifier13ELi16EEE7reserveEj
OFd:__ZN5physx34NpShapeGetScRigidObjectFromScbSLOWERKNS_3Scb5ShapeE
PHg:_DSASignatureDeformatter__ctor_m2889130126
Uic:__ZNK28MonoBehaviourPropertyBinding15GenerateBindingERKN4core12basic_stringIcNS0_20StringStorageDefaultIcEEEEbRN11UnityEngine9Animation14GenericBindingE
e$k:_RectTransform_INTERNAL_set_pivot_m1160676233
N2i:_List_1_set_Item_m35836043_gshared
eUh:_X509ChainElementCollection__ctor_m3424079155
uFj:_LinkStack_Push_m3081279930
pTe:__ZN15TerrainCollider23VirtualRedirectTransferER14SafeBinaryRead
Wpb:__ZN14SubstanceValue8TransferI18StreamedBinaryReadILb0EEEEvRT_
fbh:_Enumerator_MoveNext_m1107569389_gshared
fmm:_AeroplaneController_Immobilize_m1054376446
Fxd:__ZNK5physx21PxsBodyTransformVault12getTransformERKNS_11PxsBodyCoreE
iAf:__Z32getPxVehicleDrive4WMDriveSimDataPKN5physx16PxVehicleDrive4WE
iVk:_Matrix4x4_GetHashCode_m4034747639_AdjustorThunk
F3f:_ResourceCacheItem_t51292791_marshal_pinvoke_cleanup
M4:__ZNK5Unity9Component7GetNameEv
sbd:__ZN44ConvexVsHeightfieldContactGenerationCallback7onEventEjPj
jQk:_Native__cctor_m1435623442
c1i:_List_1_System_Collections_IList_Remove_m1070694895_gshared
bNj:_LayoutCache__ctor_m3885940174
LJ:__ZN7mecanim8skeleton26SkeletonPoseComputeGlobalQEPKNS0_8SkeletonEPKNS0_13SkeletonPoseTIN4math4trsXEEEPS7_ii
sVi:_UInt64_System_IConvertible_ToByte_m1501504925_AdjustorThunk
WXj:_TextGenerator_Invalidate_m1072346986
s4c:__ZN14ParticleSystem40OnTrailGeometryJobsScheduledRenderThreadERK8JobFence
ASg:_TlsClientHello_ProcessAsTls1_m2549285167
Gxl:__Z74RuntimeInvoker_Boolean_t97287965_UIVertex_t4057497605_UIVertex_t4057497605PFvvEPK10MethodInfoPvPS4_
dde:__ZN5physx2Gu19_gjkRelativeRayCastINS0_9TriangleVENS0_8CapsuleVEEEbRT_RT0_RKNS_6shdfnd3aos15PsMatTransformVERKNS9_6FloatVERKNS9_5Vec3VESI_RSD_RSG_SK_f
iBh:_ScrollRect_set_decelerationRate_m723367336
Q0c:__ZN13TriggerModule8TransferI19StreamedBinaryWriteILb0EEEEvRT_
lJ:__ZN9BlobWrite8TransferI22OffsetPtrArrayTransferIiEEEvRT_PKc17TransferMetaFlags
jki:_EncoderExceptionFallback_Equals_m2760188920
oyd:__ZN5physx6shdfnd5ArrayIPvNS0_15InlineAllocatorILj256ENS0_19ReflectionAllocatorINS_11NpAggregateEEEEEE15growAndPushBackERKS2_
KS:__ZN4FMOD6System7releaseEv
d9d:__ZN5physx6shdfnd8PoolBaseINS_2Sc18TriggerInteractionENS0_19ReflectionAllocatorIS3_EEE15disposeElementsEv
Scg:_Boolean_CompareTo_m3665076258
Ahi:_String_Split_m3580120853
nLh:_PrivateKeyInfo__ctor_m2811023496
vaa:__Z18PathToAbsolutePathRKN4core12basic_stringIcNS_20StringStorageDefaultIcEEEE
ZNj:_GUILayoutUtility_LayoutFromEditorWindow_m2914699782
Zw:__ZN13AnimationClip23VirtualRedirectTransferER17RemapPPtrTransfer
nbd:__ZL31PointInConvexPolygon2D_OutCodesPKfjffffRh
pIa:__ZL13BlitImageImplR14ImageReferenceiiRKS_NS_10ColorSpaceENS_8BlitModeEb
Zoc:__ZN15DirectorManager17AcquireOutputNodeEv
SWc:__ZL15AccumulateNoiseILb1ELi1EEN4math8floatNx2ERKNS0_8floatNx3ERKfiS6_S6_
yKa:__ZN6prcoreL17RemapGenericFloatI18TexFormatRGBAFloat17TexFormatRGBFloatEEvPKNS_9InnerInfoE
qkj:_GameObject_GetComponentInChildren_TisRuntimeObject_m1310240902_gshared
IKe:__ZN9Rigidbody12MoveRotationERK11Quaternionf
q$l:__ZL69PersistentCall_t3407714124_CustomAttributesCacheGenerator_m_ArgumentsP21CustomAttributesCache
lRa:__ZN16GeometryJobTasks20ScheduleGeometryJobsER9GfxDevicePFvP15GeometryJobDataEPK22GeometryJobInstructionjb
PQ:__ZN12AudioManager29ShutdownReinitializeAndReloadEv
u8a:__ZN16ReflectionProbes28GetMinBakedCubemapResolutionEv
ate:__ZN5physx2Cm12DelegateTaskINS_2Sc5SceneEXadL_ZNS3_15postNarrowPhaseEPNS_10PxBaseTaskEEEE11runInternalEv
cJe:__Z20ConvertContactToMonoP9Collision
IYc:__ZN17RemapPPtrTransfer8TransferI22ParticleSystemRendererEEvRT_PKc17TransferMetaFlags
KCk:__GLOBAL__sub_I_String_cpp
W0j:__ZN15dense_hashtableINSt3__24pairIK10KeyWrapperIPK22Il2CppGenericParameterEP11Il2CppClassEES6_N6il2cpp5utils11PointerHashIS4_EEN14dense_hash_mapIS6_S9_SE_NS6_14EqualsComparerINS0_8equal_toIS5_EEEENS0_9allocatorISA_EEE9SelectKeyESJ_SL_E6insertERKSA_
SAf:__ZN5physx50solveDriveNWInternalDynamicsEnginePlusDrivenWheelsERKNS_19ImplicitSolverInputEPNS_20ImplicitSolverOutputE
Juh:_InputField_GenerateCaret_m1459647218
OUl:__ZL49Camera_t4157153871_CustomAttributesCacheGeneratorP21CustomAttributesCache
YCj:_X509CertificateEnumerator__ctor_m85694331
kEa:__ZN14DataBufferGLES16RecreateWithDataEjPKv
pca:__Z29GetGlobalAllowNameConversionsv
mbd:__ZL17transformVerticesRfS_S_S_PfjPKN5physx6PxVec3EPKhRKNS1_7PxMat33E
bIe:__ZNK5physx2Gu15HeightFieldUtil31getFaceIndexAtShapePointNoTest2Ejff
nti:_Array_InternalArray__Insert_TisTableRange_t3332867892_m558285859_gshared
kbc:__ZN8Material8SetColorEN9ShaderLab16FastPropertyNameERK10ColorRGBAf
wMh:_StrongName_get_TokenAlgorithm_m1794722022
wHi:_Enumerator_System_Collections_IEnumerator_Reset_m3754523291_gshared
Fmm:_BrakeLight_Start_m1227513132
IU:__ZN11AudioSource23VirtualRedirectTransferER18StreamedBinaryReadILb0EE
j6e:__ZN20TextRenderingPrivate8FontImplC2E10MemLabelIdPN13TextRendering4FontE
dZk:_RangeInt_get_end_m4128831787
eae:__ZNK5physx2Sq10AABBPruner5sweepERKNS0_9ShapeDataERKNS_6PxVec3ERfRNS0_14PrunerCallbackE
E8:__ZL41AssemblyNameMatchesWithOrWithoutExtensionPKcS0_
W$i:_List_1_set_Item_m2082115010_gshared
iLi:_Encoding_GetBytes_m3735967069
c5d:__ZN5physx2Sc5Scene21fireCallBacksPostSyncEv
MNa:__ZN14GfxContextGLES43AddRenderSurfaceToDeferredFBOInvalidateListEPK17RenderSurfaceGLES
Kbe:__ZN5physx17PxsCCDAdvanceTask11runInternalEv
Cya:__ZN11NamedObject23VirtualRedirectTransferER14SafeBinaryRead
HEh:_Text_get_resizeTextMinSize_m1002355407
G5e:__ZNSt3__26vectorIN20TextRenderingPrivate8FontImpl13CharacterInfoE13stl_allocatorIS3_L18MemLabelIdentifier1ELi16EEE6insertENS_11__wrap_iterIPKS3_EERS9_
yVa:__ZN23PreloadManagerOperation6IsDoneEv
jag:_Array_CreateInstance_m1027597705
msf:__ZN5physx3Pvd17PvdPropertyFilterINS_2Sn17RepXVisitorWriterINS_22PxVehicleWheelsSimDataEEEE27handleExtendedIndexPropertyILj613ES4_NS_23PxVehicleSuspensionDataEKjNS_36PxVehicleSuspensionDataGeneratedInfoEEEvjRKNS_29PxExtendedIndexedPropertyInfoIXT_ET0_T2_T1_EERKT3_
GAh:_Selectable_get_navigation_m3508916916
aDk:__ZN6il2cpp5utils11StringUtils11Utf16ToUtf8ERKNSt3__212basic_stringIDsNS2_11char_traitsIDsEENS2_9allocatorIDsEEEE
QMg:_MD4Managed_Decode_m4273685594
Fld:__ZN5physx3Cct26CharacterControllerManagerD2Ev
Yjl:__Z57RuntimeInvoker_Quaternion_t2301928331_Vector3_t3722313464PFvvEPK10MethodInfoPvPS4_
Qvb:__ZN21LightProbeProxyVolume18HasHardwareSupportEv
p4b:__ZN26LightProbeProxyVolumeCacheC2ER13BatchRendererR15RenderLoopStats
bJa:__ZN6prcoreL31inner_stretch_argb8888_bilinearEPKNS_9InnerInfoE
PMb:__Z18Transfer_BlittableI18StreamedBinaryReadILb1EELb1E8BitFieldEvRK29SerializationCommandArgumentsR31RuntimeSerializationCommandInfo
i$e:_UNITY_FT_Outline_Decompose
Xsg:_Int64_System_IConvertible_ToChar_m1509243576_AdjustorThunk
iCj:_GeneralNames_get_IPAddresses_m4242915644
h3k:_UnitySynchronizationContext_Exec_m3359802660
CHk:_GC_init_size_map
lbe:__ZN5physx6shdfnd8internal8HashBaseINS0_4PairIKNS3_IPKNS_12PxsRigidCoreEPKNS_12PxsShapeCoreEEEPNS_11PxsCCDShapeEEESA_NS0_4HashISA_EENS1_11HashMapBaseISA_SD_SG_NS0_9AllocatorEE6GetKeyESI_Lb1EE15reserveInternalEj
z1a:__Z20scripting_object_new17ScriptingClassPtr
Ivm:dynCall_iiiiifi
ALh:_KeyGeneratedEventHandler_Invoke_m2527485594
U5d:__ZN5physx2Sc5Scene21setDominanceGroupPairEhhRKNS_20PxDominanceGroupPairE
e0h:_Decimal__ctor_m1925875020_AdjustorThunk
Wqh:_SerializationCallbacks__ctor_m3863304525
i0c:__ZN16CustomDataModule8TransferI18StreamedBinaryReadILb0EEEEvRT_
P:Math_exp
COk:_Vector3_Min_m1803158933
Pp:FUNCTION_TABLE_iiifi
Zyk:__ZN6il2cpp2os5posix13PosixAutoLockD2Ev
dPj:_SymmetricTransform_OFB_m3690147804
vlf:__ZN5physx22PxVehicleWheelsSimData20setWheelShapeMappingEji
gUe:_cff_get_advances
xSb:__ZN13MonoBehaviour9SetScriptERK4PPtrI10MonoScriptE18ScriptingObjectPtr
WRh:_X500DistinguishedName_GetSeparator_m1336760642
tZd:__ZN5physx7NpScene12loadFromDescERKNS_11PxSceneDescE
SWa:__ZNK10FileSystem16LastErrorMessageEv
tui:_Array_InternalArray__Insert_TisVector3_t3722313464_m3862657277_gshared
Jei:_SecurityException__ctor_m1631242336
J3j:__ZN15dense_hashtableINSt3__24pairIK10KeyWrapperIPK11Il2CppClassEPKcEES6_N6il2cpp5utils11PointerHashIS3_EEN14dense_hash_mapIS6_S9_SE_NS6_14EqualsComparerINS0_8equal_toIS5_EEEENS0_9allocatorISA_EEE9SelectKeyESJ_SL_E14squash_deletedEv
fEf:_EventSystem_Update_m1662072334
Atc:__ZN11TimeManager16HasFixedTimeStepEv
cjf:__ZN22UnityWebRequestManager10InitializeEv
ORb:__ZN13MonoBehaviour13AwakeFromLoadE17AwakeFromLoadMode
WGb:__ZL26Transfer_SimpleNativeClassI17RemapPPtrTransfer8GradientLb1EEvRK29SerializationCommandArgumentsR31RuntimeSerializationCommandInfo
JDf:_RaycasterManager_RemoveRaycasters_m3057093063
iqc:__ZN12CachedWriter9InitWriteER15CacheWriterBase
Ooc:__Z21UnsignedInt64ToStringy
uzh:_GetRaycastNonAllocCallback_BeginInvoke_m3984885848
wGj:_PatternCompiler_BeginLink_m1295557963
Z$a:__ZN14SafeBinaryRead21TransferSTLStyleArrayI13dynamic_arrayI17SortingLayerEntryLj4EEEEvRT_17TransferMetaFlags
S5d:__ZN5physx14PxsAABBManager15createAggregateEPvb
LJj:_Group_GetAnchorInfo_m3730312864
Mam:__ZL50Graphic_t1660335611_CustomAttributesCacheGeneratorP21CustomAttributesCache
$$k:_SceneManager_GetActiveScene_m1825203488
PRi:_TimeSpan_op_LessThanOrEqual_m300470010
QNe:__Z14resize_trimmedINSt3__26vectorI15DetailPrototypeNS0_9allocatorIS2_EEEEEvRT_j
GEc:__Z66Register_UnityEngine_Transform_INTERNAL_CALL_InverseTransformPointv
Cna:__ZZN15DirectorManager15InitializeClassEvEN41FixedUpdateDirectorFixedUpdateRegistrator7ForwardEv
Qxg:_MemoryStream_get_Position_m3733941202
Hec:__ZL10KeyHandleriPK23EmscriptenKeyboardEventPv
nEm:_glLinkProgram__wrapper
Myb:__ZN18ScriptingArguments8AddInt64Ex
LJa:__ZN6prcoreL12RemapGenericI17TexFormatARGB888815TexFormatBGR888EEvPKNS_9InnerInfoE
rzb:__ZN12HandlerChain4LockER13FileEntryData12FileLockMode
M8h:_TextInfo_get_ListSeparator_m1628160079
qVc:__Z20UpdateCustomCurveTplIL27ParticleSystemCurveEvalMode1EEvRK11MinMaxCurveR23ParticleSystemParticlesiijjRKN4math5_int4E
aDh:_Selectable_OnCanvasGroupChanged_m472903475
LOi:_EventWaitHandle_Reset_m3348053200
yTc:__ZNK10SizeModule6UpdateER23ParticleSystemParticlesjj
HLd:__ZN5physx7NpShape8requiresERNS_23PxProcessPxBaseCallbackE
stk:__ZN6il2cpp6icalls8mscorlib6System13Globalization11CultureInfo35construct_internal_locale_from_nameEP17Il2CppCultureInfoP12Il2CppString
cJb:__ZL22Transfer_ManagedObjectI24GenerateTypeTreeTransferLb1EEvRK29SerializationCommandArgumentsR31RuntimeSerializationCommandInfo
W_b:__ZN15RenderNodeQueueC2E10MemLabelId
A3f:_ResourceEnumerator_FillCache_m1661715061
GMl:__ZL72SecuritySafeCriticalAttribute_t3505979402_CustomAttributesCacheGeneratorP21CustomAttributesCache
Gk:_emscripten_set_main_loop_timing
qOk:_Bounds_get_min_m3755135869
Log:_Convert_ToUInt16_m3523269149
R4:__ZN8Renderer10DeactivateE19DeactivateOperation
eFf:_ExecuteEvents_get_endDragHandler_m2879610446
SIe:__ZN14CompletionTask22ProcessAllPhysicsTasksEv
Tac:__ZN14ImageReference10FlipImageYEv
dWh:_Interpreter_GetLastDefined_m4107643411
v$c:__ZN21InheritVelocityModule8TransferI17RemapPPtrTransferEEvRT_
Lwg:_FileStream_RefillBuffer_m4186945278
aIc:__Z14GetDefaultSkini
$N:__ZN4FMOD3DSP9setBypassEb
mXc:__Z9StartConeILN11ShapeModule14MultiModeValueE1EEvRS0_R23ParticleSystemParticlesRK19ParticleSystemStateRK27ParticleSystemEmissionStateRKN4math8float3x3ERKNSB_8float4x4Ejbj
zec:__Z19NormalizeWheelInputf
mPf:_Graphic_DoMeshGeneration_m3548487693
KHj:_Repetition__ctor_m1672362629
lRc:__Z29Transfer_Blittable_ArrayFieldI8JSONReadhEvRT_R9ArrayInfoRK23StaticTransferFieldInfo
Mfi:_SecurityFrame_ToString_m339310712_AdjustorThunk
v_f:_TypeBuilder_create_runtime_class_m2581270900
KZg:_InternalEnumerator_1_get_Current_m3008260692_gshared
gQd:__ZN5physx2Sc9ClothCore17addCollisionPlaneERKNS_21PxClothCollisionPlaneE
b2a:__ZN22RenderingCommandBuffer20CleanupCommandBufferEv
_1h:_Decimal_op_Implicit_m2299919277
aMc:__Z18Transfer_BlittableI9JSONWriteLb1EtEvRK29SerializationCommandArgumentsR31RuntimeSerializationCommandInfo
MAg:_UnexceptionalStreamReader_ReadToEnd_m920589220
AYh:_DateTime_System_IConvertible_ToType_m1242864300
Zhi:_String_IndexOf_m1298810678
$k:___syscall85
rve:__ZNK5physx13PxHeightField8isKindOfEPKc
$_b:__ZNSt3__26__sortIRPFbP10GUIElementS2_EPS2_EEvT0_S7_T_
K5e:__Z14ValidateFormatR13dynamic_arrayIN20TextRenderingPrivate16TextFormatChangeELj4EE
rVf:_ConstructorBuilder_GetILGenerator_m1750792206
IKi:_EncoderFallback_get_ReplacementFallback_m818398284
Qzk:__ZN6il2cpp2os6Thread19DetachCurrentThreadEv
AEf:_EventTrigger_OnBeginDrag_m4203438710
q1j:__ZN6il2cpp2vmL21SetupInterfacesLockedEP11Il2CppClassRKNS_2os12FastAutoLockE
EBb:__ZN11MonoManager23VirtualRedirectTransferER24GenerateTypeTreeTransfer
g$c:__ZN24GenerateTypeTreeTransfer8TransferI13dynamic_arrayIN8UVModule10SpriteDataELj4EEEEvRT_PKc17TransferMetaFlags
F7a:__ZN19StreamedBinaryWriteILb0EE8TransferI13dynamic_arrayI8Vector3fLj4EEEEvRT_PKc17TransferMetaFlags
LH:__ZN23AnimationPlayableOutput17SetSourcePlayableEP8Playable
v4c:__ZL24BuildParticleLineSegmentILb1EEvjRPhRKN4math8float4x4EPK15LineBuilderDataRKfSA_11ColorRGBA32
MBf:__ZNK13WheelCollider12GetLocalPoseER8Vector3fR11Quaternionf
oRi:_TimeSpan_CompareTo_m3633415627_AdjustorThunk
pQk:_CullingGroup_Dispose_m782801025
kkd:__ZN16ControllerFilter9preFilterERKN5physx12PxFilterDataEPKNS0_7PxShapeEPKNS0_12PxRigidActorERNS0_7PxFlagsINS0_9PxHitFlag4EnumEtEE
S$:__ZN11UnityEngine15CloudWebService14DataDispatcher15SetupWebRequestEv
$9i:_Collection_1_ConvertItem_m492501417_gshared
qef:__ZN11UnityEngine15PlatformWrapper13GetShaderCapsEv
dhe:__ZN16MBPOS_TmpBuffers16allocateSleepingEjj
xKh:_KeyPairPersistence_get_MachinePath_m3812267291
Slg:_Stack_Peek_m2216191248
nYh:_DateTime_System_IConvertible_ToDecimal_m1044850612_AdjustorThunk
Pnc:__ZN21FixedBehaviourManager6UpdateEv
wvc:__ZN9Transform9SetParentEPS_NS_15SetParentOptionE
d0c:__ZN15CollisionModule8TransferI18StreamedBinaryReadILb0EEEEvRT_
nea:__ZN19ShaderPropertySheet8SetFloatEN9ShaderLab16FastPropertyNameEfNS_8SetFlagsE
n$j:_Physics_Raycast_m952690504
Hub:__ZN19RuntimeSceneManager24BeginIntegrateMainThreadEP10UnityScene
lzd:__ZN5physx14NpArticulation26setExternalDriveIterationsEj
Qbd:__ZN16RayRTreeCallbackILi0ELb0EED0Ev
Bme:__ZN5physx20PxsParticleSystemSim23scheduleCollisionUpdateERNS_10PxBaseTaskE
AAk:__ZNSt3__2plIcNS_11char_traitsIcEENS_9allocatorIcEEEENS_12basic_stringIT_T0_T1_EERKS9_S6_
Nzg:_StringReader_CheckObjectDisposedException_m3796163530
Rta:__ZN9ShaderLab20SerializedSubProgramaSERKS0_
Otm:_roundf
Kdg:_Byte_System_IConvertible_ToSingle_m324484566_AdjustorThunk
lxf:__Z36setPxVehicleDriveDynData_AnalogInputPN5physx21PxVehicleDriveDynDataEjf
L1h:_Decimal_op_Explicit_m2848387298
fEi:_KeyValuePair_2_ToString_m1238786018_gshared
pB:__ZN8Animator15SetPrepareStageEv
OIk:__ZN6il2cpp6icalls8mscorlib6System4Text8Encoding16InternalCodePageEPi
sN:__ZN8AnimatorC2E10MemLabelId18ObjectCreationMode
r1j:__ZN6il2cpp2vmL24SetupTypeHierarchyLockedEP11Il2CppClassRKNS_2os12FastAutoLockE
Iec:__ZL11TextHandleriPK23EmscriptenKeyboardEventPv
_3b:__Z20CalculateLightMatrixRK15SharedLightDataP10Matrix4x4f
b5e:_destroy_face
iAm:_glBlendEquationSeparate__wrapper
YIk:__ZN6il2cpp6icalls8mscorlib6System8Security12Cryptography24RNGCryptoServiceProvider13RngInitializeEP11Il2CppArray
z2c:__ZN21RotationBySpeedModuleD0Ev
RU:__ZN20SoundChannelInstance7setMuteEb
yld:__ZN5physx3Cct26CharacterControllerManager21createObstacleContextEv
csi:_Array_InternalArray__ICollection_Add_TisVector2_t2156229523_m4029235359_gshared
yEg:_NumberFormatter_NumberToString_m3906556024
ONb:__Z19TransferField_ArrayI18StreamedBinaryReadILb1EE27Converter_SimpleNativeClassI17AnimationCurveTplIfEEEvRK23StaticTransferFieldInfoR31RuntimeSerializationCommandInfoRT0_
c6c:__Z19UpdateSingleRow2TplIL27ParticleSystemCurveEvalMode1ELS0_1EEvfRK11MinMaxCurveS3_RK23ParticleSystemParticlesPfbiii
jGa:__ZN18GfxFramebufferGLES22MakeCurrentFramebufferENS_7BuiltinE
F$d:__ZN5physx6shdfnd5ArrayIPNS_2Sc19ShapeInstancePairLLENS0_19ReflectionAllocatorIS4_EEE15growAndPushBackERKS4_
Wga:__ZN12CachedReader4ReadEPvj
MUe:_cf2_blues_init
zDd:__ZN5physx2Sc8BodyCore24clearSpatialAccelerationEbb
fHh:_SimpleCollator_MatchesForwardCore_m850743967
Vpb:__ZN14SubstanceInput8TransferI18StreamedBinaryReadILb0EEEEvRT_
gVc:__ZNK14RotationModule6UpdateERK27ParticleSystemReadOnlyStateRK19ParticleSystemStateR23ParticleSystemParticlesRKN4math7_float4Ejj
kka:__ZN19RuntimeSceneManagerD2Ev
c6h:_CCGregorianCalendar_GetMonth_m1547203696
g1:__ZN11UnityEngine15CloudWebService25WebRequestDownloadHandler17OnCompleteContentEv
aJa:__ZN6prcore17GetIntegerBlitterE13TextureFormatS0_N14ImageReference8BlitModeE
bHk:_GC_print_block_descr
y$d:__ZN5physx10PxsContext20createContactManagerERKNS_24PxvManagerDescRigidRigidEPNS_18PxsMaterialManagerE
wlf:__ZN13WheelCollider8TransferI14SafeBinaryReadEEvRT_
xhk:__ZN6il2cpp2gc19AppendOnlyGCHashMapINSt3__24pairIPK11Il2CppImageP11Il2CppClassEEP22Il2CppReflectionModule17ReflectionMapHashIS9_ENS2_8equal_toIS9_EEE11TryGetValueERKS9_PSB_
utd:__ZN5physx2Sc5Scene31removeActiveBreakableConstraintEPNS0_13ConstraintSimE
Rxc:__ZN9BlobWrite14ReduceCopyImplERK14ReduceCopyDataj
Mia:__ZNSt3__26__treeI19RepeatingLogMessageNS_4lessIS1_EE13stl_allocatorIS1_L18MemLabelIdentifier73ELi16EEE12__find_equalIS1_EERPNS_16__tree_node_baseIPvEESD_RKT_
MY:__ZN11AudioSource18IsPlayingScriptingEv
pKh:_KeyBuilder_IV_m2230195376
V3d:__ZN5physx6shdfnd5ArrayINS_12PxActorShapeENS0_19ReflectionAllocatorIS2_EEE15growAndPushBackERKS2_
KYa:__ZN25MultiBlocksMemoryFileData17AdjustBlocksCountEj
Hqk:__ZNSt3__214__split_bufferIN6il2cpp2vm22EmbeddedResourceRecordERNS_9allocatorIS3_EEED2Ev
w3e:__ZN13TextRendering4Font8TransferI24GenerateTypeTreeTransferEEvRT_
gzc:__Z27CullingGroup_CUSTOM_DisposeP12Il2CppObject
p5c:__Z18UpdateSingleRowTplIL27ParticleSystemCurveEvalMode0EEvfRK11MinMaxCurveS3_RK23ParticleSystemParticlesPfbiii
ohf:__ZNSt3__26vectorIP19BaseConnectSettings13stl_allocatorIS2_L18MemLabelIdentifier6ELi16EEE21__push_back_slow_pathIKS2_EEvRT_
cnm:_CarAIControl_OnCollisionStay_m1342184659
G_b:__ZN13ComputeShader15SetTextureParamEjRKN9ShaderLab16FastPropertyNameE9TextureID16TextureDimension
hId:__ZN5physx2Sc14ConstraintCore8setFlagsENS_7PxFlagsINS_16PxConstraintFlag4EnumEtEE
hn:_glStencilMask
X2j:_MainModule_set_startSize_m1275429743
d5g:_InternalEnumerator_1_System_Collections_IEnumerator_get_Current_m2499755184_gshared
lue:__ZNK5physx2Sc15ClothFabricCore20getNbParticleIndicesEv
Bec:__ZN15GUIEventManager10QueueEventERK10InputEvent
k4f:_DecimalConstantAttribute__ctor_m3583301917
qz:__ZN24GenerateTypeTreeTransfer21TransferSTLStyleArrayINSt3__26vectorI24CompressedAnimationCurve13stl_allocatorIS3_L18MemLabelIdentifier26ELi16EEEEEEvRT_17TransferMetaFlags
DGk:_GC_push_conditional_with_exclusions
C9g:_Enumerator_System_Collections_IDictionaryEnumerator_get_Entry_m2772123357_AdjustorThunk
kK:__ZN12_GLOBAL__N_121ProcessAnimationBeginER35AnimationPlayableEvaluationConstantR32AnimationPlayableEvaluationInputR33AnimationPlayableEvaluationOutput
ALj:_UriParser_InitializeAndValidate_m2008117311
Sqm:_strrchr
UPk:_Component_GetComponentInParent_m779177818
n_l:__ZL73RuntimePlatform_t4159857903_CustomAttributesCacheGenerator_MetroPlayerARMP21CustomAttributesCache
Msd:__ZN5physx2Sc7BodySim6wakeUpEv
pIf:_UIBehaviour_IsDestroyed_m3033055982
o$d:__ZN5physx6shdfnd8PoolBaseINS_2Gu30LargePersistentContactManifoldENS0_19ReflectionAllocatorIS3_EEE17releaseEmptySlabsEv
htd:__ZN5physx2Sc21ConstraintInteraction7destroyEv
bCc:__Z33Register_UnityEngine_Random_Rangev
ith:_InputField_get_readOnly_m3111985574
iF:__ZN27AnimationLayerMixerPlayableD0Ev
F8a:__ZN14RenderSettings27UpdateIndirectSpecularColorEv
xsb:__ZN14PlayerSettings8TransferI18StreamedBinaryReadILb0EEEEvRT_
Wak:__ZN6il2cpp6icalls8mscorlib6System8MonoType16GetMethodsByNameEP20Il2CppReflectionTypeP12Il2CppStringibS5_
U0d:__ZNK5physx7NpScene16getNbConstraintsEv
ROd:__ZN5physx7NpCloth14setWakeCounterEf
cPi:_Monitor_Monitor_wait_m3706677354
WJg:_RijndaelTransform__cctor_m2439033240
YWb:__ZNSt3__27__sort3IRNS_4lessIN22BuiltinResourceManager8ResourceEEEPS3_EEjT0_S7_S7_T_
T1e:_ps_hints_t2mask
hmi:_Array_InternalArray__ICollection_Remove_TisMonoResource_t4103430009_m238733686_gshared
jug:_IntPtr_ToString_m1831665121
KAf:__ZN5physx43PxVehicleDrivableSurfaceToTireFrictionPairs5setupEjjPPKNS_10PxMaterialEPKNS_28PxVehicleDrivableSurfaceTypeE
XDh:_Slider_Set_m1476104429
_Qf:_Image_set_fillClockwise_m2210525152
mrf:__Z46setPxVehicleWheelsSimData_SceneQueryFilterDataPN5physx22PxVehicleWheelsSimDataEjNS_12PxFilterDataE
rnb:__ZN10BlendShape8TransferI19StreamedBinaryWriteILb0EEEEvRT_
OJe:__ZN14PhysicsManagerC2E10MemLabelId18ObjectCreationMode
aug:__Z21il2cpp_codegen_sizeofP11Il2CppClass
VMa:__Z19GetTimeSinceStartupv
yRf:_Image_AddQuad_m2161647989
kHi:_Enumerator_System_Collections_IEnumerator_Reset_m2953002685_gshared
n1e:_TT_Load_Composite_Glyph
xob:__Z33MultiplyMatrixArrayWithBase4x4REFPK10Matrix4x4fS1_S1_PS_j
FXh:_DateTime_FromTicks_m4059645178
sbb:__ZN9ShaderLab11shaderprops9GetTexEnvEPK19ShaderPropertySheetS3_NS_16FastPropertyNameE16TextureDimensionb
J1b:__ZN29RenderNodeQueuePrepareContextC2Ev
Wmk:_il2cpp_gc_disable
bva:__ZN9ShaderLab20SerializedSubProgram16TextureParameter8TransferI24GenerateTypeTreeTransferEEvRT_
RHg:_DSASignatureDeformatter_SetKey_m2999549245
wJk:__ZN6il2cpp2os11MutexHandle4WaitEb
uza:__ZN9GfxDevice19SaveStereoConstantsEv
vJk:__ZN6il2cpp2os11MutexHandle4WaitEj
Gwc:__ZL34GetComponentsImplementationRecurseILb1ELi1ELi1EEbR10GameObjectbRK17CompareParametersRK39GetComponentsImplementation_ReturnValue
uJk:__ZN6il2cpp2os11MutexHandle4WaitEv
JUf:_AssemblyBuilder_GetTypes_m3415680380
VKa:__ZN6prcoreL17RemapGenericFloatI15TexFormatRGHalf18TexFormatARGBFloatEEvPKNS_9InnerInfoE
bVb:__Z18SimulateMouseInputi
XZb:__ZN13RenderManager23AddRemoveCamerasDelayedEv
fNc:__ZN9JSONWrite8TransferI13dynamic_arrayIdLj8EEEEvRT_PKc17TransferMetaFlags
pOe:__ZN9Heightmap8TransferI24GenerateTypeTreeTransferEEvRT_
D2d:__ZN5physx2Sq17SceneQueryManager11shiftOriginERKNS_6PxVec3E
_0h:_Decimal_Compare_m3062820418
rXh:_IntervalCollection_GetMetaCollection_m4029522214
WIe:__ZNK5Unity5Joint16GetCurrentForcesER8Vector3fS2_
wyf:__ZN5physx3Pvd17PvdPropertyFilterINS_2Sn17RepXVisitorWriterINS_18PxVehicleGearsDataEEEE15indexedPropertyILj530ES4_NS4_4EnumEfEEvjRKNS_21PxIndexedPropertyInfoIXT_ET0_T1_T2_EEPKNS_11PxU32ToNameERKNS_18PxUnknownClassInfoE
OXj:_TextGenerator_get_characterCount_m864136654
Uqf:__Z35getPxVehicleWheelsSimData_WheelDataPKN5physx22PxVehicleWheelsSimDataEj
RQi:_TimeSpan__ctor_m2047388489_AdjustorThunk
F9b:__ZN13RenderTexture8SetWidthEi
j2c:__ZN11ColorModuleD0Ev
Jjj:_Array_InternalArray__get_Item_TisSingle_t1397266774_m1672589487_gshared
p1e:_UNITY_FT_GlyphLoader_CheckSubGlyphs
U3b:__Z25SetupObjectBakedOcclusionbRK15SharedLightDataRK26SharedLightmapSettingsDataRK15LightmapIndicesR17ShaderPassContext
uQe:__ZN14DetailDatabase9BuildMeshEii8Vector3f16DetailRenderModef
Z7i:_Collection_1_System_Collections_ICollection_CopyTo_m1516601228_gshared
G9d:__ZNK5physx2Sq12BucketPruner9visualizeERNS_2Cm12RenderOutputEj
Ppg:_Int16_System_IConvertible_ToDouble_m1661805412
QKd:__ZNK5physx9NpFactory11getNbShapesEv
yvc:__Z13SetLocalEuler15TransformAccessRKN4math7_float3ENS0_13RotationOrderE
vea:__ZN9ShaderLab16FastPropertyName4InitEPKc
nic:__Z13RegisterClassIN2UI13RectTransformEEvv
ho:FUNCTION_TABLE_iiiii
Mlc:__ZL31MeshRendererTransformChangedJobP13BoundsJobDatajPK23TransformAccessReadOnlyPKyj
Ydf:__ZN11UnityEngine15PlatformWrapper19GetPhysicalMemoryMBEv
teg:_Char_System_IConvertible_ToByte_m2347554595_AdjustorThunk
U5c:__Z20UpdateWholeSheet2TplIL27ParticleSystemCurveEvalMode0ELS0_2EEvfRK11MinMaxCurveS3_RK23ParticleSystemParticlesPf
_ii:_String_CreateString_m860434552
Pme:__ZN5physx2Sc10ClothShape21updateBoundsInAABBMgrEv
sdh:_Enumerator_System_Collections_IEnumerator_Reset_m278261807_AdjustorThunk
_Dc:__Z38Transform_CUSTOM_INTERNAL_get_rotationP12Il2CppObjectP11Quaternionf
qrf:__Z44setPxVehicleWheelsSimData_TireLoadFilterDataPN5physx22PxVehicleWheelsSimDataERKNS_27PxVehicleTireLoadFilterDataE
yok:__ZNK15dense_hashtableINSt3__24pairIK10KeyWrapperIP11Il2CppClassES4_EES5_N6il2cpp8metadata16SZArrayClassHashEN14dense_hash_mapIS5_S4_SA_NS5_14EqualsComparerINS9_19SZArrayClassCompareEEENS0_9allocatorIS7_EEE9SelectKeyESE_SG_E3endEv
zll:__Z73RuntimeInvoker_Single_t1397266774_Vector2_t2156229523_Vector2_t2156229523PFvvEPK10MethodInfoPvPS4_
mhk:__ZNK15dense_hashtableINSt3__24pairIK10KeyWrapperINS1_IPK10MethodInfoP11Il2CppClassEEEjEES9_17ReflectionMapHashIS8_EN14dense_hash_mapIS9_jSD_NS9_14EqualsComparerINS0_8equal_toIS8_EEEENS0_9allocatorISB_EEE9SelectKeyESI_SK_E5beginEv
lEa:__ZN7ApiGLES19UploadBufferSubDataEjN2gl12BufferTargetEllPKv
Te:_glFramebufferTextureLayer
Wae:__ZN5physx2Sc5Scene17createClothSolverEv
iqa:__ZNSt3__216__rotate_forwardINS_11__wrap_iterIPN4core12basic_stringIcNS2_20StringStorageDefaultIcEEEEEEEET_S9_S9_S9_
t0k:_SendMouseEvents_HitTestLegacyGUI_m579942228
mt:__ZN7mecanim12statemachine20StateMachineConstant8TransferI14SafeBinaryReadEEvRT_
FDg:_MulticastDelegate_Equals_m2502840627
wci:_SymmetricAlgorithm_set_KeySize_m3805756466
DFe:__ZThn116_N5physx7profile8ZoneImplINS_28PxProfileNameProviderForwardEE12removeClientERNS_19PxProfileZoneClientE
sge:__ZN15MBP_PairManager17removeMarkedPairsEPK10MBP_ObjectPN5physx16PxsBroadPhaseMBPERK8BitArrayS8_
Qdg:_Byte_System_IConvertible_ToUInt32_m1049546902_AdjustorThunk
hXb:__Z21InitializeBatchedJobsv
OYj:_CanvasGroup_get_blocksRaycasts_m1805542303
ebi:_SHA1Internal_ProcessBlock_m1991889327
YDb:__Z19TransferField_ArrayI14SafeBinaryRead27Converter_SimpleNativeClassI8GUIStyleEEvRK23StaticTransferFieldInfoR31RuntimeSerializationCommandInfoRT0_
GRb:__ZN9TextAsset23VirtualRedirectTransferER19StreamedBinaryWriteILb0EE
xgj:_Array_Sort_TisRuntimeObject_TisRuntimeObject_m1685639929_gshared
wQi:_TimerCallback_Invoke_m1938221087
U2j:_MainModule_get_startLifetime_m2343501481
a8a:__ZN14RenderSettings5ResetEv
bhc:__ZN6Sprite9BindAtlasERK4PPtrI11SpriteAtlasE
PJc:__ZN5Unity9rapidjson12GenericValueINS0_4UTF8IcEE13JSONAllocatorE10FindMemberIS4_EENS0_21GenericMemberIteratorILb0ES3_S4_EERKNS1_IS3_T_EE
nKd:__ZN5physx9NpPhysics33unregisterDeletionListenerObjectsERNS_18PxDeletionListenerEPKPKNS_6PxBaseEj
v1g:_InternalEnumerator_1_System_Collections_IEnumerator_get_Current_m3892960115_AdjustorThunk
PQd:__ZNK5physx2Sc9ClothCore22getAngularInertiaScaleEv
vIg:_HMAC_HashCore_m3684104066
nKc:__ZN5Unity9rapidjson13GenericReaderINS0_4UTF8IcEES3_13JSONAllocatorE11ParseNumberILj1ENS0_25GenericInsituStringStreamIS3_EENS0_15GenericDocumentIS3_S4_S4_EEEEvRT0_RT1_
YBd:__ZN5physx20NpRigidActorTemplateINS_18PxArticulationLinkEE12setActorFlagENS_11PxActorFlag4EnumEb
_zk:__ZN6il2cpp2os10ThreadImplD2Ev
X7c:__ZN14ParticleSystem18MarkAllSubEmittersEPS_
iLc:__ZN8Gradient8TransferI9JSONWriteEEvRT_
Yjh:_ContextCallbackObject__ctor_m3499682402
rEj:_X509StoreManager_get_LocalMachine_m269504582
gVa:__ZNK12TLSAllocatorI14StackAllocatorE22GetAllocatedMemorySizeEv
_v:__ZN7mecanim6memory16ChainedAllocator8AllocateEjj
mNe:__ZN11TerrainData16CheckConsistencyEv
Juc:__Z32GetSceneHierarchyPathDescriptivePK6Object
HAi:_EqualityComparer_1_System_Collections_IEqualityComparer_GetHashCode_m2138064395_gshared
czb:__ZN12HandlerChain4NameEv
aqg:_Int16_System_IConvertible_ToType_m3672347013_AdjustorThunk
un:FUNCTION_TABLE_fiiiiiifiiiiiif
wfi:_SecurityException_ToString_m3228070608
Mrg:_Int16_ToString_m2013897809
Hpe:__ZN5physx37setupFinalizeSolverConstraintsCoulombERNS_13PxcNpWorkUnitERKNS_2Gu13ContactBufferERKNS_27PxcCorrelationBufferCoulombERKNS_11PxTransformESB_bPhRKNS_13PxcSolverBodyESF_RKNS_17PxcSolverBodyDataESI_ffjffff
yfi:_String_Substring_m2848979100
Wbf:__Z44Register_UnityEngine_CanvasRenderer_get_cullv
ukj:_ScriptableObject_CreateInstance_TisRuntimeObject_m1552711675_gshared
zdf:__ZN11UnityEngine7Connect17XRDeviceInfoEvent12XRDeviceInfoD2Ev
JSe:__ZN13ProduceHelperI4TreeLb0EE7ProduceE10MemLabelId18ObjectCreationMode
_Bb:__Z44InitializeTransferFunctionScriptingTraitsForI17RemapPPtrTransferEvR31TransferFunctionScriptingTraits
Wic:__ZNSt3__26vectorI16MessageForwarder13stl_allocatorIS1_L18MemLabelIdentifier7ELi8EEE6resizeEj
BTh:_X509Chain_SelectBestFromCollection_m1068759221
gPj:_SymmetricTransform_TransformBlock_m851059707
fUc:__Z19UpdateProceduralTplIL27ParticleSystemCurveEvalMode4EEvRK20DualMinMaxPolyCurvesR23ParticleSystemParticlesPfRKN4math7_float4E
U4i:_Enumerator_System_Collections_IEnumerator_Reset_m2261065994_AdjustorThunk
NBh:_ScrollRect_get_verticalNormalizedPosition_m3693218937
tfe:__ZN5physx31ComputeCreatedDeletedPairsListsEPKjS1_jRPNS_17PxcBroadPhasePairERjS5_S4_S5_S5_RNS_14SapPairManagerE
Fub:__ZN18LoadSceneOperation21MustCompleteNextFrameEv
ZDh:_Slider_UpdateDrag_m1102107039
L1f:_MonoMethodInfo_get_method_info_m88651774
SU:__ZNK12AudioManager16GetAudioListenerEv
vlb:__ZN21BillboardBatchManager17BillboardBatchJobEP25DynamicVBOGeometryJobDataj
kFg:_RuntimeTypeHandle__ctor_m3315980708_AdjustorThunk
tYj:_Canvas_set_overrideSorting_m4088794420
k9b:__ZNSt3__26vectorI11CameraStackNS_9allocatorIS1_EEE8__appendEj
vke:__ZN5physx2Gu16pcmContactBoxBoxERKNS0_13GeometryUnionES3_RKNS_11PxTransformES6_RKfRNS0_5CacheERNS0_13ContactBufferE
mEj:_X509Chain_get_TrustAnchors_m2434696767
MC:__ZN7mecanim9animation12GetHumanPoseERKNS0_18ClipMuscleConstantEPKNS0_10ValueDeltaERNS_5human9HumanPoseE
CE:__ZN22AnimationMixerPlayable17ProcessRootMotionEP35AnimationPlayableEvaluationConstantP32AnimationPlayableEvaluationInputP33AnimationPlayableEvaluationOutput
Baa:__Z13GetFileSystemv
Gmc:__ZZL23RegisterLightPropertiesR22GenericPropertyBindingEN29Wrapper_LightColorTemperature13SetFloatValueEPvf
Yka:__ZNK5Unity4Type21FindAllDerivedClassesER13dynamic_arrayIPKS0_Lj4EENS0_17TypeFilterOptionsE
Rla:__ZN13RuntimeStaticI15GUIEventManagerLb0EE16StaticInitializeEPv
EEe:__ZN15RaycastCallback14processTouchesEPKN5physx12PxRaycastHitEj
d2k:_Transform_set_position_m3387557959
WWi:_Version_CompareTo_m3146217210
jSg:_TlsClientCertificate_FindParentCertificate_m3844441401
QRe:__ZN21ImposterRenderTexture14UpdateImposterERK5RectTIfERKN12TreeDatabase9PrototypeE
msi:_Array_InternalArray__ICollection_CopyTo_TisKeyValuePair_2_t71524366_m1056941380_gshared
Pwe:__ZN5physx2Gu5RTree15exportExtraDataERNS_22PxSerializationContextE
jSi:_Type_get_IsClass_m589177581
vSi:_Type_get_IsSystemType_m624798880
v$:__ZN11UnityEngine15CloudWebService14DataDispatcher19OnDataBlockConsumedEv
sBb:__ZN19ShaderPropertySheet9SetMatrixEN9ShaderLab16FastPropertyNameERK10Matrix4x4fNS_8SetFlagsE
Dfb:__Z29GetTextureSizeAllowedMultiple13TextureFormat
dae:__ZNK5physx2Sq10AABBPruner7overlapERKNS0_9ShapeDataERNS0_14PrunerCallbackE
S0h:_Decimal_Subtract_m835601464
GYk:_Quaternion_Internal_ToEulerRad_m1503250752
roc:__ZN21IntermediateRenderers3AddEP20IntermediateRenderer
fmk:_il2cpp_array_element_size
STh:_X509CertificateCollection__ctor_m3178797723
p$d:__ZN5physx6shdfnd5ArrayIPvNS0_19ReflectionAllocatorINS_2Gu30LargePersistentContactManifoldEEEE4copyINS0_15InlineAllocatorILj256ES6_EEEEvRKNS1_IS2_T_EE
rsf:__ZN5physx3Pvd17PvdPropertyFilterINS_2Sn17RepXVisitorWriterINS_22PxVehicleWheelsSimDataEEEE27handleExtendedIndexPropertyILj618ES4_NS_6PxVec3EKjNS_18PxUnknownClassInfoEEEvjRKNS_29PxExtendedIndexedPropertyInfoIXT_ET0_T2_T1_EERKT3_
Dg:_glCheckFramebufferStatus
CIk:__ZN6il2cpp2os11EventHandle4WaitEv
u2:__ZN19CloudServiceHandler20StartEventDispatcherERKN11UnityEngine15CloudWebService18CloudServiceConfigERNS1_23WebRequestRestHeaderMapE
MPf:_GraphicRaycaster__ctor_m646559428
fse:__ZN5physx2Cm12DelegateTaskINS_2Sc5SceneEXadL_ZNS3_19updateCCDSinglePassEPNS_10PxBaseTaskEEEE11runInternalEv
ond:__ZN5physx6string9sprintf_sEPcjPKcz
Jze:__ZThn8_N5physx19TriangleMeshBuilderD1Ev
lig:_BitArrayEnumerator_get_Current_m4220391712
$Sf:__Z37il2cpp_codegen_get_executing_assemblyPK10MethodInfo
hPh:_HttpWebRequest_GetServicePoint_m2640244283
A$k:_Transform_get_parent_m835071599
tgd:__ZN5physx2Gu16intersectRayAABBERKNS_6PxVec3ES3_S3_S3_RfS4_
HPh:_IPAddress_get_ScopeId_m4237202723
Ov:__ZN4core8hash_mapIN11UnityEngine9Animation14GenericBindingENS2_10BoundIndexENS2_25GenericBindingHashFunctorENS2_30GenericBindingValueArrayUniqueEE4growEi
ZB:__ZN21AnimationClipPlayable7SetTimeEd
OHj:_ExpressionCollection_get_Item_m3510736379
fkj:_Array_InternalArray__get_Item_TisVector3_t3722313464_m2720091419_gshared
gOi:_UTF8Encoding_InternalGetCharCount_m82458470
P3k:_Vector2__cctor_m2108982652
rmc:__ZZL23RegisterLightPropertiesR22GenericPropertyBindingEN22Wrapper_LightIntensity13GetFloatValueEPv
Nv:__ZN4core8hash_mapIN11UnityEngine9Animation14GenericBindingENS2_10BoundIndexENS2_25GenericBindingHashFunctorENS2_30GenericBindingValueArrayUniqueEE4growEv
Ppe:__ZN5physx30setupFinalizeSolverConstraintsERNS_13PxcNpWorkUnitERKNS_2Gu13ContactBufferERKNS_20PxcCorrelationBufferERKNS_11PxTransformESB_bPhRKNS_13PxcSolverBodyESF_RKNS_17PxcSolverBodyDataESI_ffffff
Itk:__ZN14dense_hash_mapI10KeyWrapperIP14Il2CppIUnknownEjN6il2cpp5utils11PointerHashIS1_EENS3_14EqualsComparerINSt3__28equal_toIS2_EEEENS9_9allocatorINS9_4pairIKS3_jEEEEE15set_deleted_keyERSF_
jla:__ZN22BuiltinResourceManager16StaticInitializeEPv
JA:__ZN7mecanim4hand8HandPose8TransferI19StreamedBinaryWriteILb0EEEEvRT_
Sjk:__ZN13Il2CppHashMapIPK14Il2CppAssemblyPK22Il2CppMonoAssemblyNameN6il2cpp5utils11PointerHashIS1_EENSt3__28equal_toIS2_EENSA_9allocatorINSA_4pairIK10KeyWrapperIS2_ES5_EEEEEC2EjRKS9_RKSC_
gpe:__ZN5physx26solveVBlockDefaultFrictionEPNS_13PxsSolverCoreEfjjPNS_13PxcSolverBodyEPNS_17PxcSolverBodyDataEjjPNS_25PxcArticulationSolverDescEjPNS_23PxcSolverConstraintDescEjS9_jRNS_6shdfnd5ArrayINS_24PxsConstraintBatchHeaderENSA_19ReflectionAllocatorISC_EEEESG_PNS_2Cm13SpatialVectorEPNS_25PxcThresholdStreamElementEjRj
L8f:_DelegatePInvokeWrapper_AppDomainInitializer_t682969308
xx:__ZN14AnimationEvent8TransferI14SafeBinaryReadEEvRT_
I9:__ZN8Remapper6RemoveEi
oee:__ZN5physx11writeBack1DERKNS_23PxcSolverConstraintDescERNS_16PxcSolverContextERNS_17PxcSolverBodyDataES6_
hLi:_Encoding_GetBytes_m3148649984
N5e:__ZL36CleanupTextRenderingScriptingClassesv
Vbd:__ZThn4_N16RayRTreeCallbackILi0ELb0EED0Ev
C9b:__ZN15ReflectionProbe17UseRendererResultEP13ProbeRenderer
wFc:__Z34Mesh_CUSTOM_SetArrayForChannelImplP12Il2CppObject30InternalScriptingShaderChannel34InternalScriptingVertexChannelTypeiP11Il2CppArrayi
WYj:_CanvasRenderer_INTERNAL_CALL_EnableRectClipping_m3318097918
yVi:_UInt64_System_IConvertible_ToDecimal_m806594027_AdjustorThunk
x9g:_Enumerator_System_Collections_IEnumerator_get_Current_m361750367_AdjustorThunk
Fah:_Enumerator_get_CurrentValue_m3103267885_gshared
lXi:_List_1__ctor_m3395838871_gshared
f7h:_CultureInfo_get_Parent_m672689885
yCj:_PKCS12__ctor_m1854440921
$fj:_Array_Resize_TisCustomAttributeNamedArgument_t287865710_m885566878_gshared
sBc:__Z37Quaternion_CUSTOM_INTERNAL_CALL_SlerpRK11QuaternionfS1_fRS_
oM:__ZN11UnityEngine9Animation28GenericAnimationBindingCache25RegisterIAnimationBindingEPKN5Unity4TypeEiP17IAnimationBinding
j9d:__ZN5physx2Gu17GetGeomSweepFuncsEv
$ud:__ZN5physx6shdfnd8PoolBaseINS_15PxsArticulationENS0_16AlignedAllocatorILj64ENS0_9AllocatorEEEE17releaseEmptySlabsEv
Pvg:_DirectoryInfo__ctor_m481305441
fja:__ZN10MemoryPoolC2E10MemLabelIdbPKciii
Beg:_Char_System_IConvertible_ToInt16_m975497224
c8b:__Z40ProcessCameraIndexListIsNodeVisibleInOutRK22SceneCullingParametersPK9SceneNodePK4AABBR9IndexList
bOj:_GUIScrollGroup_SetHorizontal_m291416666
P3a:__ZN16GraphicsSettings8TransferI17RemapPPtrTransferEEvRT_
A9e:__ZN2UI6Canvas13UpdateBatchesEb
xRh:_X509BasicConstraintsExtension_Decode_m120598446
IH:__ZNK23AnimationPlayableOutput11DerivesFromE17ScriptingClassPtr
Wym:_glGetShaderInfoLog__wrapper
WLd:__ZN5physx2Gu5Debug9visualizeERKNS_13PxBoxGeometryERNS_2Cm12RenderOutputERKNS5_8Matrix34ERKNS_9PxBounds3Eyfj
qad:__ZN5physx6shdfnd5ArrayIPKvNS0_19ReflectionAllocatorIS3_EEE6resizeEjRKS3_
Ref:__ZN11UnityEngine7Connect13ConfigHandler12GetListenersERKN4core12basic_stringIcNS2_20StringStorageDefaultIcEEEE
RAa:__ZN9GfxDevice18AllocRenderSurfaceEb
Vkf:__ZN5physx23PxVehicleWheels4SimData11setTireDataEjRKNS_17PxVehicleTireDataE
Vpe:__ZN5physx31setupFinalizeSolverConstraints4EPNS_21PxcSolverContact4DescERNS_18PxcNpThreadContextEPhffRKNS_6shdfnd3aos5Vec4VES9_S9_S9_
D1d:__ZN5physx7NpScene5flushEb
Wgc:__ZN10TagManager32GetSortingLayerUniqueIDFromValueEi
rdf:__ZN11UnityEngine7Connect15DeviceInfoEvent7GFXInfoD2Ev
DIf:_AspectRatioFitter_get_rectTransform_m2996235303
m8:__ZL27CleanupCoreScriptingClassesv
rlf:__ZN5physx22PxVehicleWheelsSimData11enableWheelEj
h6c:__Z19UpdateSingleRow2TplIL27ParticleSystemCurveEvalMode2ELS0_1EEvfRK11MinMaxCurveS3_RK23ParticleSystemParticlesPfbiii
Zad:__ZN5physx2Gu13GeometryUnion3setERKNS_10PxGeometryE
Oah:_Enumerator_VerifyCurrent_m3071620407_AdjustorThunk
C8g:_Comparer_1_System_Collections_IComparer_Compare_m1313384821_gshared
wkf:__ZN5physx22PxVehicleWheelsSimData12disableWheelEj
BBc:__Z26AnimationCurve_CUSTOM_InitP12Il2CppObjectP11Il2CppArray
KCm:_glUniform1uiv__wrapper
Djk:__ZN6il2cpp2vm10Reflection7IsEventEP12Il2CppObject
$6:__ZN17PersistentManager26GetStreamNameSpaceInternalEi
OO:__ZN4FMOD6System11createSoundEPKcjP22FMOD_CREATESOUNDEXINFOPPNS_5SoundE
Yo:FUNCTION_TABLE_iiifiiii
mMe:__ZN13SpeedTreeWind20AdvanceWithoutUpdateEd
mYh:_DateTime_System_IConvertible_ToDecimal_m1044850612
lTh:_X509Store_get_Factory_m3282910266
XFe:__ZThn128_N5physx7profile8ZoneImplINS_28PxProfileNameProviderForwardEED1Ev
Kja:__ZN9ShaderLab19CommonPropertyNames13StaticCleanupEPv
a9:__Z31scripting_method_get_returntype18ScriptingMethodPtr
zae:__ZN5physx2Sq17AABBTreeUpdateMap10invalidateEjjRNS0_8AABBTreeE
$Tj:__ZL24UnresolvedVirtualCall_76P12Il2CppObjectPK10MethodInfo
Ygb:__ZN15SerializeTraitsI12LightmapDataE8TransferI24GenerateTypeTreeTransferEEvRS0_RT_
Tdi:_SecurityElement_AddAttribute_m311510562
ipe:__ZN5physx28solveParallelDefaultFrictionERNS_18PxsDynamicsContextEjjPNS_13PxcSolverBodyEPNS_17PxcSolverBodyDataEjjPNS_25PxcArticulationSolverDescEjPNS_23PxcSolverConstraintDescEjS9_jPiSA_SA_SA_SA_SA_PNS_25PxcThresholdStreamElementEjSA_PNS_2Cm13SpatialVectorEPKPNS_11PxsBodyCoreERNSD_10BitMapBaseINS_6shdfnd9AllocatorEEEPKPNS_15PxsArticulationEjPViRNSL_5ArrayINS_24PxsConstraintBatchHeaderENSL_19ReflectionAllocatorISW_EEEES10_RNSV_IjNSX_IjEEEES13_PPNS_12PxsRigidBodyEj
azm:_glStencilOpSeparate__wrapper
oTe:__ZN15TerrainCollider23VirtualRedirectTransferER24GenerateTypeTreeTransfer
Bsc:__ZN4Mesh5SetUvEiPKfjj
Zhb:__ZN7Texture13SetAnisoLimitENS_20AnisotropicFilteringE
SW:__ZN11AudioModule16SetListenerPauseEb
Cmm:_LandingGear_Start_m773805534
vbg:_Attribute_IsDefined_m4069052474
xi:_emscripten_glCompressedTexSubImage2D
BNa:__ZN13GfxDeviceGLES22MemoryBarrierImmediateEyN2gl17MemoryBarrierTypeE
ym:_abort
hLa:__ZN6prcoreL26RemapGenericFloatToIntegerI18TexFormatARGBFloat17TexFormatARGB8888EEvPKNS_9InnerInfoE
H3i:_List_1_set_Capacity_m1977188119_gshared
ICk:__ZN6il2cpp6icalls8mscorlib6System10Reflection9MonoField16GetValueInternalEP21Il2CppReflectionFieldP12Il2CppObject
Awc:__Z46GetShaderModelNumericValueFromRequirementsMask18ShaderRequirements
wXe:_cff_ps_has_glyph_names
Oze:__ZN5physx15writeWordBufferEPKtjbRNS_14PxOutputStreamE
Owi:_Dictionary_2_Resize_m3287623642_gshared
fFk:_GC_write
qJg:_RC2_Create_m2516417038
tPf:_Graphic_OnPopulateMesh_m767318148
agh:_Dictionary_2_Remove_m4193450060_gshared
slh:_ConstructionCallDictionary__ctor_m2541174073
vjh:_RemotingServices_IsTransparentProxy_m1535738947
Yej:_Array_InternalArray__set_Item_TisMark_t3471605523_m1299772331_gshared
tJc:__Z44Register_UnityEngine_GUIStyle_SetDefaultFontv
Xzk:__GLOBAL__sub_I_ThreadImpl_cpp
XLb:__Z18Transfer_BlittableI18StreamedBinaryReadILb1EELb1EiEvRK29SerializationCommandArgumentsR31RuntimeSerializationCommandInfo
jJ:__ZN9BlobWrite8TransferI22OffsetPtrArrayTransferIKN4math7_float3EEEEvRT_PKc17TransferMetaFlags
lob:__ZN16MeshSkinningData14GetBoneWeightsEi
O9k:__Z173RuntimeInvoker_Int32_t2950945753_RuntimeObject_Int32_t2950945753_Int32_t2950945753_Int32_t2950945753_RuntimeObject_Int32_t2950945753_SByte_t1669577662_ContextU26_t3937453398PFvvEPK10MethodInfoPvPS4_
fZi:_List_1__ctor_m2576108087_gshared
rik:__ZN15dense_hashtableINSt3__24pairIK10KeyWrapperINS1_IPK12PropertyInfoP11Il2CppClassEEEjEES9_17ReflectionMapHashIS8_EN14dense_hash_mapIS9_jSD_NS9_14EqualsComparerINS0_8equal_toIS8_EEEENS0_9allocatorISB_EEE9SelectKeyESI_SK_E12maybe_shrinkEv
Osd:__ZN5physx2Sc7BodySim37checkSleepReadinessBesidesWakeCounterEv
wMb:__Z18Transfer_BlittableI18StreamedBinaryReadILb1EELb1EsEvRK29SerializationCommandArgumentsR31RuntimeSerializationCommandInfo
yMi:_StringBuilder_Remove_m940064945
Ikf:__ZN5physx22PxVehicleWheelsSimData21setTireLoadFilterDataERKNS_27PxVehicleTireLoadFilterDataE
kHg:_DESCryptoServiceProvider_GenerateIV_m683687014
b6c:__Z19UpdateSingleRow2TplIL27ParticleSystemCurveEvalMode1ELS0_2EEvfRK11MinMaxCurveS3_RK23ParticleSystemParticlesPfbiii
bib:__ZL21SetAnisoLimitEnumImplN7Texture20AnisotropicFilteringEb
cdf:__ZN22BaseUnityConnectClient17OnEnterStateReadyEv
N_d:__ZN5physx2Sc10NPhaseCore24createTriggerInteractionERNS0_8ShapeSimES3_NS_7PxFlagsINS_10PxPairFlag4EnumEtEE
PEh:_Text_get_fontSize_m1677872538
FHg:_DSACryptoServiceProvider_get_PublicOnly_m3933928860
_1a:__ZN14GrowableBufferD2Ev
HAc:__Z29Input_CUSTOM_GetMouseButtonUpi
Ycd:__ZN5physx2Gu12selectNormalEhff
ubk:__ZN6il2cpp6icalls8mscorlib6System8MonoType16InternalGetEventEP20Il2CppReflectionTypeP12Il2CppStringi
tLj:_UriScheme_t722425697_marshal_pinvoke_back
oZe:_UNITY_tt_face_load_maxp
XAc:__Z46Input_CUSTOM_INTERNAL_set_compositionCursorPosRK13Vector2fIcall
SB:__ZN7mecanim5human12FullBodyMaskEv
aUd:__ZN5physx3Scb14ParticleSystem16releaseParticlesEjRKNS_16PxStrideIteratorIKjEE
OHh:_BigInteger_ToString_m3475000413
Sob:__ZN19ShaderPropertySheet11ComputeHashEv
H5j:__ZN30dense_hashtable_const_iteratorI10KeyWrapperIPK19Il2CppGenericMethodES4_N6il2cpp8metadata23Il2CppGenericMethodHashEN14dense_hash_setIS4_S7_NS4_14EqualsComparerINS6_26Il2CppGenericMethodCompareEEENSt3__29allocatorIS4_EEE8IdentityESB_SE_EppEv
M4d:__ZN5physx2Sc5Scene21processLostTouchPairsEv
R0:__ZN11UnityEngine15CloudWebService20WebRequestRestClient6IsDoneEv
uj:_llvm_fabs_f32
u0:__ZN11UnityEngine15CloudWebService16SessionContainer16GetJsonDataBlockEjRKN4core12basic_stringIcNS2_20StringStorageDefaultIcEEEERS6_PjSA_
dJh:_ASN1_Decode_m1695284166
Mx:__ZN7mecanim9animation18ClipMuscleConstant8TransferI14SafeBinaryReadEEvRT_
bje:__ZN5physx22PxcContactConvexConvexERKNS_2Gu13GeometryUnionES3_RKNS_11PxTransformES6_RKfRNS_10PxcNpCacheERNS0_13ContactBufferE
x4h:_Enum_ToString_m3248653065
ocd:__ZNK5physx2Gu11ConvexHullV12HillClimbingERKNS_6shdfnd3aos5Vec3VE
p7:__ZN14SafeBinaryReadD2Ev
gic:__Z13RegisterClassI7TextureEvv
rHi:_Enumerator_MoveNext_m3859993671_gshared
MNb:__ZN8Gradient8TransferI18StreamedBinaryReadILb1EEEEvRT_
iVh:_Capture__ctor_m3103117740
$jb:__ZN4core8hash_mapINS_12basic_stringIcNS_20StringStorageDefaultIcEEEE13dynamic_arrayI4PPtrI6SpriteELj4EENS_4hashIS4_EENSt3__28equal_toIS4_EEEixERKS4_
M8k:__Z113RuntimeInvoker_Void_t1185182177_RuntimeObject_Int64_t3736567304_RuntimeObject_Int64_t3736567304_Int64_t3736567304PFvvEPK10MethodInfoPvPS4_
pWg:_U3CGetEnumeratorU3Ec__Iterator0_Reset_m1192421843_gshared
ypd:__ZN5physx2Sc10NPhaseCore16deleteFilterPairEPNS0_10FilterPairE
U1c:__ZN14ParticleSystem15ThreadedCleanupEv
m1j:__ZN6il2cpp2vmL17SetupEventsLockedEP11Il2CppClassRKNS_2os12FastAutoLockE
etk:__ZN6il2cpp6icalls8mscorlib6System4Type15MakeGenericTypeEP20Il2CppReflectionTypeP11Il2CppArray
DHe:_PxCreateBasePhysics
Wj:_SDL_PauseAudio
$jg:_Hashtable_Clone_m3078962909
Cmk:_il2cpp_class_from_type
Lck:__ZN6il2cpp2os4File11GetStdErrorEv
Cpf:__ZN5physx23SetMFrictionVsSlipGraphEPNS_17PxVehicleTireDataEjjf
ytd:__ZN5physx2Sc5Scene28addActiveBreakableConstraintEPNS0_13ConstraintSimE
Jja:__ZN9ShaderLab19CommonPropertyNames16StaticInitializeEPv
wId:__ZN5physx6shdfnd8PoolBaseINS_16NpParticleSystemENS0_19ReflectionAllocatorIS2_EEE15disposeElementsEv
oL:__ZN7mecanim9animation18CreateAvatarOutputEPKNS0_14AvatarConstantEbbRNS_6memory9AllocatorE
rGe:__ZN5physx7profile11EventBufferINS_24PxDefaultContextProviderENS_6shdfnd6MutexTINS0_26WrapperReflectionAllocatorIhEEEENS0_14ScopedLockImplIS7_EENS_24PxProfileNullEventFilterEE10eventValueEtyx
I9f:_Array_GetLongLength_m561139708
_Wc:__Z14UpdateSpeedTplIL27ParticleSystemCurveEvalMode1EEvRK11MinMaxCurveR23ParticleSystemParticlesjj
FDh:_Slider_set_maxValue_m2251404465
KU:__ZN11AudioSource23VirtualRedirectTransferER24GenerateTypeTreeTransfer
Frc:__ZN7Texture11SetWrapModeE15TextureWrapMode
wkb:__ZN14Texture2DArray23VirtualRedirectTransferER14SafeBinaryRead
JBg:_MissingMemberException__ctor_m1220732369
k3b:__ZNK6Camera21CalculateCanDoShadowsEv
l3d:__ZNK5physx2Sc5Scene17getBroadPhaseCapsERNS_16PxBroadPhaseCapsE
kFd:__ZN5physx9NpFactory14onActorReleaseEPNS_7PxActorE
lNk:_Application_InvokeOnBeforeRender_m2875673833
Jzk:__ZN6il2cpp2os6Thread12SetStackSizeEj
Avd:__ZN5physx2Sc5Actor15onElementAttachERNS0_7ElementE
pyh:_MaskableGraphic_RecalculateMasking_m183336762
vjj:_Array_InternalArray__get_Item_TisRuntimeObject_m3347010206_gshared
L_f:_TypeBuilder_IsSubclassOf_m3458909121
yrc:__ZNK8Renderer16IsVisibleInSceneEv
VTf:_Default_check_arguments_with_score_m3467814020
P6:__Z13VFormatBufferPciPKcz
BTd:__ZN5physx2Sc18ParticleSystemCore23setSimulationFilterDataERKNS_12PxFilterDataE
SOb:__Z18Transfer_BlittableI18StreamedBinaryReadILb0EELb1EhEvRK29SerializationCommandArgumentsR31RuntimeSerializationCommandInfo
t6f:_X509Certificate__cctor_m198658613
DXk:_PlayableHandle_Equals_m1666612586_AdjustorThunk
lLa:__ZN6prcoreL27StretchGenericFloatBilinearI15TexFormatRFloatEEvPKNS_9InnerInfoE
t9d:__ZN5physx6shdfnd8internal8HashBaseINS0_4PairIKNS_2Sq13PrunerPayloadEjEES5_NS0_4HashIS5_EENS1_11HashMapBaseIS5_jS9_NS0_9AllocatorEE6GetKeyESB_Lb1EE15reserveInternalEj
iSl:__ZL139ServicePointManager_t170559685_CustomAttributesCacheGenerator_ServicePointManager_t170559685____CheckCertificateRevocationList_PropertyInfoP21CustomAttributesCache
J4h:_Enum_ToObject_m1628250250
FE:__Z24ProcessAnimationMixBeginP35AnimationPlayableEvaluationConstantP32AnimationPlayableEvaluationInputP33AnimationPlayableEvaluationOutput
Q1i:_List_1_set_Item_m2057272351_gshared
oIa:__Z14PadImageBorderR14ImageReferenceii
Tgk:__ZN15dense_hashtableINSt3__24pairIK10KeyWrapperINS1_IPK10MethodInfoP11Il2CppClassEEEjEES9_17ReflectionMapHashIS8_EN14dense_hash_mapIS9_jSD_NS9_14EqualsComparerINS0_8equal_toIS8_EEEENS0_9allocatorISB_EEE9SelectKeyESI_SK_E4findERSA_
R8j:__ZN6il2cpp2vm13MetadataCache28GetFieldDefaultValueForFieldEPK9FieldInfo
Bpi:_Array_IndexOf_TisUIVertex_t4057497605_m3336763564_gshared
hF:__ZN27AnimationLayerMixerPlayableD2Ev
WKf:_ColorBlock_Equals_m518833916_AdjustorThunk
ede:__ZN5physx2Gu22gjkRelativePenetrationINS0_9TriangleVENS0_8CapsuleVEEEjRKT_RKT0_RKNS_6shdfnd3aos15PsMatTransformVERKNSB_6FloatVERNSB_5Vec3VESJ_SJ_RSF_PhSL_Rh
fyl:__Z102RuntimeInvoker_RuntimeObject_RaycastHit_t1056001966_RaycastHit_t1056001966_RuntimeObject_RuntimeObjectPFvvEPK10MethodInfoPvPS4_
gBe:__ZN9Rigidbody14SetIsKinematicEb
n$l:__ZL66PersistentCall_t3407714124_CustomAttributesCacheGenerator_m_TargetP21CustomAttributesCache
VQ:__ZN12AudioManager39HandlePendingAudioConfigurationCallbackEv
Uk:_emscripten_glIsFramebuffer
FLh:_RSAManaged_EncryptValue_m799827583
vba:__ZN12_GLOBAL__N_16qAtan2Eff
CKe:__Z13RegisterClassI9RigidbodyEvv
Yk:_JS_Sound_SetLoopPoints
vma:__ZN15dense_hashtableINSt3__24pairIKyP17VertexDeclarationEEy14GfxGenericHashIyEN14GfxDoubleCacheIyS4_S7_NS0_8equal_toIyEEN31GfxDoubleCacheConcurrencyPolicy11LocklessGetE42GfxDoubleCacheDefaultEmptyDeletedGeneratorIyEE9SelectKeyESA_13stl_allocatorIS5_L18MemLabelIdentifier24ELi16EEE14squash_deletedEv
YV:__ZN12AudioManager17ShouldSourcePauseEb
coc:__ZN12BaseRenderer20SetLightmapSTNoDirtyERK8Vector4f12LightmapType
GJk:__ZN6il2cpp2vm26MetadataAllocGenericMethodEv
smi:_Array_InternalArray__ICollection_Remove_TisUInt16_t2177724958_m1766181761_gshared
mRa:__ZN19ConstantBuffersGLES12RecordRenderEv
X8d:__ZN5physx13ActorAABBTaskD2Ev
_Mc:__ZN9JSONWrite8TransferI10RectOffsetEEvRT_PKc17TransferMetaFlags
VHa:__ZN4crnd12symbol_codec11decode_bitsEj
qVe:_cf2_doFlex
zPj:_AesManaged_GenerateIV_m1368817386
o7a:__ZN10Matrix3x4f8TransferI24GenerateTypeTreeTransferEEvRT_
lic:__Z13RegisterClassI15QualitySettingsEvv
_vf:__Z35setPxVehicleDriveSimData_EngineDataPN5physx21PxVehicleDriveSimDataERKNS_19PxVehicleEngineDataE
ZQ:__ZN4FMOD6System12createReverbEPPNS_6ReverbE
LCk:__ZN6il2cpp2vm6String21InitializeEmptyStringEP11Il2CppClass
_E:__ZN7mecanim19ValueArrayBlendNodeILb1EEEvRKNS_10ValueArrayERKNS_14ValueArrayMaskERS1_RS4_RNS_16ValueArrayWeightEf
Mwb:__Z16MarkDependenciesR27GarbageCollectorThreadStatej
jAj:_ObjectPool_1_get_countInactive_m526975942_gshared
Coh:_RemotingServices_DisposeIdentity_m2605848806
Hba:__ZNK9Transform11GetPositionEv
c8c:__ZNSt3__211__sift_downIRNS_4lessI23TransformAccessReadOnlyEEPS2_EEvT0_S6_T_NS_15iterator_traitsIS6_E15difference_typeES6_
mOk:_Bounds_set_size_m4127623202
spg:_GuidParser_Reset_m2640004655
$4a:__ZN23SharedMeshRenderingData18UnloadVertexStreamEi
imd:__ZN5physx3Cct13HandleManager3AddEPv
qoc:__ZN31CanvasBatchIntermediateRenderer11AddSubBatchERK16DrawBuffersRangePK19ShaderPropertySheet
Mmc:__ZN19RenderEventsContextC2Ei
B_:__Z6simd4fRKf
Al:_emscripten_glEnable
r$g:_InternalEnumerator_1_System_Collections_IEnumerator_get_Current_m2982675020_gshared
m7c:__ZNK14ParticleSystem16GetParticleCountEv
U$a:__ZN10TagManager23VirtualRedirectTransferER14SafeBinaryRead
icm:__ZL51RawImage_t3182918964_CustomAttributesCacheGeneratorP21CustomAttributesCache
mue:__ZNK5physx2Sc15ClothFabricCore9getNbSetsEv
CFf:_PhysicsRaycaster_Raycast_m776323695
V5b:__Z15InitLightMeshesv
u0f:_MonoCMethod_ToString_m3992577062
FQe:__ZN20QuadTreeNodeRenderer5SetupEP15TerrainRendererP12QuadTreeNode20ReflectionProbeUsageP9Transform
s2d:__ZNK5physx7NpScene26getNbContactDataBlocksUsedEv
xo:FUNCTION_TABLE_iifiii
Uhd:__ZN5physx2Gu29computeCapsule_HeightFieldMTDERKNS_21PxHeightFieldGeometryERKNS_11PxTransformERNS0_8CapsuleVEffbjRNS_10PxSweepHitE
Fve:__ZN5physx2Gu11HeightField15exportExtraDataERNS_22PxSerializationContextE
Uhb:__ZN15QualitySettings8TransferI19StreamedBinaryWriteILb0EEEEvRT_
yxh:_LayoutUtility_U3CGetFlexibleHeightU3Em__7_m2991026842
UUe:_cf2_arrstack_init
Ejj:_Array_InternalArray__get_Item_TisResourceCacheItem_t51292791_m1306056717_gshared
Jnl:__Z157RuntimeInvoker_Void_t1185182177_RuntimeObject_RuntimeObject_RuntimeObject_RuntimeObject_RuntimeObject_RuntimeObject_RuntimeObject_RuntimeObject_RuntimeObjectPFvvEPK10MethodInfoPvPS4_
cfk:__ZN15dense_hashtableINSt3__24pairIK10KeyWrapperINS1_IPK14Il2CppAssemblyP11Il2CppClassEEEjEES9_17ReflectionMapHashIS8_EN14dense_hash_mapIS9_jSD_NS9_14EqualsComparerINS0_8equal_toIS8_EEEENS0_9allocatorISB_EEE9SelectKeyESI_SK_E15insert_noresizeERKSB_
F4:__Z15CleanLogHandler7LogTypePKcz
lEg:_NumberFormatter_NumberToString_m2481532188
Kva:__ZN9ShaderLab19SerializedSubShader8TransferI19StreamedBinaryWriteILb0EEEEvRT_
xKd:__ZN5physx10NpMaterialC2ERKNS_2Sc12MaterialCoreE
QBh:_ScrollRect_InternalGetBounds_m599803667
Prf:__Z31setPxVehicleNoDrive_BrakeTorquePN5physx16PxVehicleNoDriveEjf
Yle:__ZN5physx9PxTaskMgr10resolveRowEjb
iSb:__ZN6Camera17RemoveImageFilterERK11ImageFilter
pxa:__ZNSt3__218__insertion_sort_3IR25ValueParameterArraySorterPN20GpuProgramParameters14ValueParameterEEEvT0_S6_T_
jUc:__ZN14EmissionModule15AccumulateBurstER27ParticleSystemEmissionStateRK11MinMaxCurvef
ejg:_Comparer__cctor_m3311686689
uyf:__ZN5physx18RepXPropertyFilterINS_2Sn17RepXVisitorWriterINS_19PxVehicleClutchDataEEEEclILj561ES3_jjEEvRKNS_14PxPropertyInfoIXT_ET0_T1_T2_EEj
S1c:__ZN11ShapeModule17MainThreadCleanupEv
Tqf:__Z35setPxVehicleWheelsSimData_WheelDataPN5physx22PxVehicleWheelsSimDataEjNS_18PxVehicleWheelDataE
A1c:__ZN9SubModule5ResetEv
V_g:_InternalEnumerator_1_get_Current_m3500427238_AdjustorThunk
gaf:__ZN2UI26InitializeDeviceForOverlayEi
Ite:__ZNK5physx13NpClothFabric13getRestvaluesEPfj
Kia:__Z27LogRepeatingStringWithFlagsRKN4core12basic_stringIcNS_20StringStorageDefaultIcEEEE15LogMessageFlagsi
jfd:__ZN5physx2Gu16_gjkLocalRayCastINS0_9TriangleVENS0_11ConvexHullVEEEbRT_RT0_RKNS_6shdfnd3aos6FloatVERKNS9_5Vec3VESF_RSA_RSD_SH_f
K4h:_Enum_IsDefined_m1442314461
uPi:_Thread__cctor_m817723615
rRj:_AudioExtensionManager_RegisterBuiltinDefinitions_m2742744104
rC:__ZN17AnimationPlayable28ComputeNeedsBindingRebuildedEv
yB:__ZN17AnimationPlayable23RequestAllocateBindingsEv
Jtd:__ZN5physx6shdfnd8PoolBaseINS_2Cm5BlockIPvLj32EEENS0_19ReflectionAllocatorIS5_EEE17releaseEmptySlabsEv
KSk:_RenderPipelineManager_set_currentPipeline_m3492857006
QRh:_PublicKey_DecodeDSA_m3490622362
jfe:__ZN5physx23PxsBroadPhaseContextSap21batchUpdateFewUpdatesEjRPNS_17PxcBroadPhasePairERjS4_
eki:_DecoderReplacementFallbackBuffer_Fallback_m1261056214
zid:__ZN5physx3Cct17getSceneTimestampEPKNS0_30InternalCBData_FindTouchedGeomE
ETf:_Binder_get_DefaultBinder_m950908649
ACc:__Z49Register_UnityEngine_Resources_GetBuiltinResourcev
fwg:_StreamReader__ctor_m1616861391
wXj:_TextGenerationSettings_CompareColors_m3051734236_AdjustorThunk
Jff:__ZN18UnityConnectClient33OnPlayerSessionStateChangedStaticEPS_jyy
RPe:__ZN14TerrainManager27UnloadTerrainsFromGfxDeviceEv
eml:__Z109RuntimeInvoker_Boolean_t97287965_Vector3_t3722313464_Vector3_t3722313464_Single_t1397266774_Int32_t2950945753PFvvEPK10MethodInfoPvPS4_
nai:_RSA_ToXmlString_m2922661427
ime:__ZN5physx2Sc17ParticleSystemSim20scheduleCollisionCpuERNS0_16InteractionSceneERKNS_6shdfnd5ArrayIPS1_NS4_19ReflectionAllocatorIS6_EEEERNS_10PxBaseTaskE
B1:__ZNK11UnityEngine15CloudWebService23WebRequestUploadHandler11GetProgressEv
UBc:__Z25PlayerPrefs_CUSTOM_GetIntP12Il2CppStringi
VEa:__ZN7ApiGLES4LoadE16GfxDeviceLevelGL
jhb:__ZN18StreamedBinaryReadILb0EE21TransferSTLStyleArrayI13dynamic_arrayI31EnlightenSystemAtlasInformationLj8EEEEvRT_17TransferMetaFlags
ILg:_ASN1_Add_m2431139999
GJd:__ZN5physx9NpPhysics15createAggregateEjb
PHa:__ZN4crnd12crn_unpacker22decode_color_endpointsEv
wwk:__ZN15dense_hashtableI10KeyWrapperIP18Il2CppGenericClassES3_N6il2cpp8metadata22Il2CppGenericClassHashEN14dense_hash_setIS3_S6_NS3_14EqualsComparerINS5_25Il2CppGenericClassCompareEEENSt3__29allocatorIS3_EEE8IdentityESA_SD_E15insert_noresizeERKS3_
dlc:__ZZL31RegisterOtherRendererPropertiesR22GenericPropertyBindingEN30Wrapper_RendererReceiveShadows13GetFloatValueEPv
aEe:__ZN9Rigidbody5ResetEv
Nki:_Array_InternalArray__ICollection_Contains_TisSlot_t384495010_m688761886_gshared
Cfb:__ZN17SharedTextureDataC2E10MemLabelIdii13TextureFormatjiibb
Apl:__Z114RuntimeInvoker_RuntimeObject_RuntimeObject_Int32_t2950945753_Int32_t2950945753_Int32_t2950945753_Int32_t2950945753PFvvEPK10MethodInfoPvPS4_
pVb:__ZN8Material11SetPassFastEPN9ShaderLab4PassER17ShaderPassContextP6Shaderib
kFc:__Z31Renderer_Set_Custom_PropEnabledP12Il2CppObjectb
Hff:__ZN11UnityEngine7Connect20BasePersistentValues10SaveValuesER9JSONWrite
jcj:_Collection_1_IsFixedSize_m3748602684_gshared
oYh:_DateTime_System_IConvertible_ToDouble_m2116720007
$Qk:_Display_GetSystemExtImpl_m2808197389
IQi:_WaitHandle_WaitOne_m2577152516
f1c:__ZN11ShapeModule18MultiModeParameterIN25IParticleSystemProperties8PropertyIfNS1_5ClampILi0ELi360EEEEEE8TransferI19StreamedBinaryWriteILb0EEEEvRT_
tpb:__ZN14SafeBinaryRead21TransferSTLStyleArrayINSt3__26vectorI17SubstanceEnumItemNS1_9allocatorIS3_EEEEEEvRT_17TransferMetaFlags
g6f:_X509Certificate_PEM_m1177570576
Crg:_NumberFormatter_AppendExponent_m1258666517
AWg:_ArrayReadOnlyList_1_GetEnumerator_m1835926958_gshared
Ple:__ZN5physx9PxTaskMgr12addReferenceEj
Stc:__Z14ScaleCurveTimeR17AnimationCurveTplIfEf
Xla:__ZN22VirtualJoystickManagerC2Ev
iFj:_X509Stores_Open_m1037335183
xla:__ZN20GlobalCachingManager7DisposeEv
i0b:__Z12SetupLODFadeR9GfxDeviceR17ShaderPassContextf
udb:__ZNK14PlayableOutput7GetTypeEv
I5b:__ZL24CollectForwardObjectsJobP27CollectForwardObjectsHeader
M2i:_List_1_get_Item_m1378751541_gshared
D7b:__Z13IsNodeVisibleRK9SceneNodeRK4AABBRK22SceneCullingParameters
dqi:_Array_InternalArray__IndexOf_TisLabelFixup_t858502054_m1491765395_gshared
BGh:_SortKeyBuffer_AppendCJKExtension_m2591091991
Q7c:__ZN11ShapeModuleC2E10MemLabelId
aOi:_UTF8Encoding_GetByteCount_m4153686982
D8b:__Z24ScheduleCullingAllGroupsR8JobFenceRK22SceneCullingParametersiRK13CullingOutputRK13dynamic_arrayIP12CullingGroupLj4EERKS_
REm:_emscripten_glStencilMask__wrapper
B7k:__Z49RuntimeInvoker_Void_t1185182177_Double_t594665363PFvvEPK10MethodInfoPvPS4_
x5j:__ZN15dense_hashtableI10KeyWrapperIPK19Il2CppGenericMethodES4_N6il2cpp8metadata23Il2CppGenericMethodHashEN14dense_hash_setIS4_S7_NS4_14EqualsComparerINS6_26Il2CppGenericMethodCompareEEENSt3__29allocatorIS4_EEE8IdentityESB_SE_EC2ERKSH_j
Z6j:__ZN15dense_hashtableINSt3__24pairIK10KeyWrapperIN6il2cpp5utils13dynamic_arrayIPK10Il2CppTypeLj4EEEEPFvvEEESA_NS3_8metadata19Il2CppSignatureHashEN14dense_hash_mapISA_SD_SG_NSA_14EqualsComparerINSF_22Il2CppSignatureCompareEEENS0_9allocatorISE_EEE9SelectKeyESK_SM_EC2EjRKSG_RKSK_RKSO_
U1a:__ZN15RenderNodeQueue7CleanupEv
Oga:__ZN14LineParameters8TransferI24GenerateTypeTreeTransferEEvRT_
And:__ZN16NovodexAllocator8allocateEjPKcS1_i
lcb:__ZN39DeprecatedFastPropertyNameSerialization8TransferI14SafeBinaryReadEEvRT_
MCj:_DeriveBytes_DeriveIV_m973925711
isg:_Int32_System_IConvertible_ToSByte_m3133688512
F5b:__ZN9ShaderLab10GrabPassesD2Ev
Hkb:__ZN14Texture2DArray13UploadTextureEv
WSe:__ZN9HeightmapC2EP11TerrainData
Zfc:__ZZL31RegisterTrailRendererPropertiesR22GenericPropertyBindingEN36Wrapper_TrailRendererWidthMultiplier13GetFloatValueEPv
XZe:_tt_cmap14_done
Iub:__ZN18AwakeFromLoadQueue25RegisterObjectInstanceIDsEv
evi:_Dictionary_2_Add_m4262304220_gshared
NQk:_Debug__cctor_m1523394265
mF:__ZNK27AnimationLayerMixerPlayable11DerivesFromE17ScriptingClassPtr
h4e:__ZN20TextRenderingPrivate19NativeTextGenerator15InsertCharacterEiPj
d3d:__ZN5physx2Sc5Scene22removeBroadPhaseRegionEj
Amd:__ZN5physx2Cm12RenderBuffer5clearEv
RQd:__ZNK5physx2Sc9ClothCore21getStiffnessFrequencyEv
KCg:_MonoType_get_attributes_m1332507727
qNj:_GUIContent_ClearStaticCache_m1205116045
zZc:__ZN24OptimizedPolynomialCurve19BuildOptimizedCurveERK17AnimationCurveTplIfEf
ube:__ZN5physx13PxsCCDContext14postCCDAdvanceEPNS_10PxBaseTaskE
_ei:_WindowsIdentity_Dispose_m3466258450
Xph:_BinaryCommon__cctor_m2978407547
reg:_Char_System_IConvertible_ToByte_m2347554595
Hrk:__ZN6il2cpp6icalls8mscorlib6System2IO6MonoIO20GetFileSystemEntriesEP12Il2CppStringS6_iiPi
Q5e:__ZN20TextRenderingPrivate15DynamicFontData21GetFontMetricsForFaceERK13dynamic_arrayIN4core17string_with_labelILi35EEELj4EEiRKS1_I4PPtrIN13TextRendering4FontEELj4EEPfSF_
Tyj:_IndexedSet_1__ctor_m2250384602_gshared
lUi:_UInt16_TryParse_m4139137016
vBk:__ZN6il2cpp2gc16GarbageCollector9FreeFixedEPv
WKi:_Encoding__ctor_m2997749867
lUk:_ManagedStreamHelpers_ManagedStreamSeek_m3158782053
jom:_ButtonOptions_TimerRe_m2657036385
FJj:_ExpressionAssertion_Compile_m2166597834
BRb:__ZN16ScriptingManagerD0Ev
lgi:_Single_System_IConvertible_ToSByte_m1208276900_AdjustorThunk
kSg:_TlsClientCertificate_ProcessAsSsl3_m3265529850
aEk:__ZN6il2cpp6icalls8mscorlib6System7Convert24InternalFromBase64StringEP12Il2CppStringb
Khe:__ZNK5physx10BPWorkTask7getNameEv
SFd:__ZN5physx2Sc8ShapeSim16onResetFilteringEv
cvk:__ZN30dense_hashtable_const_iteratorINSt3__24pairIK10KeyWrapperINS1_IPKcS4_EEEiEES6_24NamespaceAndNamePairHashN14dense_hash_mapIS6_iS9_NS6_14EqualsComparerI26NamespaceAndNamePairEqualsEENS0_9allocatorIS8_EEE9SelectKeyESD_SF_EppEv
dzc:__Z44Register_UnityEngine_Component_get_transformv
nK:__ZN12_GLOBAL__N_120ProcessPlayableGraphERN8Animator11AnimatorJobER35AnimationPlayableEvaluationConstantR32AnimationPlayableEvaluationInputR33AnimationPlayableEvaluationOutputPFvS4_R17AnimationPlayableEPFvS4_S6_S8_EPFvS8_S4_S6_S8_fESE_MS9_FvPS3_PS5_PS7_E
pZj:_CanvasRenderer_get_absoluteDepth_m2703237819
Q8h:_TextInfo_ToLower_m2744057472
mYb:__ZN17ArchiveFileSystem12MountArchiveEPKcS1_
bCi:_EqualityComparer_1_System_Collections_IEqualityComparer_Equals_m3977314386_gshared
dMc:__Z18Transfer_BlittableI9JSONWriteLb1E8Vector4fEvRK29SerializationCommandArgumentsR31RuntimeSerializationCommandInfo
so:FUNCTION_TABLE_viififiii
X5h:_CCGregorianCalendar_year_from_fixed_m463929682
m8e:__ZN2UI13CanvasManagerD0Ev
j5:__ZThn32_NK8Renderer14GetSubsetIndexEi
BQk:_Debug_get_unityLogger_m2239795986
FMg:_MD2Managed_Initialize_m2341076836
prj:_ReadOnlyCollection_1_System_Collections_IList_Add_m4240023232_gshared
KBa:__ZN9GfxDevice15ImmediateVertexEfff
Rhc:__Z13RegisterClassI8MaterialEvv
ugb:__ZNK16LightmapSettings22GetTypeVirtualInternalEv
aza:__ZN13GfxDeviceGLES15SetStencilStateEPK18DeviceStencilStatei
fdg:_Buffer_BlockCopyInternal_m418318694
Upm:_cycle
SDk:__ZN6il2cpp2vm8Profiler7GCEventE13Il2CppGCEvent
m9k:__Z76RuntimeInvoker_Void_t1185182177_RuntimeObject_RuntimeFieldHandle_t1871169219PFvvEPK10MethodInfoPvPS4_
ke:_emscripten_glUniform1iv
SPi:_Thread_get_ManagedThreadId_m1068113671
yAb:__ZN16MemoryFileSystemD2Ev
D9k:__Z150RuntimeInvoker_Int32_t2950945753_RuntimeObject_Int32_t2950945753_Int32_t2950945753_RuntimeObject_Int32_t2950945753_Int32_t2950945753_Int32_t2950945753PFvvEPK10MethodInfoPvPS4_
Ibg:_BitConverter_DoubleToInt64Bits_m3574395137
SZh:_DateTime_Parse_m3729096069
kZi:_List_1_System_Collections_IList_Add_m1540114404_gshared
Nyc:__Z37Register_UnityEngine_Camera_get_depthv
Ozg:_StringReader_Read_m3322058819
Ghh:_CrossAppDomainChannel_get_ChannelPriority_m3418073750
Xuh:_Selectable_StartColorTween_m3618813981
mDf:_BaseInputModule_HandlePointerExitAndEnter_m1705532066
tFe:__ZN5physx7profile8ZoneImplINS_28PxProfileNameProviderForwardEE10startEventEty
Obe:__ZN5physx10PxsCCDPair17sweepAdvanceToToiEfb
_dc:__Z23ConvertIntegerToTypePtrItEbPvR14SafeBinaryRead
w2h:_Delegate_CombineImpl_m3572135514
Uqg:_NumberFormatter_IntegerToString_m1679294587
Hoj:_ReadOnlyCollection_1_System_Collections_IList_RemoveAt_m422909114_gshared
UK:__ZN7mecanim5human29HumanGetGoalOrientationOffsetENS0_4GoalE
Be:_emscripten_glStencilFunc
UEd:__ZN5physx6shdfnd8PoolBaseINS_2Cm5BlockIhLj384EEENS0_19ReflectionAllocatorIS4_EEE17releaseEmptySlabsEv
Pre:__ZN5physx16PxsIslandManager11freeBuffersEv
Dxd:__ZN5physx2Cm12DelegateTaskINS_2Sc17ParticleSystemSimEXadL_ZNS3_21prepareCollisionInputEPNS_10PxBaseTaskEEEE11runInternalEv
_Gf:__Z46il2cpp_codegen_get_marshal_directive_exceptionPKc
Dxa:__ZN9ShaderLab20SerializedSubProgram14AddMatrixParamEPKcii15ShaderParamTypei
n7a:__ZN24GenerateTypeTreeTransfer8TransferI13dynamic_arrayI8Vector3fLj4EEEEvRT_PKc17TransferMetaFlags
Ie:_glGetActiveUniformBlockName
rE:__ZN7mecanim13CopyValueMaskILb0EEEvPKNS_14ValueArrayMaskEPS1_
rg:_emscripten_glUniform1fv
_2c:__ZN31CollisionModulePropertyBindings13GetFloatValueERK14ParticleSystemi
Pdi:_SecurityPermission_IsSubsetOf_m545000671
tBc:__Z39Quaternion_CUSTOM_INTERNAL_CALL_InverseRK11QuaternionfRS_
UR:__ZN4FMOD7Channel20set3DConeOrientationEP11FMOD_VECTOR
jo:FUNCTION_TABLE_iiifii
IUf:_AssemblyBuilder_not_supported_m1735277432
Cyk:__ZN6il2cpp2vm12GenericClass11SetupEventsEP11Il2CppClass
S4e:_ft_open_face_internal
t_e:_tt_cmap12_get_info
kuk:__ZN6il2cpp2vm15ReboxIReferenceEP14Il2CppIUnknownP11Il2CppClass
M_j:__ZN6il2cpp6icalls8mscorlib6System7Decimal14decimalCompareEP19il2cpp_decimal_reprS5_
$fh:_Dictionary_2_OnDeserialization_m4209543208_gshared
xEk:__ZThn4_N6il2cpp2vm13CachedCCWBaseINS0_13ManagedObjectEE7ReleaseEv
aAd:__ZN5physx26PxcFsComputeJointLoadsSimdERKNS_9PxcFsDataEPKNS_12PxcFsInertiaEPNS_6shdfnd3aos6Mat33VEPKfjjNS_21PxcFsScratchAllocatorE
IZd:__ZN5physx6shdfnd8SyncImpl7getSizeEv
YSk:_GameObject_AddComponent_m136524825
GJl:__ZL62SoapMethodAttribute_t1935009310_CustomAttributesCacheGeneratorP21CustomAttributesCache
gil:__Z100RuntimeInvoker_Void_t1185182177_RuntimeObject_Int32_t2950945753_Int32_t2950945753_UInt16_t2177724958PFvvEPK10MethodInfoPvPS4_
HBm:_glCopyTexImage2D__wrapper
C3h:_Double_System_IConvertible_ToUInt32_m271206838
zha:__GLOBAL__sub_I_runtime_graphics_billboard_0_cpp
YLf:_FloatTween_TweenValue_m52237061
AVb:__Z18ClearByDrawingQuad13GfxClearFlagsRK10ColorRGBAffjR17ShaderPassContext
KKa:__ZN6prcoreL17RemapGenericFloatI14TexFormatRHalf15TexFormatRFloatEEvPKNS_9InnerInfoE
Arg:_NumberFormatter_FormatExponential_m2139559983
Z$b:__Z16ShouldUseShadowsb
Una:__ZN15DirectorManager21RebuildStageCallbacksEv
NVb:__ZN19RuntimeSceneManager9LoadSceneERKN4core12basic_stringIcNS0_20StringStorageDefaultIcEEEES6_S6_RK9UnityGUIDiNS_11LoadingModeE
AOe:__ZN13SplatDatabase8TransferI18StreamedBinaryReadILb0EEEEvRT_
aEa:__ZN7ApiGLES10DrawArraysE16GfxPrimitiveTypejjj
pP:__ZN10SampleClip13LoadBaseSoundEv
Tfd:__ZN5physx2Gu22gjkRelativePenetrationINS0_17ShrunkConvexHullVES2_EEjRKT_RKT0_RKNS_6shdfnd3aos15PsMatTransformVERKNSA_6FloatVERNSA_5Vec3VESI_SI_RSE_PhSK_Rh
v7f:_SmallXmlParser_SkipWhitespaces_m4243606597
L6h:_CompareInfo_IndexOf_m2631915198
oVf:_ConstructorBuilder_GetCustomAttributes_m2495332786
Udg:_Byte_CompareTo_m4285128861
FEf:_TriggerEvent__ctor_m87299207
LCj:_DeriveBytes_DeriveKey_m2933043667
xZ:__Z57AudioSource_CUSTOM_INTERNAL_CALL_ClearExtensionPropertiesP12Il2CppObjectRK12PropertyName
FA:__ZN7mecanim9animation4Clip8TransferI19StreamedBinaryWriteILb0EEEEvRT_
Qxk:__ZN15dense_hashtableINSt3__24pairIK10KeyWrapperIP12Il2CppObjectEN6il2cpp2gc9CachedCCWEEES5_NS7_5utils11PointerHashIS3_EEN14dense_hash_mapIS5_S9_SD_NS5_14EqualsComparerINS0_8equal_toIS4_EEEENS0_9allocatorISA_EEE9SelectKeyESI_SK_E15insert_noresizeERKSA_
Nse:__ZN5physx2Sc19ParticlePacketShapeC2ERNS0_17ParticleSystemSimEjPNS_16PxvParticleShapeE
lzi:_EqualityComparer_1__cctor_m3962593840_gshared
pdb:__ZN22DeviceMVPMatricesStateC2ER9GfxDevice
hWc:__Z9UpdateTplIL27ParticleSystemCurveEvalMode1EEvRK11MinMaxCurveS3_S3_R23ParticleSystemParticlesjjRKN4math8float3x3ERKNS6_7_float4E
IJd:__ZN5physx9NpPhysics18createTriangleMeshERNS_13PxInputStreamE
yo:FUNCTION_TABLE_iiiiifiiiif
Pn:FUNCTION_TABLE_iifii
bjb:__ZNSt3__26vectorI13dynamic_arrayI8Vector2fLj4EENS_9allocatorIS3_EEE6assignINS_11__wrap_iterIPS3_EEEENS_9enable_ifIXaasr21__is_forward_iteratorIT_EE5valuesr16is_constructibleIS3_NS_15iterator_traitsISC_E9referenceEEE5valueEvE4typeESC_SC_
Bgb:__ZN21EnlightenSceneMapping8TransferI14SafeBinaryReadEEvRT_
Slk:__ZN6il2cpp2vm10Reflection12HasAttributeEP9FieldInfoP11Il2CppClass
An:FUNCTION_TABLE_iiffi
Lc:invoke_viiifi
d2f:_MonoProperty_GetCustomAttributes_m3619796755
$we:__ZN5physx6shdfnd5ArrayIPNS_7PxActorENS0_19ReflectionAllocatorIS3_EEE8recreateEj
Dmh:_MethodDictionary_System_Collections_IEnumerable_GetEnumerator_m4169036899
jWa:__ZNK11AssetBundle14GetPreloadDataEiR13dynamic_arrayIiLj4EE
P9h:_RIPEMD160Managed_JJJ_m4161373884
oxi:_DefaultComparer_Equals_m3257444875_gshared
Sf:_JS_Sound_SetPosition
j9a:__ZN19RenderBufferManager13GetTempBufferEii17DepthBufferFormat19RenderTextureFormatj22RenderTextureReadWrite14VRTextureUsagei23RenderTextureMemoryless
r8j:__ZL13GetSharedInstPK17Il2CppGenericInst
p4j:__ZNK15dense_hashtableINSt3__24pairIK10KeyWrapperIPKcEP11Il2CppClassEES5_N6il2cpp5utils11StringUtils12StringHasherIS4_EEN14dense_hash_mapIS5_S8_SE_NS5_14EqualsComparerINSB_13VmStringUtils21CaseSensitiveComparerEEENS0_9allocatorIS9_EEE9SelectKeyESJ_SL_E3endEv
$6b:__Z17PrepareSceneNodesP11CullResults
YYg:_InternalEnumerator_1_get_Current_m476140818_gshared
eNd:__ZNK5physx7NpCloth14getNbParticlesEv
Epd:__ZN5physx2Sc10NPhaseCore24releaseShapeInstancePairEPNS0_19ShapeInstancePairLLEjj
L5b:__Z24SetupActiveLightsContextR21ActiveLightingContextRK12ActiveLightsRK11CullResultsP14ShadowMapCacheRK10MinMaxAABB
dDc:__Z38Sprite_CUSTOM_INTERNAL_get_textureRectP12Il2CppObjectP5RectTIfE
Ekk:__ZNK15dense_hashtableINSt3__24pairIK10KeyWrapperIPK22Il2CppGenericParameterEPK24MonoGenericParameterInfoEES6_N6il2cpp5utils11PointerHashIS4_EEN14dense_hash_mapIS6_SA_SF_NS6_14EqualsComparerINS0_8equal_toIS5_EEEENS0_9allocatorISB_EEE9SelectKeyESK_SM_E3endEv
xwc:__ZN9TextAsset7SetTextERKN4core12basic_stringIcNS0_20StringStorageDefaultIcEEEE
R0a:__ZN6Camera8TransferI24GenerateTypeTreeTransferEEvRT_
Ua:invoke_iiiiiiif
Ma:invoke_iiiiiiii
yui:_Array_InternalArray__set_Item_TisByte_t1134296376_m3104140039_gshared
q_k:_Rect_ToString_m447614148
oDj:_PKCS12_GetBytes_m415958948
b9b:__ZN8Renderer17PendingAddToSceneEv
BFd:__ZN5physx7NpActor18releaseConstraintsERNS_12PxRigidActorE
Gmd:__ZN5physx6shdfnd5ArrayINS_11PxDebugLineENS0_19ReflectionAllocatorIS2_EEE8recreateEj
ZEm:b125
YEm:b124
vFm:b127
uFm:b126
oCc:__Z52Register_UnityEngine_RectTransform_INTERNAL_get_rectv
_7:__Z21PostprocessStacktracePKcRN4core12basic_stringIcNS1_20StringStorageDefaultIcEEEE
mUk:_ManagedStreamHelpers_ManagedStreamLength_m2930872960
Dsb:__ZN18StreamedBinaryReadILb0EE21TransferSTLStyleArrayI13dynamic_arrayI16SplashScreenLogoLj4EEEEvRT_17TransferMetaFlags
tXd:__ZNK5physx14NpRigidDynamic25getContactReportThresholdEv
xxg:_FileStreamAsyncResult_CBWrapper_m1670848754
Yyc:__Z47Register_UnityEngine_Camera_get_allCamerasCountv
ndf:__ZN22BaseUnityConnectClient20StartEventDispatcherEv
Ksc:__ZNSt3__26vectorIj13stl_allocatorIjL18MemLabelIdentifier1ELi16EEE6assignIPKtEENS_9enable_ifIXaasr21__is_forward_iteratorIT_EE5valuesr16is_constructibleIjNS_15iterator_traitsIS9_E9referenceEEE5valueEvE4typeES9_S9_
FJ:__ZN7mecanim9animation16EvaluateAvatarIKEPKNS0_14AvatarConstantEPKNS0_11AvatarInputEPNS0_12AvatarOutputEPNS0_12AvatarMemoryEPNS0_15AvatarWorkspaceEb
yG:__ZN26AnimatorControllerPlayable10GetIntegerEiRi
poe:__Z22updateIslandsToProcessRKN5physx2Cm10BitMapBaseINS_6shdfnd9AllocatorEEEPKjRKNS_11NodeManagerERS4_
yZb:__ZN12InputManager13InputEndFrameEv
VVk:_Object_get_name_m4211327027
Epk:__ZN6il2cpp2vm6Thread5SetupEP12Il2CppThread
RAe:__ZN8Collider30GetRelativePositionAndRotationERK9TransformR10Matrix4x4f
Ube:__ZN5physx35PxcSweepEstimateAnyShapeHeightfieldERKNS_11PxsCCDShapeES2_PKNS_12PxsRigidBodyES5_RKNS_11PxTransformES8_f
$ah:_Enumerator_System_Collections_IDictionaryEnumerator_get_Key_m2500634048_gshared
$md:__ZN5physx3Cct13BoxControllerC2ERKNS_16PxControllerDescERNS_9PxPhysicsEPNS_7PxSceneE
_qm:___munmap
CLh:_RSAManaged_get_PublicOnly_m595121416
Jg:_localtime_r
E_b:__ZN22RenderingCommandBuffer13GetAndCheckRTE24BuiltinRenderTextureTypeRKN9ShaderLab16FastPropertyNameEPKcPP13RenderTexture
dVc:__ZN14ParticleSystem13KillParticlesILb1EEEvRjbR24ParticleSystemUpdateDataR23ParticleSystemParticlesjPj
uma:__ZN14GfxDoubleCacheIyP17VertexDeclaration14GfxGenericHashIyENSt3__28equal_toIyEEN31GfxDoubleCacheConcurrencyPolicy11LocklessGetE42GfxDoubleCacheDefaultEmptyDeletedGeneratorIyEEC2Ev
l5c:__Z16UpdateSpritesTplIL27ParticleSystemCurveEvalMode3EEvfRK11MinMaxCurveS3_RK23ParticleSystemParticlesPf
vW:__ZN4FMOD5Sound11getDefaultsEPfS1_S1_Pi
CNi:_UTF32Decoder_GetChars_m1925558948
Mg:_strftime
U3f:_ResourceSet__ctor_m3618395942
y0h:_Decimal_System_IConvertible_ToDouble_m3125524987_AdjustorThunk
$aa:__ZN12FileAccessorD2Ev
m5a:__ZN14VertexDataInfoC2Ev
fBk:__ZN6il2cpp2gc16GarbageCollector14CollectALittleEv
_oc:__ZNK9HPlayable15GetPlayableTypeEv
jNb:__ZL17Transfer_GUIStyleI18StreamedBinaryReadILb1EELb1EEvRK29SerializationCommandArgumentsR31RuntimeSerializationCommandInfo
$Uc:__ZNSt3__227__insertion_sort_incompleteIR31SortCollisionEventsByGameObjectP22ParticleCollisionEventEEbT0_S5_T_
lzh:_RectMask2D_IsRaycastLocationValid_m1652308696
kbk:__ZN6il2cpp6icalls8mscorlib6SystemL9IsPrivateEPK12PropertyInfo
_be:__ZNK5physx18PxcConvexTriangles16getPolygonNormalEj
f$k:_RectTransform_add_reapplyDrivenProperties_m1374850920
Hja:__ZN9shadertag10InitializeEv
k0b:__ZN13BatchRenderer20RenderSingleWithPassER17ShaderPassContextPK18SharedMaterialDataP6ShaderPN9ShaderLab4PassEiPKNS7_10GrabPassesEjib15BatchBreakCause
NGe:__ZN5physx24NpPtrTableStorageManager8canReuseEjj
Rhb:__ZN15QualitySettings14QualitySetting8TransferI24GenerateTypeTreeTransferEEvRT_
j0d:__ZN5physx2Sc27ConstraintProjectionManager33processConstraintForGroupBuildingEPNS0_13ConstraintSimERNS0_20ScratchAllocatorListIS3_Lj64EEE
WEc:__Z44Register_UnityEngine_Object_DestroyImmediatev
yog:_Convert_ToSingle_m835189399
qqc:__ZN22BlockMemoryCacheWriter14LockCacheBlockEjPPhS1_
o_d:__ZN5physx2Cm29ConstraintImmediateVisualizer19visualizeDoubleConeERKNS_11PxTransformEfb
PPc:__Z22TransferField_NonArrayI8JSONRead27Converter_SimpleNativeClassI8GUIStyleEEvRK23StaticTransferFieldInfoR31RuntimeSerializationCommandInfoRT0_
tad:__ZN5physx6shdfnd5ArrayINS_13PxExtendedBoxENS0_19ReflectionAllocatorIS2_EEE8recreateEj
Che:__ZN5physx20ProcessBPResultsTask11runInternalEv
Otd:__ZN5physx6shdfnd5ArrayIPvNS0_19ReflectionAllocatorINS_2Cm5BlockIS2_Lj16EEEEEE4copyINS0_15InlineAllocatorILj256ES7_EEEEvRKNS1_IS2_T_EE
rh:_llvm_eh_typeid_for
Ghc:__Z13RegisterClassI10GameObjectEvv
fCm:_glGetUniformLocation__wrapper
lmh:_RemotingServices_FindInterfaceMethod_m2125212568
HH:__ZNK23AnimationPlayableOutput7GetTypeEv
R0d:__ZN5physx7NpScene19getActiveTransformsERjh
vzg:_StreamWriter__cctor_m1229272693
Fpd:__ZN5physx2Sc10NPhaseCore39pool_deleteParticleElementRbElementPairEPNS0_35ParticleElementRbElementInteractionEjj
t4h:_Enum_System_IConvertible_ToSByte_m779472798
N0:__Z7ToUpperIN4core12basic_stringIcNS0_20StringStorageDefaultIcEEEEET_RKS5_
xPb:__Z18Transfer_BlittableI18StreamedBinaryReadILb0EELb1E8Vector4fEvRK29SerializationCommandArgumentsR31RuntimeSerializationCommandInfo
$wi:_Dictionary_2_U3CCopyToU3Em__0_m2023886030_gshared
rEm:_glBindVertexArray__wrapper
xze:__ZN5physx6shdfnd5ArrayINS_11RTreeNodeNQENS0_19ReflectionAllocatorIS2_EEE19resizeUninitializedEj
Aqd:__ZNK5physx2Sc16InteractionScene18getLLIslandManagerEv
Rqh:_SerializationInfo__ctor_m2923079689
lsd:__ZN5physx2Gu21intersectSphereConvexERKNS0_6SphereERKNS0_10ConvexMeshERKNS_11PxMeshScaleERKNS_11PxTransformEPNS_6PxVec3E
Sbb:__ZN8Material8TransferI14SafeBinaryReadEEvRT_
xbe:__ZN5physx17PxcNpMemBlockPool34acquireExceptionalConstraintMemoryEj
ceb:__ZN12CubemapArray17UploadToGfxDeviceEv
xqg:_Int32_JumpOverWhite_m208298144
sBj:_X509CertificateCollection_get_Item_m3285563224
Jce:__ZN5physxL23PxcSweepConvexTrianglesERKNS_11PxsCCDShapeES2_RKNS_11PxTransformES5_S5_S5_fRNS_6PxVec3ES7_RNS_10PxcNpCacheERNS_18PxcNpThreadContextERKNS_2Cm23FastVertex2ShapeScalingERNS_2Gu9TriangleVEf
iLd:__ZNK5physx7NpShape16getPlaneGeometryERNS_15PxPlaneGeometryE
utl:__Z53RuntimeInvoker_Int32_t2950945753_UIVertex_t4057497605PFvvEPK10MethodInfoPvPS4_
hDm:_emscripten_glGetUniformiv__wrapper
qEk:__ZN6il2cpp2vm13ManagedObject14QueryInterfaceERK10Il2CppGuidPPv
az:__ZNSt3__26vectorI24CompressedAnimationCurve13stl_allocatorIS1_L18MemLabelIdentifier26ELi16EEE6assignINS_11__wrap_iterIPS1_EEEENS_9enable_ifIXaasr21__is_forward_iteratorIT_EE5valuesr16is_constructibleIS1_NS_15iterator_traitsISB_E9referenceEEE5valueEvE4typeESB_SB_
Hze:__ZN5physx27InternalTriangleMeshBuilder14fillRemapTableEv
NP:__ZN11AudioSource4StopEb
$xd:__ZN5physx6shdfnd8PoolBaseINS_13NpRigidStaticENS0_19ReflectionAllocatorIS2_EEE17releaseEmptySlabsEv
dFb:__ZN14SafeBinaryRead21TransferSTLStyleArrayI13dynamic_arrayI10Matrix4x4fLj4EEEEvRT_17TransferMetaFlags
E1a:__ZN15LODGroupManager26CollectAllLODGroupManagersERK16CoreCameraValuesR13dynamic_arrayIPS_Lj4EEb
JRa:__ZN18GlslGpuProgramGLESD2Ev
qbc:__ZN13RenderTexture14SetVolumeDepthEi
Mfk:__ZNK15dense_hashtableINSt3__24pairIK10KeyWrapperINS1_IPK9FieldInfoP11Il2CppClassEEEjEES9_17ReflectionMapHashIS8_EN14dense_hash_mapIS9_jSD_NS9_14EqualsComparerINS0_8equal_toIS8_EEEENS0_9allocatorISB_EEE9SelectKeyESI_SK_E13find_positionERSA_
EFe:__ZThn116_NK5physx7profile8ZoneImplINS_28PxProfileNameProviderForwardEE10hasClientsEv
Ske:__ZN5physx2Gu20pcmContactCapsuleBoxERKNS0_13GeometryUnionES3_RKNS_11PxTransformES6_RKfRNS0_5CacheERNS0_13ContactBufferE
yhl:__Z86RuntimeInvoker_Void_t1185182177_UInt16_t2177724958_SByte_t1669577662_SByte_t1669577662PFvvEPK10MethodInfoPvPS4_
dxa:__Z22LoadGpuProgramFromDataPKhS0_Rj
tQc:__ZN10Matrix4x4f8TransferI8JSONReadEEvRT_
d3e:__ZN14SafeBinaryRead21TransferSTLStyleArrayI13dynamic_arrayIN4core17string_with_labelILi35EEELj4EEEEvRT_17TransferMetaFlags
Xyh:_PositionAsUV1_ModifyMesh_m4231919476
zjg:_Hashtable__ctor_m1941859523
Xvg:_MonoIO_DeleteFile_m3839141322
r6:__ZN17PersistentManager18ReadObjectThreadedEi
yOa:__ZN25TransformFeedbackSkinning31CleanupTransformFeedbackShadersEv
s1a:__Z22scripting_object_unbox18ScriptingObjectPtr
j4e:__ZNK20TextRenderingPrivate8FontImpl19GetCharacterAdvanceEjijfPj
Nri:_Array_InternalArray__ICollection_Add_TisUriScheme_t722425697_m3142345403_gshared
vpm:_fmt_u
Ejb:__ZN10VertexData8TransferI18StreamedBinaryReadILb0EEEEvRT_
Pxd:__ZN5physx2Sc5Scene9addStaticERNS0_10StaticCoreEPKPvjj
lDg:_MonoType_get_Assembly_m4290914179
Zxa:__ZN9ShaderLab7ProgramC2E10MemLabelIdi10ShaderType
Cbc:__ZN14PreloadManager16UpdatePreloadingEv
T6a:__ZN14SafeBinaryRead21TransferSTLStyleArrayI19StaticArrayTransferIiLi4EEEEvRT_17TransferMetaFlags
mZc:__ZN11NoiseModule8TransferI14SafeBinaryReadEEvRT_
x7d:__ZN5physx2Sc5Scene9addShapesEPKPvjjRNS0_8RigidSimEPNS_12PxsRigidBodyERPNS0_8ShapeSimEPNS_9PxBounds3E
pfj:_Array_InternalArray__set_Item_TisUILineInfo_t4195266810_m2313892078_gshared
rXk:_PlayableAsset__ctor_m2395156306
Ije:__ZN5physx23PxcPCMContactConvexMeshERKNS_2Gu13GeometryUnionES3_RKNS_11PxTransformES6_RKfRNS_10PxcNpCacheERNS0_13ContactBufferE
t3:__ZNK21UnityDefaultAllocatorI17LowLevelAllocatorE8ContainsEPKv
mFg:_RuntimeTypeHandle_Equals_m2857439487
Bi:_emscripten_get_main_loop_timing
p5f:_SafeHandle_Finalize_m3866180675
Qhb:__ZN24GenerateTypeTreeTransfer21TransferSTLStyleArrayINSt3__26vectorIN15QualitySettings14QualitySettingENS1_9allocatorIS4_EEEEEEvRT_17TransferMetaFlags
Dpb:__ZNSt3__26vectorI14SubstanceInputNS_9allocatorIS1_EEE8__appendEj
_xg:_MemoryStream_ToArray_m3911744835
Aah:_Enumerator_System_Collections_IDictionaryEnumerator_get_Entry_m859540448_AdjustorThunk
NSi:_Type_GetHashCode_m1947148725
Nxb:__ZNK2UI13RectTransform22GetTypeVirtualInternalEv
FSc:__ZNK15PolynomialCurve18EvaluateIntegratedERKN4math7_float4E
tq:getTempRet0
W3c:__ZN26SizeModulePropertyBindings13GetFloatValueERK14ParticleSystemi
GDf:_BaseRaycaster_OnEnable_m2678466030
tTe:__ZN15TerrainCollider6CreateEPK9Rigidbody
kSk:_UnityEventBase__ctor_m1851535676
nhj:_Array_Sort_TisVector4_t3319028937_m2797285308_gshared
fSg:_HandshakeMessage_Update_m2417837686
Hdh:_Enumerator_get_Current_m1908012892_gshared
H$j:_Physics_RaycastAll_m3796226007
ark:__ZN6il2cpp6icalls8mscorlib6System9ThreadingL21lookup_cached_cultureEP12Il2CppThreadi
AIk:__ZN6il2cpp2os11EventHandleD2Ev
HRk:_NetFxCoreExtensions_CreateDelegate_m751211712
C6b:__ZN18DeferredRenderLoopD2Ev
TZj:_AnimationLayerMixerPlayable__cctor_m4086299972
lca:__ZNK16TypeTreeIterator4NameEv
zaa:__ZN15FileSystemEntry3SetEPKc
Lqe:__ZN5physx6shdfnd5ArrayIPNS_13PxcNpMemBlockENS0_19ReflectionAllocatorIS3_EEE6resizeEjRKS3_
Flj:_ReadOnlyCollection_1_System_Collections_Generic_IListU3CTU3E_Insert_m568455025_gshared
DR:__ZN20SoundChannelInstance15ParameterBuffer5ApplyEPN4FMOD7ChannelE
APh:_IPv6Address__ctor_m4117281080
g4e:__ZN20TextRenderingPrivate19NativeTextGenerator9InsertTabEv
Qtm:_sbrk
WVc:__Z13DragUpdateTplIL27ParticleSystemCurveEvalMode2EEvRK11MinMaxCurvebbR23ParticleSystemParticlesjjRKN4math7_float4E
Fnl:__Z66RuntimeInvoker_Boolean_t97287965_Vector2_t2156229523_RuntimeObjectPFvvEPK10MethodInfoPvPS4_
nUc:__ZN14ParticleSystem12StartModulesER24ParticleSystemUpdateDataRK27ParticleSystemEmissionStatebRK8Vector3fRK10Matrix4x4fR23ParticleSystemParticlesjRKffjfjRjb
CHi:_Enumerator_VerifyState_m3474272061_AdjustorThunk
kFe:__ZN5physx7profile8ZoneImplINS_28PxProfileNameProviderForwardEE21setProfileZoneManagerEPNS_20PxProfileZoneManagerE
WEi:_Enumerator_MoveNext_m1131351993_AdjustorThunk
Sdf:__ZN11UnityEngine15PlatformWrapper24GetRuntimePlatformStringEv
lj:_glIsEnabled
Bkd:__ZN5physx3Cct17CapsuleController15setFootPositionERKNS_14PxExtendedVec3E
Zhd:__ZN5physx2Gu33PCMCapsuleVsMeshContactGeneration13generateEEMTDERKNS_6shdfnd3aos5Vec3VES6_RKNS3_6FloatVES6_jS6_S6_PNS0_21MeshPersistentContactERj
NUf:_DerivedType__ctor_m1853298054
UDb:__Z25scripting_class_get_image17ScriptingClassPtr
oAf:__ZN5physx3Pvd17PvdPropertyFilterINS_2Sn17RepXVisitorWriterINS_16PxVehicleDrive4WEEEE14handleAccessorILj678ENS_22PxRepXPropertyAccessorILj678ES4_NS_23PxVehicleDriveSimData4WES9_EEEEvRKT0_
nJi:_List_1_RemoveAt_m2730968292_gshared
kub:__ZNSt3__26vectorIN4core12basic_stringIcNS1_20StringStorageDefaultIcEEEE13stl_allocatorIS5_L18MemLabelIdentifier13ELi16EEEC2INS_11__wrap_iterIPS5_EEEET_SE_RKS8_PNS_9enable_ifIXaasr21__is_forward_iteratorISE_EE5valuesr16is_constructibleIS5_NS_15iterator_traitsISE_E9referenceEEE5valueEvE4typeE
pj:_emscripten_glDrawElementsInstanced
uG:__ZN26AnimatorControllerPlayable27SetupStateMachineBehavioursEv
Y1i:_List_1_System_Collections_IList_Contains_m2131605266_gshared
jwh:_LayoutGroup_get_preferredWidth_m3816902260
k3a:__ZN18JobBatchDispatcherD2Ev
Ixb:__ZN9Transform17MainThreadCleanupEv
hHk:_GC_clear_hdr_marks
C6c:__Z17UpdateSprites2TplIL27ParticleSystemCurveEvalMode1ELS0_4EEvfRK11MinMaxCurveS3_RK23ParticleSystemParticlesPf
qUe:_cff_fd_select_get
GEh:_Text_set_resizeTextForBestFit_m4095249125
rM:__Z13RegisterClassI18AnimatorControllerEvv
JRh:_OidEnumerator_MoveNext_m3138911739
Aj:_emscripten_glGetShaderiv
DS:__ZN4FMOD6System10getVersionEPj
Gre:__ZN5physx2Sc7BodySim10sleepCheckEffb
mGe:__ZN5physx7profile23EventContextInformation9streamifyINS0_15EventSerializerINS0_12MemoryBufferINS0_21WrapperNamedAllocatorEEEEEEEvRT_NS0_27EventStreamCompressionFlags4EnumE
GQe:__ZN20QuadTreeNodeRenderer17SetLightmapParamsEtRK8Vector4f12LightmapType
r7e:__ZN2UI6Canvas23VirtualRedirectTransferER24GenerateTypeTreeTransfer
PCh:_Selectable_set_animationTriggers_m2970345687
XNc:__ZN9JSONWrite8TransferIN4math12int2_storageEEEvRT_PKc17TransferMetaFlags
R2e:__ZN13TextRendering4Font13AwakeFromLoadE17AwakeFromLoadMode
R6h:_CompareInfo_LastIndexOf_m2688553706
NEm:_emscripten_glCullFace__wrapper
oAa:__ZN9GfxDevice21ReleaseSharedMeshDataEP14SharedMeshData
wGf:_MouseState__ctor_m1467839005
RKj:_Uri_IsDomainAddress_m2867513594
trb:__ZNSt3__27__sort5IRNS_6__lessINS_4pairIPKN5Unity4TypeE7Hash128EES8_EEPS8_EEjT0_SC_SC_SC_SC_T_
ENf:_Dropdown_CreateItem_m2954407740
oGk:_GC_unreachable_finalize_mark_proc
eTh:_X509Chain_ProcessCrlExtensions_m236234529
Hg:___syscall192
MHk:_maybe_finalize
p_c:__ZN13dynamic_arrayI27ParticleSystemEmissionBurstLj4EE18resize_initializedEj12ResizePolicy
cqi:_Array_InternalArray__IndexOf_TisLabelData_t360167391_m1826525656_gshared
j$c:__ZN11ShapeModule18MultiModeParameterIN25IParticleSystemProperties8PropertyIfNS1_5ClampILi0ELi360EEEEEE8TransferI24GenerateTypeTreeTransferEEvRT_
gCc:__Z43RectTransform_CUSTOM_INTERNAL_get_anchorMaxP12Il2CppObjectP13Vector2fIcall
jGd:__ZN5physx14NpShapeManagerC2Ev
Jih:_RemotingConfiguration_RegisterChannelTemplate_m3105688054
Z$h:_Decimal_Parse_m942471224
lgb:__ZN8Material28UpdateHashesOnPropertyChangeEN9ShaderLab16FastPropertyNameE
MFl:__ZL56MethodBuilder_t2807316753_CustomAttributesCacheGeneratorP21CustomAttributesCache
YCc:__Z53Register_UnityEngine_SortingLayer_GetLayerValueFromIDv
QLg:_ASN1_GetBytes_m1968380955
MCb:__Z18Transfer_BlittableI14SafeBinaryReadLb1E8Vector4fEvRK29SerializationCommandArgumentsR31RuntimeSerializationCommandInfo
GIf:_AspectRatioFitter_SetDirty_m2910185270
OU:__ZN11AudioSource12AddToManagerEv
gB:__ZN8Animator23VirtualRedirectTransferER19StreamedBinaryWriteILb0EE
bI:__ZN11UnityEngine9Animation32CreateAnimatorGenericBindingsOptERKNS0_20AnimationSetBindingsER9TransformPKN7mecanim9animation14AvatarConstantEPKNS0_21AvatarBindingConstantEbRNS6_6memory9AllocatorER8Animator
hvk:__ZN6il2cpp2vm5Image13ClassFromNameEPK11Il2CppImagePKcS6_
Jum:dynCall_vdddddd
Oua:__ZN24GenerateTypeTreeTransfer21TransferSTLStyleArrayINSt3__26vectorIN9ShaderLab14SerializedPassENS1_9allocatorIS4_EEEEEEvRT_17TransferMetaFlags
fka:__ZL32MarkLevelGameManagerDependenciesR27GarbageCollectorThreadState
MCa:__ZNK13GfxDeviceGLES26HasActiveRandomWriteTargetEv
upk:__GLOBAL__sub_I_Thread_cpp
pCl:__ZL54_MemberInfo_t3922476713_CustomAttributesCacheGeneratorP21CustomAttributesCache
Rzm:_glGetActiveUniformsiv__wrapper
VCc:__Z43Register_UnityEngine_Material_EnableKeywordv
X9c:__ZNK5physx3Cct10Controller16getInternalStateERNS_17PxControllerStateE
lfc:__Z17BuildSmoothCornerILb0EEvjRPhRKN4math8float4x4EPK15LineBuilderDataRKfSA_RK11ColorRGBA32
L7:__ZN13MonoBehaviour19SetupScriptingCacheE17ScriptingClassPtrP10MonoScript
Lw:__Z20AnimationEventToMonoRK14AnimationEventR18MonoAnimationEvent
Rkl:__Z106RuntimeInvoker_Void_t1185182177_Single_t1397266774_Single_t1397266774_Single_t1397266774_Int32_t2950945753PFvvEPK10MethodInfoPvPS4_
Zvf:__Z35getPxVehicleDriveSimData_EngineDataPKN5physx21PxVehicleDriveSimDataE
_6:__ZN17PersistentManager29ReadAndActivateObjectThreadedEiRK26SerializedObjectIdentifierP14SerializedFilebb
kGf:_PointerEventData_get_dragging_m746831934
x6d:__ZN5physx10PxsContext15setScratchBlockEPvj
orj:_ReadOnlyCollection_1_System_Collections_IEnumerable_GetEnumerator_m2781605075_gshared
Ina:__ZZN15DirectorManager15InitializeClassEvEN52PreLateUpdateDirectorUpdateAnimationBeginRegistrator7ForwardEv
nki:_Array_get_swapper_TisCustomAttributeNamedArgument_t287865710_m4254011335_gshared
IPf:_Graphic_RegisterDirtyMaterialCallback_m106898453
vNj:_GUILayoutEntry_get_margin_m3174861737
cpd:__ZN5physx2Cm27getDynamicGlobalPoseAlignedERKNS_11PxTransformES3_S3_RS1_
ree:__ZN5physx12solve1DBlockEPKNS_23PxcSolverConstraintDescEjRNS_16PxcSolverContextE
oxe:__ZN5physx6shdfnd5ArrayIPvNS0_19ReflectionAllocatorIN17PxcPoolMallocData10PoolData32EEEE15growAndPushBackERKS2_
pta:__ZNSt3__26vectorIN9ShaderLab20SerializedSubProgram13BufferBindingENS_9allocatorIS3_EEEC2INS_11__wrap_iterIPS3_EEEET_SB_RKS5_PNS_9enable_ifIXaasr21__is_forward_iteratorISB_EE5valuesr16is_constructibleIS3_NS_15iterator_traitsISB_E9referenceEEE5valueEvE4typeE
zLi:_Encoding_get_ISOLatin1_m2107621369
jmc:__ZZL23RegisterLightPropertiesR22GenericPropertyBindingEN20Wrapper_LightColorb213GetFloatValueEPv
Ufb:__ZN9Texture2D23VirtualRedirectTransferER18StreamedBinaryReadILb0EE
pYh:_DateTime_System_IConvertible_ToDouble_m2116720007_AdjustorThunk
jig:_BitArrayEnumerator__ctor_m2359341397
PFi:_Enumerator_MoveNext_m1177880931_gshared
X1l:__ZL73g_UnityEngine_TextRenderingModule_Assembly_CustomAttributesCacheGeneratorP21CustomAttributesCache
h9:__ZN16ScriptingManager27NativeTypeForScriptingClassE17ScriptingClassPtr
vVi:_UInt64_System_IConvertible_ToDateTime_m3434604642
uSi:_Type_get_IsSerializable_m1040556850
eZe:_get_sfnt_table
Ohc:__Z13RegisterClassI5LightEvv
EHe:__ZN5physx2Gu20registerHeightFieldsEv
X7b:__ZL22ScheduleSceneNodesJobsP25ScheduleSceneNodesJobDataj
afe:__ZN5physx22concludeContactCoulombERKNS_23PxcSolverConstraintDescERNS_16PxcSolverContextE
rl:_emscripten_set_canvas_size
MOf:_Graphic_SetVerticesDirty_m2124914069
vSd:__ZNK5physx15NpParticleFluid12getStiffnessEv
U6h:_CultureInfo__ctor_m3285927757
_xh:_MaskableGraphic_get_rootCanvasRect_m3492154629
hgj:_Array_Resize_TisRaycastResult_t3360306849_m1811054291_gshared
Kta:__ZNSt3__26vectorIN9ShaderLab20SerializedSubProgramENS_9allocatorIS2_EEE8__appendEj
b4:__ZN20DynamicHeapAllocatorI17LowLevelAllocatorE8AllocateEji
TOj:_Locale_GetText_m2427493201
R0b:__ZN20DynamicPropertySheet15SetVectorQueuedERKN9ShaderLab16FastPropertyNameERK8Vector4fN19ShaderPropertySheet8SetFlagsE
QI:__ZN7mecanim9animation22EvaluateAvatarRetargetEPKNS0_14AvatarConstantEPKNS0_11AvatarInputEPNS0_12AvatarOutputEPNS0_12AvatarMemoryEPNS0_15AvatarWorkspaceEb
c8a:__ZN14RenderSettings23VirtualRedirectTransferER19StreamedBinaryWriteILb0EE
uMc:__ZL26Transfer_SimpleNativeClassI9JSONWrite10RectOffsetLb0EEvRK29SerializationCommandArgumentsR31RuntimeSerializationCommandInfo
YRe:__ZNSt3__26vectorI12QuadTreeNodeNS_9allocatorIS1_EEE8__appendEj
IGk:_GC_push_conditional
PGa:__ZN17GenericDynamicVBO10AllocateVBEjR21DynamicVBOChunkHandle
Arc:__ZN8Renderer19SetLightmapIndexIntEi12LightmapType
gje:__ZL27PxcTestFacesSepAxesBackfaceRKN5physx2Gu13PolygonalDataES3_RKNS_2Cm8Matrix34ES7_RKNS4_23FastVertex2ShapeScalingESA_S7_RKNS_6PxVec3ERfRSB_RjPjSG_fSD_
O$h:_DBNull_ToString_m3638608738
iwk:__ZN30dense_hashtable_const_iteratorI10KeyWrapperIP18Il2CppGenericClassES3_N6il2cpp8metadata22Il2CppGenericClassHashEN14dense_hash_setIS3_S6_NS3_14EqualsComparerINS5_25Il2CppGenericClassCompareEEENSt3__29allocatorIS3_EEE8IdentityESA_SD_EppEv
gig:_BitArray_Clone_m3537018332
tqh:_ObjectRecord_UnchainFixup_m3191243952
qjj:_Array_InternalArray__get_Item_TisDouble_t594665363_m850827605_gshared
Ql:_glMapBufferRange
Mfb:__ZN9Texture2D8TransferI18StreamedBinaryReadILb0EEEEvRT_
GAc:__Z31Input_CUSTOM_GetMouseButtonDowni
gpc:__ZN13PlayableGraph4PlayEv
voc:__Z29AddCanvasIntermediateRendererPN2UI6CanvasEPNS_13CanvasBuffersEP17VertexDeclarationjRK10Matrix4x4ftRK4AABB4PPtrI8MaterialEi17ShadowCastingModebP6Camerab
d$b:__ZNK9Transform16GetLocalPositionEv
oDg:_MonoType_get_BaseType_m1098640416
DVa:__ZN13LoadOperation19IntegrateTimeSlicedEi
OBj:_TlsStream_Read_m3392972801
Age:__ZN5physx16PxsBroadPhaseMBP9updatePPUEPNS_10PxBaseTaskE
bVj:__ZL25UnresolvedVirtualCall_132P12Il2CppObject17Color_t2555686324faaaPK10MethodInfo
XCa:__ZN13GfxDeviceGLES22DispatchComputeProgramE12ObjectHandleI18ComputeProgram_TagPvE15ComputeBufferIDj
gMi:_Latin1Encoding_GetString_m254210343
Pvb:__Z17TransformAABBSlowRK4AABBRK10Matrix4x4fRS_
Hag:_Array_combsort_m4052486289
mjb:__ZN15SerializeTraitsI13dynamic_arrayI12SpriteVertexLj4EEE19ResizeSTLStyleArrayERS2_i
fsa:__ZN9ShaderLab21SerializedShaderState8TransferI14SafeBinaryReadEEvRT_
i5h:_Environment_GetWindowsFolderPath_m1738399646
lwe:__ZN5physx2Gu13RTreeMidphaseC2Ev
rVe:_cf2_stack_pushInt
HI:__ZN8Animator19FireAnimationEventsERNS_11AnimatorJobE
EUd:__ZN5physx6shdfnd8PoolBaseINS_16NpParticleSystemENS0_19ReflectionAllocatorIS2_EEE12allocateSlabEv
U$f:_Module_GetCustomAttributes_m76573271
IGg:_CryptoConfig_EncodeOID_m2635914623
Qua:__ZN15SerializeTraitsINSt3__24pairIN4core12basic_stringIcNS2_20StringStorageDefaultIcEEEES6_EEE8TransferI24GenerateTypeTreeTransferEEvRS7_RT_
xBm:b89
wBm:b88
cAm:b81
bAm:b80
tPa:__ZN7ApiGLES19CreateSparseTextureEjj14GraphicsFormatiiiiRiS1_S1_
R9:__ZN18ResourceImageGroup7CleanupEv
qBm:b85
Srd:__ZN5physx2Gu36closestPtPointTetrahedronTesselationEPNS_6shdfnd3aos5Vec3VES4_S4_RjRS3_S6_
vBm:b87
cji:_String_CharCopy_m3838781968
vje:__ZN5physx25PxcPCMContactSphereConvexERKNS_2Gu13GeometryUnionES3_RKNS_11PxTransformES6_RKfRNS_10PxcNpCacheERNS0_13ContactBufferE
qnh:_RemotingSurrogateSelector_GetSurrogate_m3900875713
zOg:_CertificateValidationCallback_Invoke_m1014111289
a9a:__ZN8Playable19SetOutputConnectionEPS_i
K3j:__ZN15dense_hashtableINSt3__24pairIK10KeyWrapperIPK11Il2CppClassEPKcEES6_N6il2cpp5utils11PointerHashIS3_EEN14dense_hash_mapIS6_S9_SE_NS6_14EqualsComparerINS0_8equal_toIS5_EEEENS0_9allocatorISA_EEE9SelectKeyESJ_SL_EC2ERKSO_j
Em:_glDeleteShader
AR:__ZN11SoundHandle8Instance15UpdateLoadStateEv
SKa:__ZN6prcoreL17RemapGenericFloatI15TexFormatRGHalf16TexFormatRGFloatEEvPKNS_9InnerInfoE
_gj:_Array_Sort_TisUICharInfo_t75501106_m128665067_gshared
KXe:_otv_GSUB_validate
Qai:_RSAPKCS1SignatureDeformatter_SetHashAlgorithm_m1602190713
l4h:_Enum_System_IConvertible_ToByte_m1219166845
AId:__ZN5physx6shdfnd8PoolBaseINS_10NpMaterialENS0_19ReflectionAllocatorIS2_EEE15disposeElementsEv
Sfh:_Dictionary_2_CopyToCheck_m45332585_gshared
ZTf:_ConstructorInfo__cctor_m1016079270
Dwc:__Z27scripting_add_internal_callPKcPKv
u8f:_AppDomain_Load_m4174353770
_wk:__GLOBAL__sub_I_GarbageCollector_cpp
obd:__ZL21ContactReductionAllInRN5physx2Gu13ContactBufferEjjRKNS_7PxMat33EPKNS_6PxVec3EPKh
jSe:__ZN29BillboardTreeInstanceRenderer10UpdateWindEv
DB:__ZN26AnimatorControllerPlayable18SetLayerAutoWeightEv
Hcf:__Z44Register_UnityEngine_Canvas_get_pixelPerfectv
KPe:__ZN14TerrainManager15CullAllTerrainsERK27ScriptableCullingParametersRK17CullingParameters
S9e:__ZN2UI14CanvasRenderer12SyncMaterialENS0_8SyncFlagE
Hzg:_StreamWriter_Write_m1660535366
_fc:__ZZL31RegisterTrailRendererPropertiesR22GenericPropertyBindingEN36Wrapper_TrailRendererWidthMultiplier13SetFloatValueEPvf
DKk:__ZN6il2cpp2vm9Parameter30GetDefaultParameterValueObjectEPK10MethodInfoPK13ParameterInfoPb
$Ni:_UTF8Encoding_GetByteCount_m4152118078
NKh:_KeyPairPersistence__CanSecure_m3516574278
cel:__Z95RuntimeInvoker_Void_t1185182177_RuntimeObject_RuntimeObject_Int32_t2950945753_SByte_t1669577662PFvvEPK10MethodInfoPvPS4_
gJg:_MD5CryptoServiceProvider_Dispose_m3502499818
G9i:_Collection_1_System_Collections_IList_get_Item_m2422562729_gshared
V2a:__ZN12LightManager28IsLightTransformDataUpToDateEPK5Light
AA:__ZN14AnimationEvent8TransferI19StreamedBinaryWriteILb0EEEEvRT_
IOe:__ZN14SplatPrototype8TransferI18StreamedBinaryReadILb0EEEEvRT_
Dz:__ZN7mecanim9animation9DenseClip8TransferI24GenerateTypeTreeTransferEEvRT_
TZe:_UNITY_tt_face_done_kern
mpb:__ZN14SafeBinaryRead21TransferSTLStyleArrayINSt3__26vectorI14SubstanceInputNS1_9allocatorIS3_EEEEEEvRT_17TransferMetaFlags
Pmb:__ZN12BoneWeights48TransferI24GenerateTypeTreeTransferEEvRT_
DUb:__Z19scripting_gc_enablev
_3g:_InternalEnumerator_1_get_Current_m2907722321_gshared
FYb:__ZZ23InitPlayerLoopCallbacksvEN41InitializationPlayerUpdateTimeRegistrator7ForwardEv
hwc:__ZN11UTF16StringC2ERKS_10MemLabelId
tGe:__ZN5physx7profile11EventBufferINS_24PxDefaultContextProviderENS_6shdfnd6MutexTINS0_26WrapperReflectionAllocatorIhEEEENS0_14ScopedLockImplIS7_EENS_24PxProfileNullEventFilterEE9stopEventEty
D5g:_InternalEnumerator_1_get_Current_m3792939945_AdjustorThunk
Ibf:__Z55Register_UnityEngine_CanvasRenderer_DisableRectClippingv
omb:__ZN14SafeBinaryRead21TransferSTLStyleArrayI13dynamic_arrayI11ColorRGBA32Lj4EEEEvRT_17TransferMetaFlags
F_g:_InternalEnumerator_1_System_Collections_IEnumerator_get_Current_m888718134_gshared
Y9k:__Z175RuntimeInvoker_Void_t1185182177_SByte_t1669577662_SByte_t1669577662_SByte_t1669577662_SByte_t1669577662_SByte_t1669577662_SByte_t1669577662_SByte_t1669577662_SByte_t1669577662PFvvEPK10MethodInfoPvPS4_
MWk:_Object_Destroy_m3118546832
fZh:_DateTime_FromTicks_m4059645178_AdjustorThunk
Kih:_ConfigHandler_ParseTime_m1787834288
Qwa:__ZN9ShaderLab7Program27CreateFromSerializedProgramERKNS_17SerializedProgramE10ShaderTypeiP16PropertyNamesSetPK6Shader
ZSf:_Assembly_Load_m3487507613
J5a:__ZNSt3__27__sort4IRNS_6__lessIN4core12basic_stringIcNS2_20StringStorageDefaultIcEEEES6_EEPS6_EEjT0_SA_SA_SA_T_
lvm:dynCall_viiiifii
Ojk:__ZN6il2cpp2gc19AppendOnlyGCHashMapINSt3__24pairIPK11Il2CppImageP11Il2CppClassEEP22Il2CppReflectionModule17ReflectionMapHashIS9_ENS2_8equal_toIS9_EEEC2Ev
o6:__Z20GetPersistentManagerv
h1e:_UNITY_TT_Set_Var_Design
Xha:__ZN21SystemInfoStringCache16StaticInitializeEPv
xqd:__ZN5physx2Sc7BodySim18internalWakeUpBaseEf
Glj:_ReadOnlyCollection_1_System_Collections_Generic_ICollectionU3CTU3E_Remove_m1100818788_gshared
jta:__ZNSt3__26vectorIN9ShaderLab20SerializedSubProgram15StructParameterENS_9allocatorIS3_EEE6assignIPS3_EENS_9enable_ifIXaasr21__is_forward_iteratorIT_EE5valuesr16is_constructibleIS3_NS_15iterator_traitsISA_E9referenceEEE5valueEvE4typeESA_SA_
qej:_Collection_1_IsSynchronized_m2291009199_gshared
SRb:__ZNK13MonoBehaviour7GetNameEv
Swb:__ZN19ScriptingInvocation28AdjustArgumentsToMatchMethodEv
_yj:_IndexedSet_1_Contains_m1525966688_gshared
oP:__Z15_CheckFMODError11FMOD_RESULTPKciS1_
mqk:__ZN6il2cpp6icalls8mscorlib6SystemL16ThrowInvalidCastEPK11Il2CppClassS5_
s4a:__Z20RenderMultipleMeshesRK15RenderNodeQueueRK18RenderMultipleData17ShaderChannelMask
sIg:_HMAC_KeySetup_m661741544
Wxh:_MaskableGraphic_get_maskable_m1260382606
CLi:_Latin1Encoding__ctor_m498920120
Cek:__ZN6il2cpp2vm4Type19GetGenericParameterEPK10Il2CppType
fzg:_StreamReader_Peek_m2272511193
p1b:__ZNSt3__26__sortIRNS_6__lessI11CulledLightS2_EEPS2_EEvT0_S6_T_
hbf:__Z51Register_UnityEngine_CanvasGroup_get_blocksRaycastsv
rSe:__ZNSt3__26vectorIP18SpeedTreeLocalWind13stl_allocatorIS2_L18MemLabelIdentifier63ELi16EEE6insertENS_11__wrap_iterIPKS2_EERS8_
Fue:__ZN5physx13BigConvexData5VLoadERNS_13PxInputStreamE
aTi:_Type_GetConstructor_m1195697116
Sx:__ZN7mecanim9animation10ValueDelta8TransferI14SafeBinaryReadEEvRT_
Wim:_CrossPlatformInputManager_RegisterVirtualAxis_m3479801628
FEl:__ZL104RegionInfo_t1090270226_CustomAttributesCacheGenerator_RegionInfo_t1090270226____DisplayName_PropertyInfoP21CustomAttributesCache
Tt:__ZN18AnimatorController19TransferRuntimeDataI24GenerateTypeTreeTransferEEvRT_
H8d:__ZN5physx11NodeManager6resizeEj
mYj:_Canvas_get_scaleFactor_m3314757802
e_b:__ZN6Camera12RenderStereoENS_10RenderFlagE8CullFlagPNS_24PerformEyeRenderFunctionE
Vzb:__ZN20LocalFileSystemPosix10ToAbsoluteEPKc
_3a:__ZN20TierGraphicsSettings8TransferI19StreamedBinaryWriteILb0EEEEvRT_
wCm:b111
Cha:__GLOBAL__sub_I_runtime_input_0_cpp
IDk:__ZN6il2cpp2vm13ComObjectBase16DisconnectObjectEj
f2d:__ZNK5physx7NpScene28getSceneQueryStaticTimestampEv
kn:f0
wqm:_getcwd
GDe:__ZNSt3__26vectorI9CollisionNS_9allocatorIS1_EEE21__push_back_slow_pathIKS1_EEvRT_
R$h:_Decimal__ctor_m3650533794_AdjustorThunk
PUa:__ZN25ThreadsafeLinearAllocatorD2Ev
Lvc:__ZL50GetAndClearChangedTransformsForMultilpleSystemsJobP45GetChangedTransformsForMultipleSystemsJobDatajPK23TransformAccessReadOnlyPKyj
gae:__ZN5physx2Sq10AABBPruner11preallocateEj
evb:__Z21SendMessageToEveryoneRK17MessageIdentifier11MessageData
oma:__ZN21BillboardBatchManager16StaticInitializeEPv
YXh:_DateTime_AbsoluteDays_m4235097773
ija:__ZN12_GLOBAL__N_138ArchiveRedirectFileSystemStaticDestroyEPv
i5k:__Z74RuntimeInvoker_RuntimeObject_RuntimeObject_RuntimeObject_SByte_t1669577662PFvvEPK10MethodInfoPvPS4_
FMf:_DefaultControls_CreateScrollView_m3842770629
$db:__ZN12CubemapArray34UpdateFileTextureUploadInstructionEP26FileAssetUploadInstructionj
moc:__ZN20IntermediateRenderer10InitializeERK10Matrix4x4fRK4AABB4PPtrI8MaterialEiy17ShadowCastingModeb
sPa:__Z23CreateSparseTextureGLES9TextureIDii14GraphicsFormati
qYe:_otv_Anchor_validate
B6c:__Z17UpdateSprites2TplIL27ParticleSystemCurveEvalMode1ELS0_1EEvfRK11MinMaxCurveS3_RK23ParticleSystemParticlesPf
g9h:_Guid_CompareTo_m243656946_AdjustorThunk
VYh:_DateTimeFormatInfo_Clone_m335051388
ERi:_TimeSpan_Negate_m1889505500_AdjustorThunk
bpj:_ReadOnlyCollection_1_System_Collections_ICollection_CopyTo_m2715087453_gshared
$Rc:__ZN14ParticleSystem4StopE26ParticleSystemStopBehavior
Q4e:__ZNSt3__23mapIN20TextRenderingPrivate7FontRefEP11FT_FaceRec_NS_4lessIS2_EENS_9allocatorINS_4pairIKS2_S4_EEEEEixERS9_
iXa:__ZN17ArchiveFileSystem10AddStorageEP20ArchiveStorageReader
rQd:__ZN5physx2Sc9ClothCore16setStretchConfigENS_22PxClothFabricPhaseType4EnumERKNS_20PxClothStretchConfigE
Z5c:__Z19UpdateSingleRow2TplIL27ParticleSystemCurveEvalMode4ELS0_1EEvfRK11MinMaxCurveS3_RK23ParticleSystemParticlesPfbiii
R0c:__ZN9SubModule8TransferI19StreamedBinaryWriteILb0EEEEvRT_
qIe:_PxCreateFoundation
j1j:__ZN6il2cpp2vm5Class15GetEnumBaseTypeEP11Il2CppClass
Zmb:__ZN18StreamedBinaryReadILb0EE21TransferSTLStyleArrayI13dynamic_arrayI12BoneWeights4Lj16EEEEvRT_17TransferMetaFlags
ARg:_Context_set_WriteSequenceNumber_m942577065
Ee:_glVertexAttrib4fv
bUh:_X509CertificateEnumerator_Reset_m4026698923
$Dk:__ZNK6il2cpp5utils13VmStringUtils23CaseInsensitiveComparerclERKNSt3__212basic_stringIcNS3_11char_traitsIcEENS3_9allocatorIcEEEEPKc
NJf:_CanvasScaler_SetScaleFactor_m3006968999
Bxl:__Z78RuntimeInvoker_Boolean_t97287965_Navigation_t3049316579_Navigation_t3049316579PFvvEPK10MethodInfoPvPS4_
bfb:__ZNK9Texture2D16GetNpotTexelSizeEv
dEg:_NumberFormatter_Init_m3576155222
GWa:__ZL33FileEntryInfoListToFolderContentsRKN4core12basic_stringIcNS_20StringStorageDefaultIcEEEERK19dynamic_block_arrayI13FileEntryInfoLj32EERNSt3__23setIS3_NSB_4lessIS3_EENSB_9allocatorIS3_EEEE
Jgg:_ArrayListWrapper_IndexOf_m3692065720
DWc:__Z20EvaluateSlowThreadedRK11MinMaxCurveRNS_5CacheERKN4math7_float4ES7_
cAa:__ZN9GfxDevice22GetDefaultVertexBufferE26GfxDefaultVertexBufferTypej
Tki:_Array_InternalArray__ICollection_Contains_TisInt64_t3736567304_m2911357929_gshared
T9i:_Collection_1_Remove_m3022471627_gshared
Oqm:___fseeko_unlocked
YRf:_Object_ToString_m1740002499
Gqm:_sscanf
Kmd:__ZN5physx3Cct17CapsuleControllerC2ERKNS_16PxControllerDescERNS_9PxPhysicsEPNS_7PxSceneE
Bmb:__ZN14SafeBinaryRead21TransferSTLStyleArrayINSt3__26vectorI17BlendShapeChannelNS1_9allocatorIS3_EEEEEEvRT_17TransferMetaFlags
CVb:__Z17BeginSplashScreenv
lgj:_Array_Resize_TisUILineInfo_t4195266810_m3763058392_gshared
cGg:_SByte_ToString_m3584531119_AdjustorThunk
Hva:__ZN9ShaderLab16SerializedShader8TransferI19StreamedBinaryWriteILb0EEEEvRT_
lL:__ZN7mecanim9animation18CreateAvatarMemoryEPKNS0_14AvatarConstantERNS_6memory9AllocatorE
JKg:_ModulusRing__ctor_m2420310199
Vmg:_Convert_ToDateTime_m626620011
bbh:_Enumerator_System_Collections_IDictionaryEnumerator_get_Key_m2500634048_AdjustorThunk
H6c:__Z17UpdateSprites2TplIL27ParticleSystemCurveEvalMode2ELS0_4EEvfRK11MinMaxCurveS3_RK23ParticleSystemParticlesPf
ZJ:__ZN7mecanim8skeleton16SkeletonPoseCopyIN4math4trsXENS2_7affineXEEEvPKNS0_13SkeletonPoseTIT_EEPNS5_IT0_EE
xGa:__ZN18GfxFramebufferGLES18GetFramebufferNameERK20GfxRenderTargetSetup
pPh:_IPAddress__ctor_m921977496
xuh:_InputField_MoveDown_m1455948167
wIc:__Z30Event_Get_Custom_PropCharacterP12Il2CppObject
boa:__ZN13PlayableGraph27SchedulePlayableDestructionERK9HPlayable
BXe:_cff_get_mm_var
Vid:__ZN5physx6shdfnd5ArrayINS_12PxDebugPointENS0_19ReflectionAllocatorIS2_EEE15growAndPushBackERKS2_
Tym:_glGetFramebufferAttachmentParameteriv__wrapper
mhh:_ChannelServices_GetCurrentChannelInfo_m3041604116
uhf:__Z13RegisterClassI20UnityConnectSettingsEvv
RDb:__Z22scripting_array_length17ScriptingArrayPtr
Tzg:_SynchronizedReader_Peek_m148942882
IBe:__ZN8Collider13AwakeFromLoadE17AwakeFromLoadMode
Kuj:_Predicate_1_Invoke_m2308795536_gshared
meb:__ZN14SafeBinaryRead20TransferTypelessDataEjPvi
KZd:__ZN5physx6shdfnd13ReadWriteLockC2Ev
Mxm:b34
fW:__ZN13dynamic_arrayI12SoundChannelLj4EE9push_backERKS0_
Eea:__Z19GetActiveColorSpacev
a0c:__ZN17SizeBySpeedModule8TransferI18StreamedBinaryReadILb0EEEEvRT_
tZe:_UNITY_tt_face_load_kern
o0f:_MonoMethodInfo_GetDeclaringType_m2924452727
PWb:__ZN13sorted_vectorINSt3__24pairIiN17InstancingBatcher12PropertyTypeEEEN10vector_mapIiS3_NS0_4lessIiEE13stl_allocatorIS4_L18MemLabelIdentifier1ELi16EEE13value_compareESA_E21sort_clear_duplicatesEv
Oaf:__ZZN2UI14CanvasRenderer15InitializeClassEvEN38FunctorImpl_909kCanvasHierarchyChanged4CallEPviR11MessageData
e9:__Z6StrCmpPKcS0_
Yxa:__Z21CheckGpuProgramUsable20ShaderGpuProgramType
rjc:__ZN13ProduceHelperI14Texture2DArrayLb0EE7ProduceE10MemLabelId18ObjectCreationMode
xAk:__ZN6il2cpp2os9Directory20GetFileSystemEntriesERKNSt3__212basic_stringIcNS2_11char_traitsIcEENS2_9allocatorIcEEEESA_iiPi
r9f:_Array_System_Collections_IList_Add_m1063688101
$Ed:__ZN5physx6shdfnd5ArrayIPvNS0_19ReflectionAllocatorINS_2Cm5BlockIhLj128EEEEEE4copyINS0_15InlineAllocatorILj256ES7_EEEEvRKNS1_IS2_T_EE
dcm:__ZL66Navigation_t3049316579_CustomAttributesCacheGenerator_m_SelectOnUpP21CustomAttributesCache
_3e:__ZN20TextRenderingPrivate19NativeTextGenerator5SetupEv
k5b:__ZNK15SharedLightData24GetFinalShadowResolutionEv
GId:__ZN5physx6shdfnd8PoolBaseINS_16NpConnectorArrayENS0_19ReflectionAllocatorIS2_EEE15disposeElementsEv
Asb:__ZN12AspectRatios8TransferI18StreamedBinaryReadILb0EEEEvRT_
iJe:__ZN14PhysicsManager19CreatePvdConnectionEv
aoc:__ZN10GameObject14CopyPropertiesERS_
nJc:__Z44Register_UnityEngine_GUIStyle_get_fixedWidthv
Tli:_Array_InternalArray__ICollection_Remove_TisLink_t544317964_m1280781374_gshared
Gbg:_BitConverter_DoubleWordsAreSwapped_m1474345095
Eib:__ZNK13ScreenManager12IsFullScreenEv
ahg:_FixedSizeArrayListWrapper_set_Capacity_m4221053039
hrm:_rand
cwf:__Z35setPxVehicleDriveSimData_ClutchDataPN5physx21PxVehicleDriveSimDataERKNS_19PxVehicleClutchDataE
etc:__ZN13MeshScripting10CreateMeshE21ScriptingObjectOfTypeI4MeshE
PHd:__ZNK5physx12NpConstraint9getActorsERPNS_12PxRigidActorES3_
cEh:_Slider_FindSelectableOnLeft_m1667068522
DBk:__ZN6il2cpp5utils9PathUtils7CombineIcEENSt3__212basic_stringIT_NS3_11char_traitsIS5_EENS3_9allocatorIS5_EEEERKNS0_10StringViewIS5_EERKSA_
IYk:_Quaternion_INTERNAL_CALL_Internal_ToEulerRad_m1913372122
NEb:__ZN14SafeBinaryRead21TransferSTLStyleArrayINSt3__26vectorI17AnimationCurveTplIfE13stl_allocatorIS4_L18MemLabelIdentifier1ELi16EEEEEEvRT_17TransferMetaFlags
Fhg:_SynchronizedArrayListWrapper_Contains_m3809499313
ixe:__ZN5physx6shdfnd8PoolBaseIN17PxcPoolMallocData10PoolData16ENS0_19ReflectionAllocatorIS3_EEE15disposeElementsEv
jBe:__ZN9Rigidbody23UpdateInterpolationNodeEv
GIg:_HMACSHA256__ctor_m346174875
G7b:__Z22PrepareOptimizedPlanesPK5PlaneiPKN4math7_float4E
R2:__ZN11UnityEngine15CloudWebService17WebFileDownloaderINS0_20WebRequestRestClientENS0_23WebRequestRestHeaderMapEE10InitializeERKN4core12basic_stringIcNS5_20StringStorageDefaultIcEEEE
mma:__ZN17UniqueIDGenerator15CreatePureIndexEv
pEk:__ZN6il2cpp2vm3CCW9CreateCCWEP12Il2CppObject
dw:__ZN11UnityEngine9Animation28GenericAnimationBindingCache15DidReloadDomainEv
I0d:__ZN5physx7NpScene8addActorERNS_7PxActorE
xTe:__ZN15TerrainCollider22FetchPoseFromTransformEv
qtb:__ZNSt3__26vectorIN15ResourceManager10DependencyE13stl_allocatorIS2_L18MemLabelIdentifier52ELi16EEE6assignINS_11__wrap_iterIPS2_EEEENS_9enable_ifIXaasr21__is_forward_iteratorIT_EE5valuesr16is_constructibleIS2_NS_15iterator_traitsISC_E9referenceEEE5valueEvE4typeESC_SC_
ov:__ZN19StreamedBinaryWriteILb0EE8TransferIN7mecanim9animation23BlendDirectDataConstantEEEvRT_PKc17TransferMetaFlags
nSe:__ZN20SpeedTreeWindManager7GetWindERK4AABBRP18SpeedTreeLocalWindRK18SpeedTreeWindAsset
y0j:__ZN15dense_hashtableINSt3__24pairIK10KeyWrapperIPK22Il2CppGenericParameterEP11Il2CppClassEES6_N6il2cpp5utils11PointerHashIS4_EEN14dense_hash_mapIS6_S9_SE_NS6_14EqualsComparerINS0_8equal_toIS5_EEEENS0_9allocatorISA_EEE9SelectKeyESJ_SL_E14squash_deletedEv
fbb:__ZN9ShaderLabL27GetDesiredRenderTextureDescEPK6Camera
Yti:_Array_InternalArray__Insert_TisMark_t3471605523_m2854535880_gshared
hJa:__ZN6prcoreL29inner_stretch_rgb565_bilinearEPKNS_9InnerInfoE
umc:__ZZL23RegisterLightPropertiesR22GenericPropertyBindingEN18Wrapper_LightRange13SetFloatValueEPvf
hz:__ZN14SafeBinaryRead21TransferSTLStyleArrayI13dynamic_arrayI11KeyframeTplI11QuaternionfELj4EEEEvRT_17TransferMetaFlags
Zmh:_MethodReturnDictionary__cctor_m278392388
Y5:__ZNK9Transform18TransformDirectionERK8Vector3f
bte:__ZN5physx21PxsBodyTransformVault6updateEv
l_k:_Rect_op_Equality_m3986168348
bYe:_otv_MarkLigPos_validate
vIh:_PrimalityTests_RabinMillerTest_m1471415870
vwf:__ZN5physx2Sn21RepXVisitorReaderBaseINS_16PxVehicleDriveNWEE15complexPropertyINS_22PxRepXPropertyAccessorILj690ES2_NS_23PxVehicleDriveSimDataNWES6_EEKNS_36PxVehicleDriveSimDataNWGeneratedInfoEEEvPjRKT_RT0_
Pad:__ZL29GeomMTDCallback_CapsuleConvexRN5physx6PxVec3ERfRKNS_10PxGeometryERKNS_11PxTransformES5_S8_
C7j:__ZN15dense_hashtableINSt3__24pairIK10KeyWrapperIPK11Il2CppClassEPKcEES6_N6il2cpp5utils11PointerHashIS3_EEN14dense_hash_mapIS6_S9_SE_NS6_14EqualsComparerINS0_8equal_toIS5_EEEENS0_9allocatorISA_EEE9SelectKeyESJ_SL_E12resize_deltaEjj
Tsm:__ZNK10__cxxabiv120__si_class_type_info27has_unambiguous_public_baseEPNS_19__dynamic_cast_infoEPvi
OKg:_Kernel_LeftShift_m4140742987
MSf:_Assembly_GetManifestResourceInternal_m1224391897
TGa:__Z30AddDefaultStreamsToMeshBuffersR9GfxDeviceR11MeshBuffersj17ShaderChannelMaskS3_
Tia:__ZL16GetInterfaceImpl18UnityInterfaceGUID
C1j:__ZN6il2cpp2vmL17SetupFieldOffsetsENS0_15FieldLayoutKindEP11Il2CppClassjRKNSt3__26vectorIjNS4_9allocatorIjEEEE
nz:__ZNSt3__26vectorIN13AnimationClip15QuaternionCurveE13stl_allocatorIS2_L18MemLabelIdentifier26ELi16EEE10deallocateEv
xDk:__ZN6il2cpp6icalls8mscorlib6System15MonoCustomAttrs27GetCustomAttributesInternalEP12Il2CppObjectP20Il2CppReflectionTypeb
J1g:_InternalEnumerator_1_get_Current_m1408339225_AdjustorThunk
E1e:_UNITY_TT_Set_MM_Blend
Dha:__GLOBAL__sub_I_runtime_math_random_0_cpp
PVb:__ZN14PreloadManager35WaitForAllAsyncOperationsToCompleteEv
_Vd:__ZN5physx14NpRigidDynamicC2ERKNS_11PxTransformE
Ced:__Z27sweepCCTBox_HeightFieldGeomRKN5physx10PxGeometryERKNS_11PxTransformERKNS_2Gu3BoxERKNS_6PxVec3EfRNS_10PxSweepHitENS_7PxFlagsINS_9PxHitFlag4EnumEtEEf
XQ:__ZL31InitializeAudioScriptingClassesv
__b:__Z14SortGUIByDepthP10GUIElementS0_
cUc:__Z19UpdateProceduralTplIL27ParticleSystemCurveEvalMode0EEvRK20DualMinMaxPolyCurvesR23ParticleSystemParticlesPfRKN4math7_float4E
KK:__ZN12_GLOBAL__N_120ProcessRootMotionMixER33AnimationPlayableEvaluationOutputR35AnimationPlayableEvaluationConstantR32AnimationPlayableEvaluationInputS1_f
zLj:_UriParser__cctor_m3655686731
xad:__ZN5physx3Cct9SweepTest18updateTouchedGeomsEPKNS0_30InternalCBData_FindTouchedGeomERKNS0_13UserObstaclesERKNS_17PxExtendedBounds3ERKNS_19PxControllerFiltersERKNS_6PxVec3E
$wh:_LayoutRebuilder_U3Cs_RebuildersU3Em__0_m589488547
AGe:_PxCloseExtensions
vAb:__ZNK20LocalFileSystemPosix21GetAvailableDiskSpaceEPKcRy
bia:__ZNSt3__26__treeIiNS_4lessIiEENS_9allocatorIiEEE7destroyEPNS_11__tree_nodeIiPvEE
xza:__ZNK9GfxDevice14GetWorldMatrixEv
C2k:_Transform_set_parent_m786917804
IDh:_Slider_get_value_m739683640
Lyb:__Z19scripting_array_new17ScriptingClassPtrjj
Tng:_Convert_ToInt32_m2128774575
VV:__ZN11SoundHandle13CreateChannelEb
Dgb:__ZN14SafeBinaryRead21TransferSTLStyleArrayI13dynamic_arrayI12LightmapDataLj4EEEEvRT_17TransferMetaFlags
Sta:__ZNSt3__26vectorIN9ShaderLab20SerializedSubProgram16TextureParameterENS_9allocatorIS3_EEE6assignIPS3_EENS_9enable_ifIXaasr21__is_forward_iteratorIT_EE5valuesr16is_constructibleIS3_NS_15iterator_traitsISA_E9referenceEEE5valueEvE4typeESA_SA_
d6j:__ZN13Il2CppHashMapIN6il2cpp5utils13dynamic_arrayIPK10Il2CppTypeLj4EEEPFvvENS0_8metadata19Il2CppSignatureHashENS9_22Il2CppSignatureCompareENSt3__29allocatorINSC_4pairIK10KeyWrapperIS6_ES8_EEEEEC2EjRKSA_RKSB_
uBc:__Z51Quaternion_CUSTOM_INTERNAL_CALL_Internal_ToEulerRadRK11QuaternionfR8Vector3f
ukk:__ZN15dense_hashtableINSt3__24pairIK10KeyWrapperIPK22Il2CppGenericParameterEPK24MonoGenericParameterInfoEES6_N6il2cpp5utils11PointerHashIS4_EEN14dense_hash_mapIS6_SA_SF_NS6_14EqualsComparerINS0_8equal_toIS5_EEEENS0_9allocatorISB_EEE9SelectKeyESK_SM_E15set_deleted_keyERKSB_
aGg:_SByte_TryParse_m2431806379
ugc:__ZN6prcoreL11inner_clearILj2EEEvPhjjj
EHg:_DSACryptoServiceProvider_get_KeySize_m786836990
dQd:__ZNK5physx2Sc9ClothCore20getNbCollisionPlanesEv
ph:_emscripten_exit_fullscreen
y7d:__ZN5physx6shdfnd5ArrayINS_9PxBounds3ENS0_15InlineAllocatorILj192ENS0_19ReflectionAllocatorIS2_EEEEE8recreateEj
hve:__ZNK5physx13GuMeshFactory17getNbHeightFieldsEv
lJe:__ZN14PhysicsManager19CreateDynamicsSceneEbb14BroadphaseType16ContactPairsModeRK4AABBi
XRf:_Object_MemberwiseClone_m1474068832
szk:__ZN6il2cpp6icalls8mscorlib6System6String19InternalAllocateStrEi
VQc:__Z29Transfer_Blittable_ArrayFieldI8JSONRead11QuaternionfEvRT_R9ArrayInfoRK23StaticTransferFieldInfo
aag:_Array_SetValue_m282347242
uae:__ZNK5physx2Gu12OBBAABBTestsILb1EEclENS_6shdfnd3aos5Vec3VES5_
Tyc:__Z45Register_UnityEngine_Camera_get_targetDisplayv
ulc:__ZNK24RendererAnimationBinding15GenerateBindingERKN4core12basic_stringIcNS0_20StringStorageDefaultIcEEEEbRN11UnityEngine9Animation14GenericBindingE
QPh:_IPv6Address__ctor_m3704187391
t$b:__Z15GetFlareManagerv
S9c:__ZN5physx3Cct9SweepTestD2Ev
$H:__ZN8Animator13GetAvatarRootEv
gpm:___toread
WTb:__ZNSt3__26vectorI10vector_mapIiiNS_4lessIiEE13stl_allocatorINS_4pairIiiEEL18MemLabelIdentifier38ELi16EEES4_IS9_LS7_38ELi16EEE26__swap_out_circular_bufferERNS_14__split_bufferIS9_RSA_EE
kKg:_BigInteger_get_Rng_m3283260184
utm:___cxa_is_pointer_type
EN:__ZN8Animator22ScriptingStringToCRC32ERK11ICallString
MK:__ZN7mecanim9animation16EvaluateAvatarDXEPKNS0_14AvatarConstantEPKNS0_11AvatarInputEPNS0_12AvatarMemoryEPNS0_15AvatarWorkspaceEPNS0_12AvatarOutputE
ONa:__ZN4gles20DestroyRenderSurfaceEP7ApiGLESP17RenderSurfaceGLES
kjj:_Array_InternalArray__get_Item_TisKeyValuePair_2_t2530217319_m2886833132_gshared
bCh:_ScrollRect_OnEndDrag_m3202230060
trc:__ZN11PlayerPrefs6SetIntERKN4core12basic_stringIcNS0_20StringStorageDefaultIcEEEEi
nEc:__Z34Transform_CUSTOM_SetAsFirstSiblingP12Il2CppObject
N0c:__ZN21RotationBySpeedModule8TransferI19StreamedBinaryWriteILb0EEEEvRT_
muh:_InputField_Delete_m3471899192
xxa:__ZN20GpuProgramParameters23AddMatrixParamWithFlagsEPKcii15ShaderParamTypeiiiihP16PropertyNamesSet
Jhh:_RemotingConfiguration_get_ProcessId_m2180277012
Pca:__ZN17PersistentManager40GlobalToLocalSerializedFileIndexInternalERK26SerializedObjectIdentifier
O$:__ZN11UnityEngine15CloudWebService17SessionEventQueue14ParseEventDataERKN4core12basic_stringIcNS2_20StringStorageDefaultIcEEEE
pHd:__ZN12GeomQueryAnyIN5physx10PxSweepHitEE7geomHitERKNS0_2Sq17SceneQueryManagerERKNS0_15MultiQueryInputERKNS3_9ShapeDataERKNS0_10PxGeometryERKNS0_11PxTransformENS0_7PxFlagsINS0_9PxHitFlag4EnumEtEEjPS1_fbPNS0_9PxBounds3E
XEa:__ZN13TranslateGLES4InitERK12GraphicsCaps16GfxDeviceLevelGL
Ucd:__ZN43CapsuleHeightfieldContactGenerationCallback7onEventEjPj
eDe:__ZThn4_N12MemoryStream4readEPvj
ptg:_Int64_System_IConvertible_ToUInt16_m848637338_AdjustorThunk
Rpi:_Array_InternalArray__IndexOf_TisLink_t544317964_m455584088_gshared
$4i:_Enumerator_get_Current_m2282646120_AdjustorThunk
Roj:_ReadOnlyCollection_1_IndexOf_m2539022912_gshared
Tcm:__ZL66Selectable_t3250028441_CustomAttributesCacheGenerator_m_TransitionP21CustomAttributesCache
hLk:__ZN6il2cpp2os6Memory12AlignedAllocEjj
OEh:_Text_set_alignByGeometry_m3828822280
qcl:__Z77RuntimeInvoker_Void_t1185182177_Int64_t3736567304_ResourceInfoU26_t1611441338PFvvEPK10MethodInfoPvPS4_
VEk:__ZN6il2cpp8metadataL7CompareEPK10Il2CppTypeS3_
bNh:_HybridDictionary__ctor_m1681134385
Aba:__ZN21ScalableBufferManager11GetInstanceEv
iPb:__Z18Transfer_BlittableI18StreamedBinaryReadILb0EELb1E10ColorRGBAfEvRK29SerializationCommandArgumentsR31RuntimeSerializationCommandInfo
ORi:_TimeSpan_op_LessThan_m1594498345
Jwc:__ZL27GetComponentsImplementationILb0ELi0EEbR10GameObjectbRK17CompareParametersRK39GetComponentsImplementation_ReturnValue
ESb:__ZN9Scripting36IsSystemCollectionsGenericDictionaryE17ScriptingClassPtr
hyj:_UnityEvent_1_FindMethod_Impl_m322741469_gshared
$Fd:__ZN5physx12NpConstraint12actorDeletedEPNS_12PxRigidActorE
W2k:_Enumerator_get_Current_m2591725252
taa:__ZL16ReadTypeTreeImplILb0EEbR8TypeTreeRK16TypeTreeIteratorRPKhS6_i
gXh:_Interval_Contains_m110351300_AdjustorThunk
Mng:_Convert_ToInt32_m3048308591
Rv:__ZN25RuntimeAnimatorControllerD2Ev
b$h:_DateTimeOffset_Equals_m3030958070
Lod:__ZN5physx2Sc8ShapeSim18reinsertBroadPhaseEv
t8a:__ZNK22BuiltinResourceManager21GetResourceInstanceIDEPKN5Unity4TypeERKN4core12basic_stringIcNS4_20StringStorageDefaultIcEEEE
wAc:__Z42Register_UnityEngine_RectOffset_set_bottomv
NYh:_DateTimeFormatInfo_GetMonthName_m2034512315
d1b:__ZN28LightProbeProxyVolumeContext8CopyFromERKS_
zpj:_ReadOnlyCollection_1_System_Collections_Generic_IListU3CTU3E_Insert_m2489506856_gshared
dga:__ZN23TransformChangeDispatch32QueueTransformChangeIfHasChangedER18TransformHierarchy
nGh:_SimpleCollator_ToDashTypeValue_m6184468
xml:__Z105RuntimeInvoker_RuntimeObject_Vector3_t3722313464_Vector3_t3722313464_Single_t1397266774_Int32_t2950945753PFvvEPK10MethodInfoPvPS4_
PNa:__ZN7ApiGLES18DeleteRenderbufferERj
vsd:__ZN5physx6shdfnd5ArrayIPvNS0_15InlineAllocatorILj256ENS0_19ReflectionAllocatorINS_16NpConnectorArrayEEEEEE15growAndPushBackERKS2_
rMa:__ZL23ProgramUniformMatrix4fvPK7ApiGLESjiihPKv
YNa:__ZN7ApiGLES13CreateTextureEjj14GraphicsFormatiiiii
Nag:_Array_new_gap_m262136975
fie:__ZN5physx14SingleAABBTaskC2Ev
wta:__ZN9ShaderLab20SerializedSubProgram15MatrixParameter8TransferI14SafeBinaryReadEEvRT_
Lwc:__ZL27GetComponentsImplementationILb0ELi1EEbR10GameObjectbRK17CompareParametersRK39GetComponentsImplementation_ReturnValue
jTh:_X509Store__ctor_m275383717
UGh:_SimpleCollator_LastIndexOfOrdinalIgnoreCase_m2984667899
n0e:_Round_Down_To_Grid
Qze:__ZN5physx12storeIndicesEjjPKjRNS_14PxOutputStreamEb
KOa:__ZN13RenderTexture7ReleaseEv
sOc:__Z18Transfer_BlittableI8JSONReadLb1EN4math12int3_storageEEvRK29SerializationCommandArgumentsR31RuntimeSerializationCommandInfo
Knb:__ZN10MeshFilter23VirtualRedirectTransferER14SafeBinaryRead
R6f:_X509CertificateEnumerator_MoveNext_m2269241175
Unb:__ZN12MeshRenderer17MainThreadCleanupEv
mfc:__Z8BuildCapILb0EEvjRPhRKN4math8float4x4EPK15LineBuilderDataRKfRKNS2_7_float4ERK11ColorRGBA32SA_bRKNS2_7_float2E
n1j:__ZN6il2cpp2vmL10InitLockedEP11Il2CppClassRKNS_2os12FastAutoLockE
ERa:__ZN22CreateGpuProgramOutput12CreateParamsEv
gS:__ZN10ObjectPoolIN4FMOD7ChannelENS0_8ChannelIEE7GetFreeEi
Lpj:_ReadOnlyCollection_1_System_Collections_IList_Insert_m177536056_gshared
SCd:__ZNK5physx18NpArticulationLink11getChildrenEPPNS_18PxArticulationLinkEj
h$g:_InternalEnumerator_1_System_Collections_IEnumerator_get_Current_m548105685_gshared
NEa:__ZNK14GfxContextGLES13GetDefaultFBOEv
gdg:_Byte_System_IConvertible_ToType_m2251112646
Zol:__Z81RuntimeInvoker_Char_t3634460470_RuntimeObject_Int32_t2950945753_Int16_t2552820387PFvvEPK10MethodInfoPvPS4_
Aqe:__Z15atomIntegrationfPKPN5physx11PxsBodyCoreEPKPNS_12PxsRigidBodyEjPKNS_2Cm13SpatialVectorEPNS_13PxcSolverBodyEPNS_17PxcSolverBodyDataEPS9_RjSH_
kZh:_DateTime_get_Hour_m4153505178_AdjustorThunk
gVb:__ZN14GraphicsHelper5ClearE13GfxClearFlagsRK10ColorRGBAffjR17ShaderPassContext
tei:_Evidence_Equals_m1478353107
MYd:__ZN5physx13NpRigidStatic11createShapeERKNS_10PxGeometryEPKPNS_10PxMaterialEtNS_7PxFlagsINS_11PxShapeFlag4EnumEhEE
$qc:__Z13GetImagePixelI10ColorRGBAfET_PKhii13TextureFormat15TextureWrapModeS5_ii
s_i:_List_1_System_Collections_IList_set_Item_m1842844683_gshared
fAj:_ObjectPool_1__ctor_m2535233435_gshared
Kpk:__ZN6il2cpp2vm6Thread49CheckCurrentThreadForInterruptAndThrowIfNecessaryEv
W4h:_Enum_ToObject_m1136033697
Mea:__ZNSt3__23mapIN9ShaderLab16FastPropertyNameEN18UnityPropertySheet11UnityTexEnvENS_4lessIS2_EENS_9allocatorINS_4pairIKS2_S4_EEEEEixERS9_
SMa:__ZNK13TranslateGLES25GetTextureTargetDimensionEj
xwd:__ZN5physx11NpAggregate22removeActorAndReinsertERNS_7PxActorEb
Ymj:_ReadOnlyCollection_1_System_Collections_IList_Remove_m1842121503_gshared
aye:__ZZL19ExtractHullPolygonsRjRN5physx2Gu9ContainerERKNS0_17ConvexHullBuilderEPS2_S3_EN5Local9FloodFillES3_PKNS0_11AdjTriangleEjPb
abl:__Z32RuntimeInvoker_Double_t594665363PFvvEPK10MethodInfoPvPS4_
dwg:_File_OpenRead_m2936789020
zDc:__Z47Texture2D_CUSTOM_INTERNAL_CALL_GetPixelBilinearP12Il2CppObjectffR10ColorRGBAf
S7:__ZN9Scripting12LogExceptionE21ScriptingExceptionPtriPKcb
Qll:__Z94RuntimeInvoker_Void_t1185182177_RuntimeObject_PlayableGraph_t3515989261_RuntimeObject_IntPtr_tPFvvEPK10MethodInfoPvPS4_
qj:_emscripten_glVertexAttrib4f
eUk:_Logger_GetString_m3669755330
txa:__ZNSt3__26vectorIN20GpuProgramParameters14ConstantBufferENS_9allocatorIS2_EEE8__appendEj
TTh:_X509CertificateCollection_AddRange_m3683116910
So:FUNCTION_TABLE_vf
Shh:_SinkProviderData__ctor_m1624738837
tol:__Z88RuntimeInvoker_RuntimeObject_RuntimeObject_SByte_t1669577662_RuntimeObject_RuntimeObjectPFvvEPK10MethodInfoPvPS4_
fzd:__ZN5physx14NpArticulation26setMaxProjectionIterationsEj
$ld:__ZN5physx3Cct15ObstacleContext14removeObstacleEj
oUf:_CustomAttributeTypedArgument_Equals_m2261980307
_F:__ZN7mecanim12statemachine24CreateStateMachineMemoryEPKNS0_20StateMachineConstantERNS_6memory9AllocatorE
dCa:__ZN9GfxDevice18SetGlobalDepthBiasEff
jak:__ZN6il2cpp6icalls8mscorlib6System8MonoType12get_AssemblyEP20Il2CppReflectionType
kfc:__Z16BuildLineSegmentILb0EEvjRPhRKN4math8float4x4EPK15LineBuilderDataRKfSA_11ColorRGBA32
Ej:_emscripten_glGetPointerv
dij:_Dictionary_2_Do_CopyTo_TisKeyValuePair_2_t3842366416_TisRuntimeObject_m1564656153_gshared
zK:__ZN8Animator22ApplyBuiltinRootMotionEv
qVb:__Z26ApplyMaterialPassWithCacheRK18SharedMaterialDataR17ShaderPassContextP6ShaderPN9ShaderLab4PassEibPKNS6_10GrabPassesEPNS6_11SubProgramsEPK22DeviceRenderStateBlock
fFe:__ZN5physx7profile8ZoneImplINS_28PxProfileNameProviderForwardEE17handleBufferFlushEPKhj
uwd:__ZN5physx2Sc5ActorC2ERNS0_16InteractionSceneEhNS0_14IslandNodeInfo4TypeE
KDg:_MulticastDelegate_KPM_m22863605
P2g:_InternalEnumerator_1_get_Current_m1897120917_AdjustorThunk
iDg:_MonoType_ReorderParamArrayArguments_m2458683451
Tph:_FormatterConverter_ToInt16_m4282804414
hdl:__Z81RuntimeInvoker_Void_t1185182177_Int64_t3736567304_RuntimeObject_Int64_t3736567304PFvvEPK10MethodInfoPvPS4_
NHf:_StandaloneInputModule_ProcessTouchPress_m4019232747
_vg:_FileStream__ctor_m3151488352
Lag:_Array_swap_m547389985
fRg:_ClientSessionInfo_Finalize_m2165787049
cRd:__ZN5physx15NpActorTemplateINS_7PxClothEED2Ev
mVi:_UInt32_ToString_m2420423038
qXi:_List_1_System_Collections_IList_Add_m634558835_gshared
stg:_Int64_System_IConvertible_ToUInt64_m2815650160
Cwg:_FileStream_get_Length_m426703983
HPd:__ZN5physx2Sc9ClothCore16setRestPositionsEPKNS_6PxVec4E
bol:__Z78RuntimeInvoker_MoveDirection_t1216237838_Single_t1397266774_Single_t1397266774PFvvEPK10MethodInfoPvPS4_
Wve:__ZN5physx2Gu12TriangleMesh4loadERNS_13PxInputStreamE
xec:__ZL13MotionHandleriPK27EmscriptenDeviceMotionEventPv
DQ:__ZN12AudioManager5ResetEv
Roc:__ZN15DirectorManager18ScheduleGraphStartERK14HPlayableGraph
cLa:__ZN6prcoreL17RemapGenericFloatI17TexFormatRGBAHalf15TexFormatRGHalfEEvPKNS_9InnerInfoE
ABk:__ZN6il2cpp6icalls8mscorlib6System11Environment20GetWindowsFolderPathEi
aXe:_UNITY_FT_Stream_ReadFields
OE:__ZN7mecanim5human18HumanPoseBlendNodeERNS0_9HumanPoseEPS1_f
wWe:_UNITY_FT_RoundFix
hIk:_GC_is_heap_ptr
emj:_ReadOnlyCollection_1__ctor_m2122524688_gshared
Wy:__Z14resize_trimmedINSt3__26vectorI24CompressedAnimationCurve13stl_allocatorIS2_L18MemLabelIdentifier26ELi16EEEEEvRT_j
Led:__ZNK5physx2Gu15HeightFieldUtil12traceSegmentI24ConvexVsHeightfieldSweepLb0ELb0ELb1EEEvRKNS_6PxVec3ES6_PT_PS5_
eJh:_ASN1_DecodeTLV_m1200977460
rSk:_UnityEventBase_PrepareInvoke_m1785382128
Lue:__ZNK5physx12PxConvexMesh19getConcreteTypeNameEv
Dpj:_ReadOnlyCollection_1_System_Collections_Generic_IListU3CTU3E_set_Item_m1584697503_gshared
Wnb:__ZNK12MeshRenderer22GetTypeVirtualInternalEv
Seg:_Char_System_IConvertible_ToUInt32_m3901815580
gAh:_Scrollbar_set_onValueChanged_m346467699
kfd:__ZN5physx2Gu19gjkLocalPenetrationINS0_9TriangleVENS0_17ShrunkConvexHullVEEEjRKT_RKT0_RKNS_6shdfnd3aos6FloatVERNSB_5Vec3VESG_SG_RSC_PhSI_Rhb
Hfl:__Z157RuntimeInvoker_Int32_t2950945753_RuntimeObject_Int32_t2950945753_Int32_t2950945753_Int32_t2950945753_SByte_t1669577662_SByte_t1669577662_Int32U26_t1369213839PFvvEPK10MethodInfoPvPS4_
jT:__ZN4FMOD6System17setSoftwareFormatEi17FMOD_SOUND_FORMATii18FMOD_DSP_RESAMPLER
Sgd:__ZN5physx2Gu15GJKLocalRayCastERNS0_9TriangleVERNS0_4BoxVERKNS_6shdfnd3aos6FloatVERKNS6_5Vec3VESC_RS7_RSA_SE_fb
Jod:__ZN5physx2Sc13ShapeIterator4initERKNS0_8ActorSimE
Zra:__ZN14SafeBinaryRead19TransferSTLStyleMapINSt3__23mapIN4core12basic_stringIcNS3_20StringStorageDefaultIcEEEES7_NS1_4lessIS7_EE13stl_allocatorINS1_4pairIKS7_S7_EEL18MemLabelIdentifier1ELi16EEEEEEvRT_17TransferMetaFlags
u9e:__ZN2UI6Canvas27UpdateEventIndexesRecursiveERi
U$:__ZN11UnityEngine15CloudWebService16SessionContainer21PrepareDataErrorEventERN4core12basic_stringIcNS2_20StringStorageDefaultIcEEEE
$Ef:_ExecuteEvents_get_pointerUpHandler_m3515704212
Nfg:_ArrayList_set_Item_m2003485935
h4f:_SatelliteContractVersionAttribute__ctor_m3630863995
UGf:_MouseButtonEventData_PressedThisFrame_m1060658845
qLb:__Z19TransferField_ArrayI19StreamedBinaryWriteILb0EE27Converter_SimpleNativeClassI8GUIStyleEEvRK23StaticTransferFieldInfoR31RuntimeSerializationCommandInfoRT0_
pnj:_ReadOnlyCollection_1_System_Collections_Generic_IListU3CTU3E_RemoveAt_m3969985996_gshared
TAf:__ZN5physx46solveTankInternaDynamicsEnginePlusDrivenWheelsERKNS_19ImplicitSolverInputEPKbPKfPNS_20ImplicitSolverOutputE
HKd:__ZN5physx14NpArticulationC2Ev
LBm:_emscripten_glCopyTexSubImage2D__wrapper
VPf:_GraphicRegistry_GetGraphicsForCanvas_m4219276355
Erg:_NumberFormatter_FastToDecHex_m699829267
gOc:__Z35Transfer_Blittable_FixedBufferFieldI8JSONReadiEvRK29SerializationCommandArgumentsR31RuntimeSerializationCommandInfo
dwa:__ZN15SerializeTraitsIN9ShaderLab16FastPropertyNameEE8TransferI19StreamedBinaryWriteILb0EEEEvRS1_RT_
LYc:__ZN22ParticleSystemRenderer16UpdateCachedMeshEv
m9j:__ZNSt3__213__vector_baseIN6il2cpp2os19SocketHandleWrapperENS_9allocatorIS3_EEED2Ev
rCl:__ZL48_Type_t3588564251_CustomAttributesCacheGeneratorP21CustomAttributesCache
$_c:__ZN12LightsModule8TransferI24GenerateTypeTreeTransferEEvRT_
Hc:invoke_viiffi
hcc:__ZN13sorted_vectorINSt3__24pairIN4core12basic_stringIcNS2_20StringStorageDefaultIcEEEEPK17MessageIdentifierEEN10vector_mapIS6_S9_NS0_4lessIS6_EENS0_9allocatorISA_EEE13value_compareESF_E10insert_oneERKSA_
a4f:_ResourceSet_ReadResources_m3663669011
UUk:_Mathf_CeilToInt_m432108984
xRi:_TimeSpan_FromHours_m1109641064
uua:__Z14resize_trimmedINSt3__26vectorIN9ShaderLab18SerializedPropertyENS0_9allocatorIS3_EEEEEvRT_j
hVj:__ZL25UnresolvedVirtualCall_138P12Il2CppObject17Color_t2555686324faaPK10MethodInfo
P5c:__Z20UpdateWholeSheet2TplIL27ParticleSystemCurveEvalMode3ELS0_3EEvfRK11MinMaxCurveS3_RK23ParticleSystemParticlesPf
V$d:__ZN5physx6shdfnd8PoolBaseINS_2Sc9ActorPairENS0_19ReflectionAllocatorIS3_EEE12allocateSlabEv
j7j:__ZN6il2cpp2vm13MetadataCache38GetMethodInfoFromMethodDefinitionIndexEi
MDf:_EventSystem_set_current_m38955169
TTj:__ZL24UnresolvedVirtualCall_68P12Il2CppObjectS0_iS0_S0_S0_S0_S0_S0_PK10MethodInfo
nFj:_CostDelegate_EndInvoke_m2797921932
vjb:__ZN10VertexData8TransferI24GenerateTypeTreeTransferEEvRT_
O3h:_Double_IsInfinity_m820013146
WBk:__ZN13Il2CppHashMapIPK19Il2CppGenericMethodP10MethodInfoN6il2cpp8metadata23Il2CppGenericMethodHashENS6_26Il2CppGenericMethodCompareENSt3__29allocatorINS9_4pairIK10KeyWrapperIS2_ES4_EEEEEC2EjRKS7_RKS8_
l0k:_Screen_get_dpi_m495672463
_Ni:_UTF8Encoding_InternalGetByteCount_m2120178851
R3k:_Vector3__ctor_m1719387948
a7b:__ZL10CullLightsRK22SceneCullingParametersR11CullResults
ppg:_Convert_ToUInt64_m3170916409
Z2j:_MainModule_set_startSize_m1275429743_AdjustorThunk
VF:__ZN7mecanim12statemachine20GetBlendTreeConstantERKNS0_13StateConstantEi
Y0d:__ZN5physx7NpScene21setDominanceGroupPairEhhRKNS_20PxDominanceGroupPairE
dtg:_Int64_System_IConvertible_ToInt16_m4062196970_AdjustorThunk
EDg:_MonoType_GetGenericTypeDefinition_m3201894896
pgc:__Z40GetTemporaryCachePathApplicationSpecificv
jAa:__ZN9GfxDevice16EndAsyncJobFrameEv
$pl:__Z99RuntimeInvoker_Int32_t2950945753_Ray_t3785851493_RuntimeObject_Single_t1397266774_Int32_t2950945753PFvvEPK10MethodInfoPvPS4_
mZe:_UNITY_tt_face_load_hhea
aWf:_DerivedType_get_Assembly_m2979298667
QMe:__ZN14SplatMaterials20UpdateSplatMaterialsEPK11TerrainDataP8Materialb
Bl:___syscall3
El:___syscall6
Gl:___syscall4
T0:__ZN11UnityEngine15CloudWebService20WebRequestRestClient17GetResponseStatusEv
snh:_ReturnMessage__ctor_m2352989078
qBb:__ZNSt3__26__treeINS_12__value_typeIN4core12basic_stringIcNS2_20StringStorageDefaultIcEEEEPN16MemoryFileSystem4NodeEEENS_19__map_value_compareIS6_SA_NS_4lessIS6_EELb1EEE13stl_allocatorISA_L18MemLabelIdentifier55ELi16EEE7destroyEPNS_11__tree_nodeISA_PvEE
Mxk:__ZN6il2cpp2vm3RCW14QueryInterfaceILb1EEEP14Il2CppIUnknownP15Il2CppComObjectRK10Il2CppGuid
MQg:_TlsServerCertificateRequest__ctor_m1334974076
Png:_Convert_ToInt32_m1613163543
Rxh:_MatEntry__ctor_m1949610076
Rmj:_ReadOnlyCollection_1_System_Collections_ICollection_CopyTo_m3127175806_gshared
Vl:_emscripten_glShaderBinary
tUi:_UInt16_ToString_m760649087
nAb:__ZNK20LocalFileSystemPosix6ExistsERK13FileEntryData
Aud:__ZN5physx35NpArticulationJointGetBodiesFromScbERNS_3Scb17ArticulationJointERPNS0_4BodyES5_
eue:__ZNK5physx2Sc15ClothFabricCore16getTetherLengthsEPfj
_Ok:_Camera_GetAllCameras_m668492922
Scf:__Z58Register_UnityEngine_Canvas_GetETC1SupportedCanvasMaterialv
NRi:_TimeSpan_op_Inequality_m2467851530
PNb:__ZN17AnimationCurveTplIfE8TransferI18StreamedBinaryReadILb1EEEEvRT_
dhj:_Array_Sort_TisUIVertex_t4057497605_m3996333845_gshared
kff:__ZN18UnityConnectClientD2Ev
zFg:_SByte_System_IConvertible_ToDouble_m2381680501
ebg:_Swapper_BeginInvoke_m1688449973
Xlk:_il2cpp_set_data_dir
N5d:__ZN5physx2Sc13ConstraintSim8getForceERNS_6PxVec3ES3_
Dil:__Z81RuntimeInvoker_Void_t1185182177_RuntimeObject_Int32_t2950945753_Int64_t3736567304PFvvEPK10MethodInfoPvPS4_
raa:__ZN13dynamic_arrayIcLj1EE6insertEPcPKcS3_
Ldl:__Z86RuntimeInvoker_Boolean_t97287965_Int16_t2552820387_Int16_t2552820387_Int32_t2950945753PFvvEPK10MethodInfoPvPS4_
zad:__ZN5physx15PxGeometryQuery18computePenetrationERNS_6PxVec3ERfRKNS_10PxGeometryERKNS_11PxTransformES6_S9_
czj:_IndexedSet_1_IndexOf_m241693686_gshared
gof:__ZN5physx35PxVehicleWheelsDynDataGeneratedInfoC2Ev
gFg:_RuntimeMethodHandle_Equals_m3301340296_AdjustorThunk
KVi:_UInt64_System_IConvertible_ToSingle_m925613075_AdjustorThunk
PJe:__ZN5Unity12PhysicsQueryC2Ev
jPb:__Z18Transfer_BlittableI18StreamedBinaryReadILb0EELb0E4AABBEvRK29SerializationCommandArgumentsR31RuntimeSerializationCommandInfo
vtb:__ZN24GenerateTypeTreeTransfer19TransferSTLStyleMapINSt3__28multimapIN4core12basic_stringIcNS3_20StringStorageDefaultIcEEEE4PPtrI6ObjectENS1_4lessIS7_EE13stl_allocatorINS1_4pairIKS7_SA_EEL18MemLabelIdentifier52ELi16EEEEEEvRT_17TransferMetaFlags
jM:__ZN16MecanimAnimation24DeleteAnimatedPropertiesERP26IAnimatedPropertyEvaluator
$Yj:_CanvasRenderer_SetMaterial_m824577244
N_c:__ZN11ColorModule8TransferI24GenerateTypeTreeTransferEEvRT_
KZb:__Z14DrawGUITextureRK5RectTIfEP7Texture11ColorRGBA32P8Materiali
dXl:__ZL101Quaternion_t2301928331_CustomAttributesCacheGenerator_Quaternion_LookRotation_m3197602968____upwards1P21CustomAttributesCache
lnj:_ReadOnlyCollection_1_System_Collections_Generic_ICollectionU3CTU3E_Add_m2686599243_gshared
kJ:__ZN9BlobWrite8TransferI22OffsetPtrArrayTransferIKN4math7_float4EEEEvRT_PKc17TransferMetaFlags
x_b:__ZN22RenderingCommandBuffer20ExecuteCommandBufferER17ShaderPassContextR15RenderNodeQueuejP13dynamic_arrayINSt3__24pairIN9ShaderLab16FastPropertyNameEP13RenderTextureEELj4EE16ComputeQueueTypeSA_
S2k:_Transform_IsChildOf_m224006092
iab:__ZN15TextureSettings8TransferI24GenerateTypeTreeTransferEEvRT_
RNc:__ZN9JSONWrite8TransferI4AABBEEvRT_PKc17TransferMetaFlags
HYa:__ZN25MultiBlocksMemoryFileData9SetLengthEy
p1g:_InternalEnumerator_1_get_Current_m3191242573_AdjustorThunk
skm:_Joystick_UpdateVirtualAxes_m1439422241
lre:__ZNK18ScBeforeSolverTask7getNameEv
_hj:_Dictionary_2_Do_ICollectionCopyTo_TisRuntimeObject_m1855083806_gshared
xPj:_Aes__ctor_m178909601
Teb:__ZNK9Texture2D20GetRuntimeMemorySizeEv
cFc:__ZN11Marshalling39CreateNullExceptionForUnityEngineObjectE18ScriptingObjectPtr
vee:__ZN5physx14solve1D4_BlockEPKNS_23PxcSolverConstraintDescEjRNS_16PxcSolverContextE
XJc:__ZN5Unity9rapidjson13GenericReaderINS0_4UTF8IcEES3_13JSONAllocatorE9ParseTrueILj0ENS0_19GenericStringStreamIS3_EENS0_15GenericDocumentIS3_S4_S4_EEEEvRT0_RT1_
L3k:_Vector2_op_Implicit_m4260192859
cn:_emscripten_glUniform2iv
TDd:__ZN5physx2Sc8ShapeSim17onTransformChangeEv
Yad:__ZL33GeomMTDCallback_ConvexHeightFieldRN5physx6PxVec3ERfRKNS_10PxGeometryERKNS_11PxTransformES5_S8_
TTe:_UNITY_FT_Outline_Transform
tDc:__Z60Register_UnityEngine_Sprites_DataUtility_Internal_GetMinSizev
Kqc:__ZNSt3__26vectorI5RectTIfENS_9allocatorIS2_EEE8__appendEj
Q1j:__ZN6il2cpp2vm5Class10GetMethodsEP11Il2CppClassPPv
etf:__ZN5physx6shdfnd5ArrayINS_17PxVehicleTireDataENS0_15InlineAllocatorILj320ENS0_19ReflectionAllocatorIS2_EEEEE8recreateEj
_2b:__Z30AddDefaultStreamsToMeshBuffersR9GfxDeviceR11MeshBuffersRK16DrawBuffersRange17ShaderChannelMaskS6_
ARc:__Z43ParticleSystemRenderer_RenderMultipleMeshesIL21SpriteMaskInteraction1EEvRK15RenderNodeQueueRK18RenderMultipleData17ShaderChannelMask
bNa:__ZN7ApiGLES17DeleteFramebufferERN2gl6HandleILNS0_10ObjectTypeE9EEES3_
GQa:__ZN15UniformTFMethod13MapBoneBufferEj
p8e:__ZN2UI14CanvasRendererD2Ev
Djj:_Array_InternalArray__get_Item_TisParameterModifier_t1461694466_m29553316_gshared
qSf:_OverflowException__ctor_m4029085969
vtg:_Int64_CompareTo_m1928360444_AdjustorThunk
Cje:__ZN5physx26PxcPCMContactCapsuleConvexERKNS_2Gu13GeometryUnionES3_RKNS_11PxTransformES6_RKfRNS_10PxcNpCacheERNS0_13ContactBufferE
hkf:__ZN5physx28PxVehicleComputeSprungMassesEjPKNS_6PxVec3ERS1_fjPf
olk:__ZN15dense_hashtableINSt3__24pairIK10KeyWrapperINS1_IPK9EventInfoP11Il2CppClassEEEjEES9_17ReflectionMapHashIS8_EN14dense_hash_mapIS9_jSD_NS9_14EqualsComparerINS0_8equal_toIS8_EEEENS0_9allocatorISB_EEE9SelectKeyESI_SK_E15set_deleted_keyERKSB_
oUb:__Z9SetupArgviPPKc
dog:_Convert_ToInt64_m2075031821
GCm:_glTexParameteri__wrapper
yxd:__ZN5physx10PxsContext17addParticleSystemEPNS_15PxsParticleDataERKNS_26PxvParticleSystemParameterEb
uvd:__ZN5physx3Scb5Scene13addRigidNoSimINS0_4BodyELb1ELb1EEEvRT_RNS0_13ObjectTrackerE
Udb:__ZN12CubemapArray23VirtualRedirectTransferER24GenerateTypeTreeTransfer
Zaa:__ZN12FileAccessor4OpenER15FileSystemEntry14FilePermission16FileAutoBehavior
wAk:__ZN6il2cpp2os9Directory6CreateERKNSt3__212basic_stringIcNS2_11char_traitsIcEENS2_9allocatorIcEEEEPi
igd:__ZL19sweepBoxVsTrianglesjPKN5physx10PxTriangleERKNS_2Gu3BoxERKNS_6PxVec3EfRNS_10PxSweepHitENS_7PxFlagsINS_9PxHitFlag4EnumEtEEbPKj
cga:__ZN23TransformChangeDispatch32QueueTransformChangeIfHasChangedERK15TransformAccess
$cb:__ZNSt3__26vectorINS_4pairIN9ShaderLab16FastPropertyNameEN18UnityPropertySheet11UnityTexEnvEEENS_9allocatorIS6_EEE21__push_back_slow_pathIKS6_EEvRT_
ISf:_Assembly_get_FullName_m293988418
Luc:__Z15WeldVertexArrayR13dynamic_arrayI8Vector3fLj4EERS_I12BoneWeights4Lj4EERS_IjLj4EES7_
B:tempValue
TLk:__ZN6il2cpp8metadata24Il2CppGenericContextHash4HashEPK20Il2CppGenericContext
X0g:_InternalEnumerator_1_get_Current_m356936020_AdjustorThunk
Tcj:_Collection_1_CheckWritable_m1583234367_gshared
Ksg:_Int32_ToString_m141394615_AdjustorThunk
y8:__Z29scripting_class_from_fullnamePKcS0_S0_
xvg:_Directory_GetCurrentDirectory_m219218555
y7f:_SmallXmlParser_UnexpectedEndError_m1914362401
sG:__ZN26AnimatorControllerPlayable18DeallocateBindingsEv
fbd:__ZN5physx2Gu29ConvexVsMeshContactGeneration20generateLastContactsEv
lml:__Z85RuntimeInvoker_Boolean_t97287965_Ray_t3785851493_Single_t1397266774_Int32_t2950945753PFvvEPK10MethodInfoPvPS4_
UFa:__ZN14DelayedDeletorI15dense_hashtableINSt3__24pairIK9TextureIDiEES3_14GfxGenericHashIS3_EN14GfxDoubleCacheIS3_iS7_NS1_8equal_toIS3_EEN31GfxDoubleCacheConcurrencyPolicy11LocklessGetE42GfxDoubleCacheDefaultEmptyDeletedGeneratorIS3_EE9SelectKeyESA_13stl_allocatorIS5_L18MemLabelIdentifier24ELi16EEEEclEv
kW:__ZN11AudioSource19CreateOpenALRolloffEfff
gZe:_UNITY_FT_Stream_ReadAt
ISd:__ZN5physx2Sc17ParticleSystemSim16getParticleStateEv
A$j:_Physics_Raycast_m3336206959
rqe:__ZN5physx6shdfnd5ArrayINS_25PxsCompoundContactManagerENS0_19ReflectionAllocatorIS2_EEE8recreateEj
MQi:_TimeSpan__ctor_m1896986612_AdjustorThunk
s6j:__ZN15dense_hashtableINSt3__24pairIK10KeyWrapperIN6il2cpp5utils13dynamic_arrayIPK10Il2CppTypeLj4EEEEPFvvEEESA_NS3_8metadata19Il2CppSignatureHashEN14dense_hash_mapISA_SD_SG_NSA_14EqualsComparerINSF_22Il2CppSignatureCompareEEENS0_9allocatorISE_EEE9SelectKeyESK_SM_E9set_valueEPSE_RKSE_
_kf:__ZN5physx15PxVehicleWheels5setupEPNS_9PxPhysicsEPNS_14PxRigidDynamicERKNS_22PxVehicleWheelsSimDataEjj
W5f:_ArgumentException__ctor_m1216717135
nZk:_Ray_ToString_m1732834890_AdjustorThunk
m6c:__Z19UpdateSingleRow2TplIL27ParticleSystemCurveEvalMode3ELS0_1EEvfRK11MinMaxCurveS3_RK23ParticleSystemParticlesPfbiii
Ud:_glReadBuffer
i_i:_List_1_System_Collections_IList_Contains_m3860993176_gshared
nhe:__ZN5physx14PxsAABBManagerC2ERNS_2Cm13EventProfilerERNS_19PxcScratchAllocatorE
cX:__ZN11AudioModule22CreateAudioClipFromWWWEP10IWWWStreamPKcbbi
Hkc:__ZN9Texture2DC2E10MemLabelId18ObjectCreationMode
hrh:_ObjectRecord_get_IsUnsolvedObjectReference_m1163921033
xUi:_UInt32_System_IConvertible_ToBoolean_m1763673183_AdjustorThunk
a0k:_SceneManager_INTERNAL_CALL_GetActiveScene_m1427626561
lSk:_UnityEvent_AddListener_m2276267359
vaf:__Z13RegisterClassIN2UI11CanvasGroupEEvv
IMj:_GUIStyle_Draw_m810654952
wgc:__ZN6prcoreL11inner_clearILj4EEEvPhjjj
BHk:_GC_initialize_offsets
aoa:__ZNK8Playable6HandleEv
Msh:_SetPropertyUtility_SetColor_m2229203028
hah:_Enumerator_MoveNext_m481679286_gshared
c4b:__Z30SetupBakedOcclusionForGeometrybRK26SharedLightmapSettingsDataRK15LightmapIndicesR17ShaderPassContext
d9:__ZN14MessageHandler28MessageIDToMessageIdentifierEi
Rjb:__ZNK11SpriteAtlas20GetRuntimeRenderDataEPK6Sprite
nvg:_FileSystemInfo__ctor_m3035148496
asg:_Int32_System_IConvertible_ToDecimal_m2190376994_AdjustorThunk
J4e:__ZN20TextRenderingPrivate15DynamicFontData36GetFaceForCharacterIfAvailableInFontERKNS_7FontRefERK13dynamic_arrayI4PPtrIN13TextRendering4FontEELj4EEj
qE:__ZN7mecanim14ValueArrayCopyILb0EEEvPKNS_10ValueArrayEPS1_
UN:__Z51Register_UnityEngine_Animator_get_hasBoundPlayablesv
le:emscriptenWebGLGetUniform
Ap:FUNCTION_TABLE_iiiiiiiiiii
MMj:_GUI_CallWindowDelegate_m3309453386
zXe:_cff_set_mm_blend
mid:__ZN5physx2Gu19sweepCapsuleCapsuleERKNS0_7CapsuleES3_RKNS_6PxVec3EfRfRS4_S8_jRt
J8b:__ZL10CleanUpJobP20CullingGroupsJobData
ivg:_DirectoryInfo_get_Exists_m3142069876
Eue:__ZN5physx13BigConvexData4LoadERNS_13PxInputStreamE
BZb:__ZN13RenderManager15BatchModeUpdateEv
gTh:_X509Chain_get_CertificateAuthorities_m804805415
$ib:__ZN14SafeBinaryRead21TransferSTLStyleArrayI13dynamic_arrayI8Vector2fLj4EEEEvRT_17TransferMetaFlags
Oca:__ZN17PersistentManager51InstanceIDToLocalSerializedObjectIdentifierInternalEiR31LocalSerializedObjectIdentifier
o$k:_Vector2_get_one_m738793577
brc:__ZNK4Mesh14GetIndexFormatEv
F3k:_Vector2_get_magnitude_m2752892833_AdjustorThunk
DEd:__ZN5physx2Sc8ActorSim24postDominanceGroupChangeEv
YHc:__ZN8GUIState12GetControlIDEi9FocusType
cxk:__ZN14dense_hash_mapI10KeyWrapperIP12Il2CppObjectEN6il2cpp2gc9CachedCCWENS4_5utils11PointerHashIS1_EENS3_14EqualsComparerINSt3__28equal_toIS2_EEEENSB_9allocatorINSB_4pairIKS3_S6_EEEEE13set_empty_keyERSH_
Pd:_glVertexAttribIPointer
wMi:_StringBuilder_ToString_m3317489284
uMa:__ZN13dynamic_arrayI21ComputeShaderResourceLj4EE9push_backERKS0_
Crc:__ZNK6Sprite10GetPaddingE20SpriteRenderDataMode
vFd:__ZN5physx2Cm8PtrTable5clearERNS0_22PtrTableStorageManagerE
tmi:_Array_InternalArray__ICollection_Remove_TisUInt32_t2560061978_m733727733_gshared
vGg:_CryptographicException__ctor_m503735289
Llf:__ZN5physx27PxVehicleDifferentialNWData20setDrivenWheelStatusEj
Yld:__ZN5physx3Cct15ObstacleContext7releaseEv
$de:__ZN5physx27solveFrictionBlockWriteBackEPKNS_23PxcSolverConstraintDescEjRNS_16PxcSolverContextEPNS_25PxcThresholdStreamElementEjPi
qmh:_RemotingConfiguration_get_ApplicationName_m593755586
B5k:__Z93RuntimeInvoker_Boolean_t97287965_Int32_t2950945753_SByte_t1669577662_ExceptionU26_t3600731591PFvvEPK10MethodInfoPvPS4_
U0b:__ZN14qsort_internal5QSortIP15RODataDepthPassi17ROSorterDepthPassEEvT_S4_T0_T1_
SZe:_UNITY_ft_glyphslot_alloc_bitmap
qKe:__ZN13PhysicsModule21SetAutoSyncTransformsEbb
iUg:_RSASslSignatureDeformatter_SetHashAlgorithm_m895570787
bxk:__ZN14dense_hash_mapI10KeyWrapperIP12Il2CppObjectEN6il2cpp2gc9CachedCCWENS4_5utils11PointerHashIS1_EENS3_14EqualsComparerINSt3__28equal_toIS2_EEEENSB_9allocatorINSB_4pairIKS3_S6_EEEEEC2EjRKS9_RKSE_
GEj:_X509CrlEntry__ctor_m4013514048
L2e:_ft_raster1_render
MFc:__Z47Register_UnityEngine_Mesh_RecalculateBoundsImplv
wAa:__ZN9GfxDevice27UpdateComputeSkinPoseBufferEP9GfxBufferP12SkinMeshInfo
qmm:_AeroplaneUserControl2Axis_Awake_m2256580094
jii:_String_LastIndexOf_m3451222878
bsm:__ZNKSt3__221__basic_string_commonILb1EE20__throw_length_errorEv
tAi:_EqualityComparer_1_System_Collections_IEqualityComparer_Equals_m245992594_gshared
Qj:_JS_SystemInfo_GetMemory
FCh:_Selectable_get_allSelectables_m868218263
hqi:_Array_InternalArray__IndexOf_TisParameterModifier_t1461694466_m1227120810_gshared
cOa:__ZN18GfxFramebufferGLES13ReadbackImageER14ImageReferenceiiiiii
zKc:__ZN5Unity9rapidjson6WriterI16TempBufferWriterNS0_4UTF8IcEES4_13JSONAllocatorE11WriteStringEPKcj
Q9k:__Z202RuntimeInvoker_Boolean_t97287965_RuntimeObject_Int32U26_t1369213839_Int32_t2950945753_Int32_t2950945753_RuntimeObject_SByte_t1669577662_Int32_t2950945753_ContractionU26_t961830454_ContextU26_t3937453398PFvvEPK10MethodInfoPvPS4_
Lrh:_SerializationInfo_SetType_m3923964808
HJa:__ZN6prcoreL12RemapGenericI17TexFormatARGB888815TexFormatRGB565EEvPKNS_9InnerInfoE
QR:__ZN4FMOD7Channel19setReverbPropertiesEPK29FMOD_REVERB_CHANNELPROPERTIES
bzg:_StreamReader_Dispose_m156389394
O7:__ZN13MonoBehaviour22GetScriptFullClassNameEv
yZc:__ZN11MinMaxCurve19GetWritableMinCurveEv
O9h:_RIPEMD160Managed_JJ_m112143231
yqe:__ZN5physx6shdfnd4sortIPNS_15PxsContactPatchENS_27SortBoundsPredicateManifoldENS0_19ReflectionAllocatorIS3_EEEEvPT_jRKT0_RKT1_j
q0b:__ZN13BatchRendererC2ER15RenderLoopStatsRK15RenderNodeQueuebb
hBb:__ZNK16MemoryFileSystem9EnumerateEPKcP19dynamic_block_arrayI13FileEntryInfoLj32EEbPPv19FileEnumerationFlag
mSb:__ZN13MonoBehaviour9CallAwakeEv
N8a:__ZN20SphericalHarmonicsL211AddWeightedERKS_f
D8k:__Z82RuntimeInvoker_RuntimeObject_Int64_t3736567304_Int64_t3736567304_Int64_t3736567304PFvvEPK10MethodInfoPvPS4_
Xzh:__Z14bankers_roundff
vHb:__Z19TransferField_ArrayI17RemapPPtrTransfer27Converter_SimpleNativeClassI8GUIStyleEEvRK23StaticTransferFieldInfoR31RuntimeSerializationCommandInfoRT0_
jLc:__ZN9JSONWrite8TransferI10ColorRGBAfEEvRT_PKc17TransferMetaFlags
rld:__ZN5physx3Cct26CharacterControllerManager16createControllerERKNS_16PxControllerDescE
Z8:__Z25scripting_method_get_name18ScriptingMethodPtr
tUg:_SslCipherSuite_ComputeKeys_m661027754
OFb:__Z19TransferField_ArrayI14SafeBinaryRead16Converter_StringEvRK23StaticTransferFieldInfoR31RuntimeSerializationCommandInfoRT0_
pUc:__ZN14ParticleSystem17SimulateParticlesER24ParticleSystemUpdateDataR23ParticleSystemParticlesjRKfPj
o1h:_Decimal_Equals_m2486655999
DHk:_GC_exit_check
Tx:__ZN7mecanim9animation9DenseClip8TransferI14SafeBinaryReadEEvRT_
E4c:__ZL24GenerateParticleGeometryIL24ParticleSystemRenderMode0ELb1ELb1EL25ParticleSystemRenderSpace4EEvPfRK22ParticleSystemTempDataRK26ParticleSystemRendererDataRK21ParticleSystemModulesRK23ParticleSystemParticlesRK31ParticleSystemParticlesTempData
NDk:__ZThn4_N6il2cpp2vm13ComObjectBase18ReleaseMarshalDataEP13Il2CppIStream
_0f:_MonoField_ToString_m2518484388
aKh:_DSAManaged_get_Random_m923751780
qch:_Transform_1_Invoke_m2385719192_gshared
P7c:__ZN10SizeModuleC2E10MemLabelId
X3k:_Vector3_set_Item_m1772472431_AdjustorThunk
$Vh:_Interpreter_PopulateGroup_m4042796257
zcc:__ZNSt3__26vectorINS_4pairIN4core12basic_stringIcNS2_20StringStorageDefaultIcEEEES6_EE13stl_allocatorIS7_L18MemLabelIdentifier38ELi16EEE6insertENS_11__wrap_iterIPKS7_EERSD_
MSk:_RenderPipelineManager_DoRenderLoop_Internal_m3799666479
bJ:__ZN9BlobWrite8TransferI22OffsetPtrArrayTransferI9OffsetPtrIN7mecanim12statemachine18StateMachineMemoryEEEEEvRT_PKc17TransferMetaFlags
jKk:__ZN6il2cpp2os12Cryptography23GetCryptographyProviderEv
kaj:_Collection_1_System_Collections_IList_IndexOf_m3894953546_gshared
PNh:_NameObjectCollectionBase_Init_m2525481323
PCk:__ZN6il2cpp2vm6String8NewUtf16EPKDsi
sFg:_SByte_System_IConvertible_ToByte_m2268214252_AdjustorThunk
fAk:__ZN6il2cpp2os10ThreadImpl12QueueUserAPCEPFvPvES2_
UJj:_RegularExpression__ctor_m119502265
aff:__ZN22BaseUnityConnectClient10QueueEventERN11UnityEngine15CloudWebService17CloudServiceEventEPKcjb
mnj:_ReadOnlyCollection_1_System_Collections_Generic_ICollectionU3CTU3E_Clear_m522482168_gshared
Clh:_ConstructionCall_InitMethodProperty_m2021094586
Thd:__ZNK5physx2Gu15HeightFieldUtil12traceSegmentI25CapsuleTraceSegmentReportLb0ELb0ELb1EEEvRKNS_6PxVec3ES6_PT_PS5_
ITc:__Z9UpdateTplIL27ParticleSystemCurveEvalMode1EEvRK11MinMaxCurveR23ParticleSystemParticlesjjbjRK8Vector2f
Bie:__ZN5physx10PxsContext23prepareCMDiscreteUpdateEPNS_10PxBaseTaskE
O9:__ZNK14SerializedFile12GetHighestIDEv
Zdm:__ZL74CanvasScaler_t2767979955_CustomAttributesCacheGenerator_m_DefaultSpriteDPIP21CustomAttributesCache
YEd:__ZN5physx6shdfnd5ArrayIPvNS0_19ReflectionAllocatorINS_2Cm5BlockIhLj256EEEEEE4copyINS0_15InlineAllocatorILj256ES7_EEEEvRKNS1_IS2_T_EE
fg:_emscripten_glGetError
Zjk:__ZN15dense_hashtableINSt3__24pairIK10KeyWrapperIPK14Il2CppAssemblyEPK22Il2CppMonoAssemblyNameEES6_N6il2cpp5utils11PointerHashIS4_EEN14dense_hash_mapIS6_SA_SF_NS6_14EqualsComparerINS0_8equal_toIS5_EEEENS0_9allocatorISB_EEE9SelectKeyESK_SM_E14squash_deletedEv
BS:__Z14FMOD_FILE_SeekPvjS_
CId:__ZN5physx6shdfnd8PoolBaseINS_11NpAggregateENS0_19ReflectionAllocatorIS2_EEE15disposeElementsEv
w9a:__ZN7TextureC2E10MemLabelId18ObjectCreationMode
$vh:_LayoutGroup__ctor_m2162961217
fhd:__ZThn4_N16RayRTreeCallbackILi1ELb1EE14processResultsEjPj
K9b:__ZNK13RenderTexture32CalculateNeedsInvertedProjectionEv
Mld:__ZN5physx2Gu17RadixSortBuffered4SortEPKfj
ng:emscriptenWebGLGet
uka:__Z19CanReplaceComponentRN5Unity9ComponentEPKNS_4TypeEPN4core12basic_stringIcNS5_20StringStorageDefaultIcEEEE
bBg:_UnmanagedMemoryStream_Flush_m1540584491
Apg:_GuidParser_ParseGuid2_m1914838819
Akc:__ZN12CubemapArray11InitTextureEiii13TextureFormatb
ZJa:__ZN6prcoreL18BlitIntegerToFloatERK14ImageReferenceRS0_
i3c:__ZN32CustomDataModulePropertyBindings13SetFloatValueER14ParticleSystemif
gvc:__Z17GetSceneBuildInfoRKN4core12basic_stringIcNS_20StringStorageDefaultIcEEEEiR14SceneBuildInfo
Eog:_Convert_ToSingle_m3983149863
xXg:_InternalEnumerator_1_System_Collections_IEnumerator_get_Current_m55999184_gshared
$Th:_X509CertificateEnumerator_get_Current_m364341970
XOf:_Graphic_get_depth_m815589653
Hrd:__ZN27ConvexVsMeshOverlapCallbackC2ERKN5physx2Gu10ConvexMeshERKNS0_11PxMeshScaleERKNS0_2Cm23FastVertex2ShapeScalingERKNS0_11PxTransformESE_bRKNS1_3BoxE
Etc:__Z18SetIParticleSystemP15IParticleSystem
KJ:__ZN7mecanim5human13HumanFixTwistEPKNS0_5HumanEPNS_8skeleton13SkeletonPoseTIN4math4trsXEEES9_iiRKf
I3b:__ZL24AssignProjectorQueuesJobP30AssignProjectorQueuesJobHeader
L2f:_ParameterModifier_t1461694466_marshal_pinvoke
z6j:__ZN15dense_hashtableINSt3__24pairIK10KeyWrapperIN6il2cpp5utils13dynamic_arrayIPK10Il2CppTypeLj4EEEEPFvvEEESA_NS3_8metadata19Il2CppSignatureHashEN14dense_hash_mapISA_SD_SG_NSA_14EqualsComparerINSF_22Il2CppSignatureCompareEEENS0_9allocatorISE_EEE9SelectKeyESK_SM_E4swapERSP_
dqg:_Int16_System_IConvertible_ToUInt32_m3410279543
Bxa:__ZN9ShaderLab20SerializedSubProgram14SetConstBufferEPKci
LSc:__ZN11ShapeModule9ResetSeedERK27ParticleSystemReadOnlyState
Xck:__ZN6il2cpp2os4File5CloseEPNS0_10FileHandleEPi
_5j:__ZNSt3__27__sort5IRN6il2cpp5utils11collections13ArrayValueMapIPK10Il2CppType17Il2CppInteropData26InteropDataToTypeConverterNS1_8metadata14Il2CppTypeLessENSA_26Il2CppTypeEqualityComparerEE12SortComparerEPS8_EEjT0_SH_SH_SH_SH_T_
YJe:__ZN13PhysicsModule17SetRigidBodyStateER9RigidbodyRKN8IPhysics14RigidBodyStateE
JUe:_cf2_getStdVW
bUi:_UInt16_CompareTo_m2664746316_AdjustorThunk
Oya:__ZN9GfxDevice13SetActiveTierE12GraphicsTier
D9d:__ZN5physx2Sq12BucketPruner11shiftOriginERKNS_6PxVec3E
XPc:__Z29Transfer_Blittable_ArrayFieldI8JSONReadjEvRT_R9ArrayInfoRK23StaticTransferFieldInfo
Xud:__ZN5physx6shdfnd5ArrayIPNS_2Sc16ArticulationCoreENS0_19ReflectionAllocatorIS4_EEE15growAndPushBackERKS4_
JHk:_GC_check_finalizer_nested
Vg:__setLetterbox
YBh:_ScrollRect_OnScroll_m3861066534
Zoe:__ZN5physx19normalizePartitionsERNS_6shdfnd5ArrayIjNS0_19ReflectionAllocatorIjEEEEPNS_23PxcSolverConstraintDescEPKNS_13PxcSolverBodyEjjS5_
dgh:_Dictionary_2_ToTKey_m224697230_gshared
F0l:__ZL72FormerlySerializedAsAttribute_t2859083114_CustomAttributesCacheGeneratorP21CustomAttributesCache
fsh:_OnValidateInput_Invoke_m1009124904
Vcd:__ZN18ContactCapsuleMesh20processTriangleCacheILj16EEEbRN5physx2Gu13TriangleCacheIXT_EEE
IGj:_PatternCompiler_EmitFastRepeat_m3012952683
Gmb:__ZNSt3__26vectorI17BlendShapeChannelNS_9allocatorIS1_EEE6assignINS_11__wrap_iterIPS1_EEEENS_9enable_ifIXaasr21__is_forward_iteratorIT_EE5valuesr16is_constructibleIS1_NS_15iterator_traitsISA_E9referenceEEE5valueEvE4typeESA_SA_
Gec:__ZN11TimeManager11GetRealtimeEv
Eqd:__ZN5physx2Sc16InteractionScene25removeFromActiveActorListERNS0_5ActorE
VS:__ZN29AudioEffectInternalDefinitionC2EP26UnityAudioEffectDefinitionb
Yrj:_ReadOnlyCollection_1_System_Collections_IList_Remove_m2434650390_gshared
uUi:_UInt16_ToString_m3056878594_AdjustorThunk
zSc:__ZNK11MinMaxCurve20FindMinMaxIntegratedEv
Vmd:__ZN5physx3Ext21InertiaTensorComputer6rotateERKNS_7PxMat33E
YWh:_Interval_get_IsSingleton_m3386290029
Uek:__ZNSt3__2plIcNS_11char_traitsIcEENS_9allocatorIcEEEENS_12basic_stringIT_T0_T1_EERKS9_PKS6_
x1k:_Time_get_unscaledDeltaTime_m4270080131
coe:__ZN5physx22PxcDiscreteNarrowPhaseERNS_18PxcNpThreadContextERNS_13PxcNpWorkUnitE
GIa:_stbir_resize
upi:_Array_IndexOf_TisCustomAttributeTypedArgument_t2723150157_m3158556463_gshared
e5h:_Environment_GetOSVersionString_m407782784
Mji:_DecoderExceptionFallback_Equals_m1082173956
jGl:__ZL69Assembly_t_CustomAttributesCacheGenerator_Assembly_GetName_m981771927P21CustomAttributesCache
Bje:__ZN5physx23PxcPCMContactCapsuleBoxERKNS_2Gu13GeometryUnionES3_RKNS_11PxTransformES6_RKfRNS_10PxcNpCacheERNS0_13ContactBufferE
NYa:__Z37ReadDirectoryInfo_UnityWebAndUnityRawR12FileAccessorRKN20ArchiveStorageHeader6HeaderERNS1_13DirectoryInfoE
eDj:_PKCS12_get_Keys_m3893933360
Fja:__ZNSt3__26__treeINS_12__value_typeIPKciEENS_19__map_value_compareIS3_S4_15compare_tstringIS3_ELb1EEENS_9allocatorIS4_EEE7destroyEPNS_11__tree_nodeIS4_PvEE
jnm:_CarController_get_Revs_m1338495832
Iti:_Array_InternalArray__Insert_TisIntPtr_t_m189626842_gshared
Vsg:_Int64_System_IConvertible_ToByte_m375085029_AdjustorThunk
QJg:_RijndaelManaged_CreateEncryptor_m263736311
S0b:__ZN20DynamicPropertySheet14SetValueQueuedEN9ShaderLab16FastPropertyNameEN19ShaderPropertySheet12PropertyTypeEjNS2_8SetFlagsE
d9e:__ZN2UI6Canvas26MarkAllNestedCanvasesDirtyEv
juk:__ZN6il2cpp2vm12ReboxIfBoxedEP14Il2CppIUnknownP11Il2CppClass
OTb:__ZN25PathNamePersistentManagerD2Ev
q6:__ZN17PersistentManager48IntegrateObjectAndUnlockIntegrationMutexInternalEi
tqa:__ZZ29InitializeSortingGroupManagerPvEN44PostLateUpdateSortingGroupsUpdateRegistrator7ForwardEv
A7l:__ZL55EventTrigger_t1076084509_CustomAttributesCacheGeneratorP21CustomAttributesCache
kfi:_SecurityElement_SearchForChildByTag_m900466299
Bq:__ZN6Object12SetHideFlagsENS_9HideFlagsE
gEe:__ZN9Rigidbody23VirtualRedirectTransferER14SafeBinaryRead
xog:_Convert_ToSingle_m3227075028
wzm:_emscripten_glGetFramebufferAttachmentParameteriv__wrapper
b_b:__ZN13RendererScene15InitializeUmbraEv
C6a:__Z28CalculateGlobalMatrixInverse23TransformAccessReadOnly
jYc:__ZN23ParticleSystemParticles17SetUsesCustomDataEi
YCi:_GenericEqualityComparer_1_Equals_m3457564127_gshared
EKg:_BigInteger_ModInverse_m2426215562
Iji:_DecoderExceptionFallback__ctor_m4044614564
WSd:__ZNK5physx15PxsParticleData15getWorldBoundsVEv
_Be:__ZN15CapsuleCollider13AwakeFromLoadE17AwakeFromLoadMode
gBg:_LocalDataStoreSlot__cctor_m644942532
Rid:__ZN12_GLOBAL__N_124HfTrianglesEntityReport27onEventEjPj
P1f:_MonoProperty_CachePropertyInfo_m2968057423
xif:__ZNK25UnityWebRequestJavaScript18GetDownloadedBytesEv
lZk:_Ray_GetPoint_m1852405345_AdjustorThunk
XDd:__ZN5physx17PxsContactManager16resetCachedStateEv
pif:__ZN12HeaderHelper14SetUnvalidatedERKN4core12basic_stringIcNS0_20StringStorageDefaultIcEEEES6_b
TO:__ZN4FMOD6SoundI7releaseEv
TXd:__ZN5physx20NpRigidActorTemplateINS_14PxRigidDynamicEE15setActorSimFlagEb
E1g:_InternalEnumerator_1_get_Current_m1408339225_gshared
lWe:_cff_parse_num
pZa:__ZN10MemoryFile9SetLengthEy
cv:__ZN7mecanim10ValueArray8TransferI19StreamedBinaryWriteILb0EEEEvRT_
AJb:__ZN5RectTIiE8TransferI24GenerateTypeTreeTransferEEvRT_
QSb:__Z28scripting_class_is_interface17ScriptingClassPtr
ki:_glTexStorage2D
Jkg:_SyncHashtable_get_Item_m2686606216
Ywa:__ZNK9ShaderLab10SubProgram14EnsureCompiledEv
eZf:_MethodBuilder_GetGenericArguments_m1765425737
EZh:_DateTime_CompareTo_m3687348273
yGk:_GC_push_marked
M_h:_DateTime_ToUniversalTime_m1945318289_AdjustorThunk
xGe:__ZN5physx7profile10DataBufferINS_6shdfnd6MutexTINS0_26WrapperReflectionAllocatorIhEEEENS0_14ScopedLockImplIS6_EEE17handleBufferFlushEPKhj
P8:__Z18BuildScriptClassId17ScriptingClassPtr
GXj:_TextGenerator_Init_m1168488231
zmm:_JetParticleEffect_FindAeroplaneParent_m2989992714
QWa:__ZL31DeleteLastPathNameComponentImplRKN4core12basic_stringIcNS_20StringStorageDefaultIcEEEEPKc
Dhc:__Z13RegisterClassI18DelayedCallManagerEvv
i0j:_Rigidbody_AddTorque_m3171849690
nff:__ZN18UnityConnectClient15GetCloudServiceEv
JHb:__Z18Transfer_BlittableI24GenerateTypeTreeTransferLb0EiEvRK29SerializationCommandArgumentsR31RuntimeSerializationCommandInfo
Kre:__ZN5physx20PxsConstraintProjectEPKNS_13PxsConstraintEbf
CLd:__ZN5physx7NpShape7setFlagENS_11PxShapeFlag4EnumEb
W$g:_InternalEnumerator_1_get_Current_m2698009637_gshared
rdh:_Enumerator_System_Collections_IEnumerator_Reset_m278261807_gshared
JSb:__ZL28SerializationCommandGroupForRK31TransferFunctionScriptingTraits17ScriptingClassPtr17ScriptingFieldPtrRK20CoreScriptingClasses
W$a:__ZN10TagManager32RegisterDefaultTagsAndLayerMasksEv
GQi:_WaitHandle_Dispose_m738127030
Hel:__Z50RuntimeInvoker_Double_t594665363_Int32_t2950945753PFvvEPK10MethodInfoPvPS4_
Hne:__ZN5physx2Sc35ParticleElementRbElementInteraction12onDeactivateEj
Wnc:__ZN10GameObject28IsActiveIgnoreImplicitPrefabEv
bHi:_Enumerator_System_Collections_IEnumerator_get_Current_m1540440674_gshared
fgi:_Single_System_IConvertible_ToInt16_m809233024_AdjustorThunk
fkf:__ZN5physx23PxVehicleWheels4SimData17setSuspensionDataEjRKNS_23PxVehicleSuspensionDataE
nqm:_fmodf
ish:_InputField_UpdateLabel_m1837760870
WEa:__ZN4gles8InitCapsEP7ApiGLESP12GraphicsCapsR16GfxDeviceLevelGL
_Ia:__ZN6prcore14BlitImageFloatERK14ImageReferenceRS0_NS0_8BlitModeE
o3a:__Z24CalculateVertexLightDataRK15SharedLightDataR14GfxVertexLight
Ui:_glEnable
kik:__ZN15dense_hashtableINSt3__24pairIK10KeyWrapperINS1_IPK12PropertyInfoP11Il2CppClassEEEjEES9_17ReflectionMapHashIS8_EN14dense_hash_mapIS9_jSD_NS9_14EqualsComparerINS0_8equal_toIS8_EEEENS0_9allocatorISB_EEE9SelectKeyESI_SK_E15insert_noresizeERKSB_
Vwa:__ZNK9ShaderLab7Program28BeginReadUnsupportedVariantsEv
Y9d:__ZN5physx2Sq10AABBPrunerC2Eb
Qfa:__ZN12CachedWriter11Align4WriteEv
cub:__ZNSt3__26vectorIN30RuntimeInitializeOnLoadManager9ClassInfoE13stl_allocatorIS2_L18MemLabelIdentifier13ELi16EEE7reserveEj
n5d:__ZN5physx2Sq8AABBTreeC2Ev
nGj:_PatternCompiler_EmitCategory_m851169746
wLc:__Z35Transfer_Blittable_FixedBufferFieldI9JSONWriteiEvRK29SerializationCommandArgumentsR31RuntimeSerializationCommandInfo
E2c:__ZN11TrailModuleD2Ev
hIh:_BigInteger_op_Subtraction_m1575155386
kG:__ZN26AnimatorControllerPlayable17ProcessRootMotionEP35AnimationPlayableEvaluationConstantP32AnimationPlayableEvaluationInputP33AnimationPlayableEvaluationOutput
UNg:_RSAManaged_ImportParameters_m1117427048
HAg:_UnexceptionalStreamReader_Peek_m1842169584
Qlf:__ZN5physx21PxVehicleDriveDynDataC2Ev
Rdf:__ZN11UnityEngine7Connect15DeviceInfoEvent16CollectExtraInfoEv
gEk:__ZN6il2cpp2os11Environment22SetEnvironmentVariableERKNSt3__212basic_stringIcNS2_11char_traitsIcEENS2_9allocatorIcEEEESA_
Mue:__ZN5physx2Gu10ConvexMeshD2Ev
MGg:_CryptographicException__ctor_m1422015889
ysf:__ZN5physx18RepXPropertyFilterINS_2Sn17RepXVisitorWriterINS_22PxVehicleWheelsSimDataEEEEclILj625ES3_KjjEEvRKNS_14PxPropertyInfoIXT_ET0_T1_T2_EEj
Qjk:__ZN6il2cpp2gc19AppendOnlyGCHashMapIPK10Il2CppTypeP20Il2CppReflectionTypeNS_8metadata14Il2CppTypeHashENS7_26Il2CppTypeEqualityComparerEEC2Ev
A4k:_Vector4_Equals_m1779210055_AdjustorThunk
p6a:__ZN17LightBakingOutput8TransferI19StreamedBinaryWriteILb0EEEEvRT_
YZa:__ZN20ArchiveStorageReader10InitializeER15FileSystemEntryyb
Y8c:__Z60Register_UnityEngine_ParticleSystem_MainModule_GetStartColorv
zEk:__ZThn8_N6il2cpp2vm13CachedCCWBaseINS0_13ManagedObjectEE6AddRefEv
oZf:_TypeBuilder_CreateType_m3375483507
gAf:__ZN5physx29PxVehicleDrive4WGeneratedInfoC2Ev
pjh:_RemotingServices_GetRealProxy_m2081098851
IJh:_BlockProcessor_Core_m189015002
Ezm:_emscripten_glScissor__wrapper
Fp:FUNCTION_TABLE_viifi
Ip:FUNCTION_TABLE_viiff
Pod:__ZNK5physx2Sc8ShapeSim10getBodySimEv
qSe:__ZN13SpeedTreeWind16CopySettingsFromEPKS_
b6f:_X501__cctor_m1166912714
tyh:_MaskUtilities_GetRectMasksForClip_m532898711
Z0e:_UNITY_tt_face_free_hdmx
FOk:_Bounds_ToString_m4208690781
oal:__Z88RuntimeInvoker_RuntimeObject_RuntimeObject_RuntimeObject_Int32_t2950945753_RuntimeObjectPFvvEPK10MethodInfoPvPS4_
Adk:__ZN6il2cpp2vm14TypeNameParser5ParseEb
zBg:_Math_Sqrt_m1297338011
uzg:_StreamWriter_Initialize_m3490883444
dTi:_Type_GetGenericArguments_m3500465462
VOe:__ZN13dynamic_arrayIsLj2EE18resize_initializedEjRKs12ResizePolicy
aFd:__ZN5physx6shdfnd5ArrayIPvNS0_19ReflectionAllocatorINS_2Cm5BlockIhLj128EEEEEE15growAndPushBackERKS2_
shf:__ZN23UnityPurchasingSettingsC2Ev
uob:__ZNK9Transform13GetWorldScaleEv
X$f:_Module_IsDefined_m2423524910
EVf:_DerivedType_create_unmanaged_type_m747846525
W4l:__ZL60EventType_t3528516131_CustomAttributesCacheGenerator_repaintP21CustomAttributesCache
$1a:__ZN17GPUFenceInternals7ReleaseEv
Scm:__ZL66Selectable_t3250028441_CustomAttributesCacheGenerator_m_NavigationP21CustomAttributesCache
iMd:__ZN5physx14NpShapeManager15setupSceneQueryERNS_2Sq17SceneQueryManagerERKNS_12PxRigidActorERKNS_7NpShapeE
A$a:__Z9SetLocalS15TransformAccessRKN4math7_float3Ey
tpi:_Array_IndexOf_TisCustomAttributeNamedArgument_t287865710_m2817957199_gshared
Hta:__ZN15SerializeTraitsI13dynamic_arrayIN9ShaderLab21SerializedBindChannelELj4EEE19ResizeSTLStyleArrayERS3_i
alm:_TiltInput_OnEnable_m692757573
fCj:_ExtendedKeyUsageExtension_ToString_m2116504780
Xwb:__ZNK5Unity9Component38MarkGameObjectAndComponentDependenciesER27GarbageCollectorThreadState
Fre:__ZN22ScAfterIntegrationTask11runInternalEv
Nug:_BinaryReader_Read_m3708759962
mGf:_PointerEventData_IsPointerMoving_m1902409386
Nwd:__ZNK5physx2Sc9ClothCore23getExternalAccelerationEv
Egd:__ZN5physx2Gu13coarseCullingERKNS_6PxVec3ES3_ffRKNS_10PxTriangleE
BEa:__ZN9GfxDevice26CreateDefaultVertexBuffersEv
XAm:_emscripten_glVertexAttrib2fv__wrapper
QAe:__ZN11BoxCollider22FetchPoseFromTransformEv
hoe:__ZN5physx2Sc5Scene29processNarrowPhaseTouchEventsEv
UHa:__ZN4crnd12symbol_codec32decode_receive_static_data_modelERNS_25static_huffman_data_modelE
cfc:__ZN18ScriptingArguments8AddFloatEf
L1k:_TouchScreenKeyboard_Open_m3325559252
aRf:_Image_set_fillOrigin_m469806249
hTe:__ZN15TerrainColliderD2Ev
Fdf:__ZN11UnityEngine15PlatformWrapper16GetVRRenderScaleEv
Qyd:__ZN5physx6shdfnd5ArrayIPvNS0_15InlineAllocatorILj256ENS0_19ReflectionAllocatorINS_18NpArticulationLinkEEEEEE15growAndPushBackERKS2_
wMc:__Z18Transfer_BlittableI9JSONWriteLb0EaEvRK29SerializationCommandArgumentsR31RuntimeSerializationCommandInfo
o$:__ZN11UnityEngine15CloudWebService14DataDispatcher34OnSessionContainerArchivedAndReadyERNS0_16SessionContainerE
tWk:_ConnectionChangeEvent__ctor_m764126802
QUc:__ZN23ParticleSystemParticles20SetUsesTriggerEventsEb
cmd:__ZNK5physx3Cct15ObstacleContext11getObstacleEj
e3f:_ResolveEventHandler_Invoke_m1337322179
VFi:_Enumerator_VerifyState_m2621680056_gshared
PKj:_UriParser_InternalRegister_m3643767086
dsa:__ZN14SafeBinaryRead19TransferSTLStyleMapINSt3__23mapIN4core12basic_stringIcNS3_20StringStorageDefaultIcEEEEiNS1_4lessIS7_EENS1_9allocatorINS1_4pairIKS7_iEEEEEEEEvRT_17TransferMetaFlags
j$e:_gray_move_to
J$h:_DBNull_System_IConvertible_ToSingle_m13713620
rmj:_ReadOnlyCollection_1_System_Collections_IList_Contains_m1327645028_gshared
nRf:_Image_GetDrawingDimensions_m3060965396
d2l:__ZL69FontTextureRebuildCallback_t2467502454_CustomAttributesCacheGeneratorP21CustomAttributesCache
wTi:_TypeLoadException__ctor_m1154572625
Axc:__Z30RegisterValidateMethodCallbackiPF18ScriptingMethodPtrS_17ScriptingClassPtrP6ObjectEPKc
zRg:_Context_get_WriteSequenceNumber_m1115956887
lij:_Dictionary_2_Do_ICollectionCopyTo_TisKeyValuePair_2_t2401056908_m1169495264_gshared
ZVc:__Z25GetTransformationMatricesPN4math8float3x3ES1_bbRK10Matrix4x4fS4_
aLf:_ContentSizeFitter__ctor_m2349275633
N8d:__ZN5physx13IslandManager6resizeEj
w_e:_tt_cmap_init
OQc:__ZN8JSONRead8TransferI9BoundsIntEEvRT_PKc17TransferMetaFlagsb
Va:invoke_viidi
O6c:__Z17UpdateSprites2TplIL27ParticleSystemCurveEvalMode0ELS0_2EEvfRK11MinMaxCurveS3_RK23ParticleSystemParticlesPf
Itd:__ZN5physx6shdfnd8PoolBaseINS_2Cm5BlockIPvLj16EEENS0_19ReflectionAllocatorIS5_EEE17releaseEmptySlabsEv
OOf:_Graphic_OnRectTransformDimensionsChange_m3695755375
uFg:_SByte_System_IConvertible_ToChar_m1489191771_AdjustorThunk
uR:__ZN9AudioClip7CleanupEv
fpk:__ZNK15dense_hashtableINSt3__24pairIK10KeyWrapperIP11Il2CppClassES4_EES5_N6il2cpp8metadata16SZArrayClassHashEN14dense_hash_mapIS5_S4_SA_NS5_14EqualsComparerINS9_19SZArrayClassCompareEEENS0_9allocatorIS7_EEE9SelectKeyESE_SG_E12test_deletedEj
Omd:__ZL20updateMassAndInertiabRN5physx11PxRigidBodyEPKfjPKNS_6PxVec3Eb
pPc:__Z18Transfer_BlittableI8JSONReadLb0EdEvRK29SerializationCommandArgumentsR31RuntimeSerializationCommandInfo
KGe:__ZN5physx24NpPtrTableStorageManagerC2Ev
Jt:__ZN7mecanim9animation21BlendTreeNodeConstant35Transfer_4_0_BackwardsCompatibilityI14SafeBinaryReadEEvRT_
Ekh:_SynchronizationAttribute_EnterContext_m1660729920
Mcf:__Z44Register_UnityEngine_Canvas_set_sortingOrderv
oYj:_Canvas_get_referencePixelsPerUnit_m3420541976
YLj:_Event_get_current_m2393892120
zQj:_VertexHelper_Clear_m627349662
z9j:__ZN6il2cpp2vm21ThreadPoolCompartment13QueueWorkItemEP17Il2CppAsyncResult
yza:__ZNK9GfxDevice13GetViewMatrixEv
cBg:_UnmanagedMemoryStream_Dispose_m2681886347
E1d:__ZN5physx7NpScene15flushSimulationEb
jYg:_InternalEnumerator_1_System_Collections_IEnumerator_get_Current_m1295084274_gshared
wKd:__ZN5physx6shdfnd8PoolBaseINS_10NpMaterialENS0_19ReflectionAllocatorIS2_EEE12allocateSlabEv
laa:__ZN8TypeTree8BlobReadERPKhS1_ib
Dag:_Array_Reverse_m3714848183
iNf:_Dropdown_ClearOptions_m4085591601
nKf:_CanvasUpdateRegistry_InternalRegisterCanvasElementForGraphicRebuild_m3522560454
qye:__ZN5physx18ReducedVertexCloudC2EPKNS_6PxVec3Ej
zub:__ZN18LoadSceneOperation23GetAllowSceneActivationEv
Klm:_AeroplaneAudio_Awake_m3218817607
u0a:__ZN6CameraD0Ev
fpa:__ZN31CanvasBatchIntermediateRenderer16StaticInitializeEPv
CF:__ZN7mecanim12AndValueMaskILb0EEEvPKNS_14ValueArrayMaskEPS1_
Stb:__ZN14SafeBinaryRead21TransferSTLStyleArrayINSt3__26vectorIi13stl_allocatorIiL18MemLabelIdentifier13ELi16EEEEEEvRT_17TransferMetaFlags
EKi:_EncoderFallback__cctor_m3806755293
g5e:_raccess_guess_apple_double
ZLa:__ZL18ProgramUniform1uivPK7ApiGLESjiihPKv
Q3c:__ZN27ShapeModulePropertyBindings13GetFloatValueERK14ParticleSystemi
Kkc:__ZN14Texture2DArray13RebuildMipMapEv
y3j:__ZN13Il2CppHashSetIPK17Il2CppGenericInstN6il2cpp8metadata21Il2CppGenericInstHashENS4_24Il2CppGenericInstCompareENSt3__29allocatorI10KeyWrapperIS2_EEEEC2EjRKS5_RKS6_
eDb:__Z18Transfer_BlittableI14SafeBinaryReadLb1EaEvRK29SerializationCommandArgumentsR31RuntimeSerializationCommandInfo
mBk:__ZN6il2cpp2gc16GarbageCollector14RemoveWeakLinkEPPv
Cxa:__ZN9ShaderLab20SerializedSubProgram14AddVectorParamEPKcii15ShaderParamTypei
KZi:_List_1_GetEnumerator_m563931292_gshared
dnm:_CarAIControl_SetTarget_m862053676
Rlg:_Enumerator__ctor_m3362421874
aml:__Z117RuntimeInvoker_CSSSize_t3377836552_IntPtr_t_Single_t1397266774_Int32_t2950945753_Single_t1397266774_Int32_t2950945753PFvvEPK10MethodInfoPvPS4_
rFm:_emscripten_glIsFramebuffer__wrapper
myk:__ZN6il2cpp2vm6Object3BoxEP11Il2CppClassPv
Vpk:__ZN6il2cpp2vm6Thread7SetNameEP12Il2CppThreadP12Il2CppString
WUb:__ZN13ScreenManager18SetAllowCursorLockEb
I0:__ZN11UnityEngine15CloudWebService10RestClientINS0_23WebRequestRestHeaderMapEE16SetRequestHeaderERKN4core12basic_stringIcNS4_20StringStorageDefaultIcEEEESA_
Xtb:__ZN30RuntimeInitializeOnLoadManager15ClassMethodInfo8TransferI14SafeBinaryReadEEvRT_
rlh:_ConstructionCall_InitDictionary_m2824447813
gUc:__ZN23ParticleSystemParticles14element_assignEjj
uY:__ZL22InitializeModule_Audiov
q9d:__ZN5physx2Sq11PruningPoolD0Ev
WAb:__ZN16MemoryFileSystem8IsLockedERK13FileEntryData
ihe:__ZN3MBP15removeBoxPrunerEj
Frk:__ZN6il2cpp6icalls8mscorlib6System2IO6MonoIO5WriteEiP11Il2CppArrayiiPi
q4c:__ZN14ParticleSystem23OnGeometryJobsScheduledEj
dVk:_Mathf_InverseLerp_m4155825980
Ubl:__Z92RuntimeInvoker_RuntimeObject_RuntimeObject_RuntimeObject_SByte_t1669577662_SByte_t1669577662PFvvEPK10MethodInfoPvPS4_
Hl:_emscripten_glBindRenderbuffer
tXi:_List_1_System_Collections_IList_Insert_m1011775503_gshared
yHk:_GC_dirty_init
Jvk:__ZN6il2cpp2vm5Image33GetCachedMemoryMappedResourceFileEP24Il2CppReflectionAssembly
_xk:__ZN6il2cpp2vm5Field14GetValueObjectEP9FieldInfoP12Il2CppObject
laf:__ZNK2UI6Canvas16GetTargetDisplayEv
ced:__ZL15SweepBoxCapsulePKN5physx3Cct9SweepTestEPKNS0_11SweptVolumeEPKNS0_11TouchedGeomERKNS_14PxExtendedVec3ERKNS_6PxVec3ERNS0_12SweptContactE
Wma:__ZN6Object17FindObjectsOfTypeEPKN5Unity4TypeER13dynamic_arrayIPS_Lj4EEb
gSb:__ZN13MonoBehaviour17RemoveFromManagerEv
V3k:_Vector3_get_Item_m668685504_AdjustorThunk
Ose:__ZN5physx2Sc19ParticlePacketShapeD2Ev
x0f:_MonoEventInfo_GetEventInfo_m873645389
gib:__ZL11DecodeValuePPKcS0_
TMj:_GUIUtility_get_pixelsPerPoint_m2369948084
Yei:_WindowsIdentity_System_Runtime_Serialization_IDeserializationCallback_OnDeserialization_m3428853631
T3:__ZN13MemoryManagerC2Ev
SPa:__ZN12SkinMeshInfo10DeallocateEPS_
zBh:_ScrollRect_SetDirty_m214267968
EZa:__ZN20ArchiveStorageReader28AcquireAndPrefillUnusedBlockEjPNS_11CacheResultE
mcg:_Boolean_System_IConvertible_ToDateTime_m603510836
Ekc:__Z12NHxRoughnessIA4_tEvP9Texture2DPT_iiii
jJh:_ASN1_get_Value_m1857007406
ona:__ZN18AsyncUploadManagerD2Ev
yyb:__ZN9Transform5ResetEv
P1h:_Decimal_op_Explicit_m1842265407
QJb:__Z22TransferField_NonArrayI24GenerateTypeTreeTransfer16Converter_StringEvRK23StaticTransferFieldInfoR31RuntimeSerializationCommandInfoRT0_
eZj:_CanvasRenderer_SetAlphaTexture_m2009567627
RWe:_UNITY_FT_CMap_New
JYg:_InternalEnumerator_1_get_Current_m4241643334_AdjustorThunk
PUb:__Z17MainLoopKeepalivePv
zwd:__ZN5physx7NpScene16addActorInternalERNS_7PxActorE
Z2g:_InternalEnumerator_1_get_Current_m1588647567_AdjustorThunk
WSf:_Assembly_UnprotectedGetName_m600830855
RHl:__ZL51GCHandle_t3351438187_CustomAttributesCacheGeneratorP21CustomAttributesCache
V7b:__Z14CalcHullBoundsPK8Vector3fPKhhRK5PlaneRK10Matrix4x4fR10MinMaxAABB
Bsh:_InputField_get_caretBlinkRate_m3620074524
uW:__ZNK14SoundHandleAPI12GetFrequencyEv
N0b:__Z19SetupLODFadeKeywordR17ShaderPassContexti
Uai:_RSAPKCS1SignatureFormatter_CreateSignature_m3191980616
tbb:__ZN10builtintex16GetDefaultTexEnvE16TextureDimensionb
uPa:__ZL25CheckCopyTextureArgumentsRK7ApiGLESP11GLESTextureS3_
c4c:__ZN24UVModulePropertyBindings13AddPropertiesER10vector_mapIi22ParticleModulePropertyNSt3__24lessIiEENS2_9allocatorINS2_4pairIiS1_EEEEE
dEm:_glDeleteShader__wrapper
nJb:__Z29Transfer_Blittable_ArrayFieldI24GenerateTypeTreeTransferyEvRT_R9ArrayInfoRK23StaticTransferFieldInfo
kpf:__ZN5physx3Pvd17PvdPropertyFilterINS_2Sn17RepXVisitorReaderINS_17PxVehicleTireDataEEEE27extendedDualIndexedPropertyILj605ES4_jjfEEvjRKNS_33PxExtendedDualIndexedPropertyInfoIXT_ET0_T1_T2_T3_EEjj
fS:__ZN4FMOD7SystemI9playSoundE17FMOD_CHANNELINDEXPNS_5SoundEbPPNS_7ChannelE
KZ:__Z42Register_UnityEngine_AudioSource_set_pitchv
ytg:_Int64_GetHashCode_m703091690
XJe:__ZN13PhysicsModule31GetColliderComponentsInChildrenERK10GameObjectbbR13dynamic_arrayIPN5Unity9ComponentELj4EE
cqb:__ZN19StreamedBinaryWriteILb0EE21TransferSTLStyleArrayINSt3__26vectorI17SubstanceEnumItemNS2_9allocatorIS4_EEEEEEvRT_17TransferMetaFlags
RLj:_Event_get_commandName_m4275147343
BF:__ZN27AnimationLayerMixerPlayable17LayerMixerProcessEP35AnimationPlayableEvaluationConstantP32AnimationPlayableEvaluationInputP33AnimationPlayableEvaluationOutputM17AnimationPlayableFvS1_S3_S5_EMS_FvS1_S3_S5_ESA_MS_FvS5_S1_S3_S5_ifE
W1h:_Decimal_op_Implicit_m4256234411
v8k:__Z60RuntimeInvoker_RuntimeObject_RuntimeObject_Int16_t2552820387PFvvEPK10MethodInfoPvPS4_
Zyg:_StreamReader__ctor_m3941437302
e3c:__ZN27ColorModulePropertyBindings13GetFloatValueERK14ParticleSystemi
wEc:__Z57Register_UnityEngine_Transform_INTERNAL_get_localRotationv
awm:dynCall_viif
Qzg:_StringReader_ReadLine_m2337102945
Hre:__ZN5physx2Sc24ConstraintProjectionTree11projectPoseERNS0_19ConstraintGroupNodeE
d5c:__ZL32TransformParticleMeshAnimatedUVsILb1EEvRK16ParticleMeshDataiRK22ParticleSystemTempDataRK31ParticleSystemParticlesTempData11ColorRGBA32RK26ParticleSystemRendererDataRK21ParticleSystemModulesRK10Matrix4x4fRK10Matrix3x3fRK8Vector3fRK23ParticleSystemParticlesjPPhPPf
mH:__ZN17AnimationPlayable26DisconnectNoTopologyChangeEPS_i
Vcg:_Boolean_Equals_m2410333903_AdjustorThunk
YLb:__Z35Transfer_Blittable_FixedBufferFieldI18StreamedBinaryReadILb1EEiEvRK29SerializationCommandArgumentsR31RuntimeSerializationCommandInfo
vck:_WheelCollider_get_radius_m3792867012
wBd:__ZN5physx2Sc21ArticulationJointCore28setSwingLimitContactDistanceEf
Iwm:dynCall_viifffi
D1:__ZN13UploadHandlerD2Ev
fum:dynCall_viiiiiffi
P8c:__Z46ParticleSystem_MainModule_CUSTOM_GetStartColorP12Il2CppObjectR18MonoMinMaxGradient
ed:_emscripten_glBlendFuncSeparate
uaj:_Collection_1_Add_m809543251_gshared
f8:__Z20scripting_string_newPKc
MCc:__Z43Material_CUSTOM_Internal_CreateWithMaterialP12Il2CppObjectS0_
ZJj:_Parser_IsSingleline_m326238187
Qig:_CollectionBase_get_Count_m1708965601
hIg:_HMAC__ctor_m97939284
Quk:__ZNK24NamespaceAndNamePairHashclERKNSt3__24pairIPKcS3_EE
FWi:_ValueType_DefaultEquals_m2927252100
UKc:__ZN9JSONWrite12AppendToNodeEPN5Unity9rapidjson12GenericValueINS1_4UTF8IcEE13JSONAllocatorEEPKcRS6_
qJh:_ASN1_ToString_m1340204511
mTh:_X509Store_get_Certificates_m2149701265
$oj:_ReadOnlyCollection_1_System_Collections_Generic_IListU3CTU3E_set_Item_m711370667_gshared
p9l:__ZL144StandaloneInputModule_t2760469101_CustomAttributesCacheGenerator_StandaloneInputModule_t2760469101____allowActivationOnMobileDevice_PropertyInfoP21CustomAttributesCache
Ive:__ZThn8_N5physx2Gu11HeightFieldD1Ev
vMi:_StringBuilder_set_Chars_m3548656617
Pck:__ZN6il2cpp2os4File17GetFileAttributesERKNSt3__212basic_stringIcNS2_11char_traitsIcEENS2_9allocatorIcEEEEPi
EAd:__ZNK5physx19PxArticulationJoint19getConcreteTypeNameEv
sK:__ZNSt3__26__sortIRPFbPKN8Animator11AnimatorJobES4_EPS4_EEvT0_S9_T_
LP:__ZN17AudioCustomFilterD2Ev
rFk:_GC_unpromote_black_lists
LNa:__ZN18GfxFramebufferGLES18ReleaseFramebufferEP17RenderSurfaceBaseP14GfxContextGLES
fOc:__Z18Transfer_BlittableI8JSONReadLb1EiEvRK29SerializationCommandArgumentsR31RuntimeSerializationCommandInfo
RWf:_EnumBuilder_GetEvent_m4074915332
S2:__ZN19CloudServiceHandler34HandleSaveFileWebRequestPlayerLoopEv
_G:__ZN7mecanim21ValueArrayReverseCopyEPKNS_18ValueArrayConstantEPKNS_10ValueArrayES2_PS3_PKi
tP:__Z31GetParentSampleClipFromInstancePN11SoundHandle8InstanceE
bjc:__ZNK28RectTransformPropertyBinding13GetFloatValueERKN11UnityEngine9Animation10BoundCurveE
gac:__ZN6Camera22StandaloneCustomRenderENS_10RenderFlagEP6ShaderRKN4core12basic_stringIcNS3_20StringStorageDefaultIcEEEEPNS_21PerformRenderFunctionE
Ppi:_Array_InternalArray__IndexOf_TisKeyValuePair_2_t2401056908_m4118889689_gshared
ntb:__ZNSt3__26vectorI4PPtrI6ObjectE13stl_allocatorIS3_L18MemLabelIdentifier52ELi16EEE6assignINS_11__wrap_iterIPS3_EEEENS_9enable_ifIXaasr21__is_forward_iteratorIT_EE5valuesr16is_constructibleIS3_NS_15iterator_traitsISD_E9referenceEEE5valueEvE4typeESD_SD_
lZd:__ZL22addOrRemoveRigidObjectILb0ELb0ELb0ELb1EN5physx3Scb11RigidStaticEEvRNS0_2Sc5SceneERT3_b
mMk:__ZN6il2cpp2os16ThreadLocalValue8GetValueEPPv
pSh:_X509Certificate2_get_PublicKey_m370665820
clh:_AsyncResult_AsyncProcessMessage_m2076471000
zY:__ZN13AudioListener17ReadExtensionNameEi
Yc:invoke_iiidii
Urd:__ZNK5physx2Gu19SupportMapLocalImplINS0_11ConvexHullVEE18doWarmStartSupportEiRNS_6shdfnd3aos5Vec3VE
Utd:__ZN5physx6shdfnd4sortIPvNS0_4LessIS2_EENS0_19ReflectionAllocatorINS_2Cm5BlockIS2_Lj8EEEEEEEvPT_jRKT0_RKT1_j
dKd:__ZNK5physx9NpPhysics11getNbShapesEv
rq:setThrew
vkc:__ZL21BuildEmptyCubeTexturePKci11ColorRGBA3217TextureColorSpace
gsa:__ZN14SafeBinaryRead21TransferSTLStyleArrayINSt3__26vectorIN9ShaderLab20SerializedSubProgramENS1_9allocatorIS4_EEEEEEvRT_17TransferMetaFlags
mqi:_Array_InternalArray__IndexOf_TisX509ChainStatus_t133602714_m48896230_gshared
hYa:__ZN19dynamic_block_arrayI13FileEntryInfoLj32EE4growEj
oOc:__Z15Transfer_StringI8JSONReadLb1EEvRK29SerializationCommandArgumentsR31RuntimeSerializationCommandInfo
uKa:__ZN6prcoreL17RemapGenericFloatI17TexFormatRGBFloat15TexFormatRGHalfEEvPKNS_9InnerInfoE
Dhi:_String_IndexOf_m3406607758
jZe:_sfnt_load_face
F4e:_UNITY_FT_Render_Glyph_Internal
xsk:__ZNSt3__212basic_stringIDsNS_11char_traitsIDsEENS_9allocatorIDsEEE21__grow_by_and_replaceEjjjjjjPKDs
jXe:_UNITY_ft_service_list_lookup
JHc:__ZN5IMGUI21SelectReceivingWindowER8GUIStateb
xIg:_HMAC_Initialize_m3157696427
Wcd:__ZN5physx2Gu20intersectTriangleBoxERKNS_6PxVec3ES3_S3_S3_S3_
aAg:_SynchronizedWriter_Write_m2529550287
_Id:__ZN5physx10NpMaterial8setFlagsENS_7PxFlagsINS_14PxMaterialFlag4EnumEtEE
s3:__ZN13BaseAllocator13TryDeallocateEPv
iRh:_X509SubjectKeyIdentifierExtension__ctor_m2055934916
j2a:__ZNSt3__26vectorIN12FlareManager10FlareEntryENS_9allocatorIS2_EEE21__push_back_slow_pathIKS2_EEvRT_
npm:_sprintf
fxc:__ZN9Scripting25CreateNullExceptionObjectE18ScriptingObjectPtr
tLh:_PrivateKeyInfo_DecodeRSA_m2889346634
nQ:__ZN13AudioListener17RemoveFromManagerEv
$d:_glAttachShader
lLf:_ContentSizeFitter_SetLayoutHorizontal_m2833273874
$Ee:__ZN5physx6shdfnd8internal8HashBaseINS0_4PairIKtPKcEEtNS0_4HashItEENS1_11HashMapBaseItS6_S9_NS_7profile26WrapperReflectionAllocatorIS6_EEE6GetKeyESD_Lb1EE6createERS4_Rb
L5:__ZNK6Camera19GetProjectionMatrixEv
x2d:__ZNK5physx7NpScene24getWakeCounterResetValueEv
i6c:__Z19UpdateSingleRow2TplIL27ParticleSystemCurveEvalMode2ELS0_4EEvfRK11MinMaxCurveS3_RK23ParticleSystemParticlesPfbiii
bth:_InputField_SetToCustomIfContentTypeIsNot_m2813459946
aqe:__ZNK5physx16PxsSolverEndTask7getNameEv
n9h:_Guid_GetHashCode_m3042133858_AdjustorThunk
Pje:__ZN5physx2Gu32PCMConvexVsMeshContactGeneration20generateLastContactsEv
G7:__Z38PreallocateObjectFromPersistentManagerib
iJd:__ZThn12_N5physx10NpMaterialD0Ev
hWh:_Interpreter_Backtrack_m2828876822
_eb:__ZNK9Texture2D20GetUnscaledTextureIDEv
KFg:_SByte_System_IConvertible_ToType_m4075253447
uMh:_StrongName_get_PublicKey_m1841537984
rze:__ZN5physx6shdfnd4sortIjNS_19SortBoundsPredicateENS0_19ReflectionAllocatorIjEEEEvPT_jRKT0_RKT1_j
iCm:_glFenceSync__wrapper
ILd:__ZN5physx7NpShape14onRefCountZeroEv
H2k:_Transform_INTERNAL_get_worldToLocalMatrix_m2730237241
xUc:__ZNK14ParticleSystem7GetLoopEv
jbg:_AssemblyLoadEventHandler_Invoke_m1462077361
Qye:__ZL15TestContainmentRKN5physx6PxVec3EPKfjPKNS_2Gu15HullPolygonDataE
dfb:__ZNK9Texture2D26CanReuploadDataToGfxDeviceEv
sMl:__ZL63CodeAccessPermission_t2681295399_CustomAttributesCacheGeneratorP21CustomAttributesCache
jvb:__Z29ClearRepeatingLogMessageStatev
k1g:_InternalEnumerator_1_get_Current_m3191242573_gshared
Xdg:_Byte_Equals_m1161982810_AdjustorThunk
Rve:__ZN5physx2Gu11HeightField12loadFromDescERKNS_17PxHeightFieldDescEb
Kma:__ZN21EnlightenSceneMappingaSERKS_
PTa:__ZN7ApiGLESD2Ev
q$a:__ZN9Transform47ClearTransformHierarchyAndApplyToSerializedDataEv
D$d:__ZN5physx6shdfnd8PoolBaseINS_2Gu30LargePersistentContactManifoldENS0_19ReflectionAllocatorIS3_EEE12allocateSlabEv
DPc:__ZN8JSONRead21TransferSTLStyleArrayINSt3__26vectorI8MonoPPtr13stl_allocatorIS3_L18MemLabelIdentifier1ELi16EEEEEEvRT_17TransferMetaFlags
A0a:__ZN6Camera23VirtualRedirectTransferER19StreamedBinaryWriteILb0EE
ywm:dynCall_fidi
Kfk:__ZN15dense_hashtableINSt3__24pairIK10KeyWrapperINS1_IPK9FieldInfoP11Il2CppClassEEEjEES9_17ReflectionMapHashIS8_EN14dense_hash_mapIS9_jSD_NS9_14EqualsComparerINS0_8equal_toIS8_EEEENS0_9allocatorISB_EEE9SelectKeyESI_SK_E12resize_deltaEjj
Tne:__ZN5physx20getVertexEdgeIndicesERKNS_2Gu11HeightFieldEjjjPNS_8EdgeDataE
J4d:__ZN5physx6shdfnd5ArrayIPNS_2Sc8BodyCoreENS0_19ReflectionAllocatorIS4_EEE6resizeEjRKS4_
sld:__ZN5physx3Cct26CharacterControllerManager16createControllerERNS_9PxPhysicsEPNS_7PxSceneERKNS_16PxControllerDescE
aNj:_GUILayoutEntry__ctor_m2229197035
Qda:__ZN15dense_hashtableINSt3__24pairIKN9ShaderLab7Program23ShaderKeywordSetAndHashEPKNS2_10SubProgramEEES4_NS3_24ShaderKeywordHashFunctorEN14dense_hash_mapIS4_S8_SA_NS0_8equal_toIS4_EE13stl_allocatorIS9_L18MemLabelIdentifier67ELi16EEE9SelectKeyESD_SG_E15insert_noresizeERKS9_
Opb:__ZN14SubstanceInput8TransferI24GenerateTypeTreeTransferEEvRT_
dxc:__ZNK13MonoBehaviour13GetScriptTypeEv
JUg:_SslClientStream_set_ClientCertSelectionDelegate_m1261530976
Se:_SDL_FreeRW
Q7d:__ZN5physx6shdfnd8PoolBaseINS_2Cm5BlockIhLj128EEENS0_19ReflectionAllocatorIS4_EEE15disposeElementsEv
Bbf:__Z34CanvasRenderer_Get_Custom_PropCullP12Il2CppObject
UTd:__ZN5physx3Scb14ParticleSystem14setRestOffsetsEjRKNS_16PxStrideIteratorIKjEERKNS2_IKfEE
SCe:__ZN12MeshCollider11CreateShapeEPvPK9RigidbodyRK8Vector3f
$V:__ZN20SoundChannelInstance8getDelayE14FMOD_DELAYTYPEPjS1_
fea:__ZNSt3__26vectorIN20GpuProgramParameters15StructParameterENS_9allocatorIS2_EEEC2ERKS5_
OWg:_ArrayReadOnlyList_1_Contains_m232667507_gshared
kel:__Z77RuntimeInvoker_Boolean_t97287965_IntPtr_t_Int32_t2950945753_SByte_t1669577662PFvvEPK10MethodInfoPvPS4_
LXk:_PlayableHandle_GetPlayableType_m432385838_AdjustorThunk
u3e:__ZNSt3__26vectorIN20TextRenderingPrivate8FontImpl13CharacterInfoE13stl_allocatorIS3_L18MemLabelIdentifier1ELi16EEE8__appendEj
Jyg:_Stream_Dispose_m2589290611
v:tempBigInt
gui:_Array_InternalArray__Insert_TisKeyframe_t4206410242_m1558638568_gshared
_e:_emscripten_glVertexAttrib1fv
Psa:__ZNSt3__26vectorIN9ShaderLab20SerializedSubProgram12UAVParameterENS_9allocatorIS3_EEE7reserveEj
fKg:_BigInteger__ctor_m2644482640
Ysm:__ZSt11__terminatePFvvE
x3d:__ZN5physx13NpVolumeCacheC2EPNS_2Sq17SceneQueryManagerEjj
Qud:__ZThn24_N5physx2Sc20ArticulationJointSimD1Ev
Hom:_ResetTrigger__ctor_m4075058335
FS:__ZN12AudioManager14systemCallbackEP11FMOD_SYSTEM24FMOD_SYSTEM_CALLBACKTYPEPvS3_
aqj:_ReadOnlyCollection_1_System_Collections_Generic_ICollectionU3CTU3E_Clear_m3451551308_gshared
YIf:_BaseMeshEffect_OnEnable_m3291426649
VTd:__ZN5physx2Sc18ParticleSystemCore14setRestOffsetsEjRKNS_16PxStrideIteratorIKjEERKNS2_IKfEE
ldd:__ZN5physx2Gu16testPolyDataAxisERKNS0_8CapsuleVERKNS0_13PolygonalDataEPNS0_12SupportLocalERKNS_6shdfnd3aos6FloatVERSB_RNSA_5Vec3VE
G8a:__ZN16ReflectionProbes16UpdateSampleDataEv
mWc:__Z9UpdateTplIL27ParticleSystemCurveEvalMode1EEvRK11MinMaxCurveR23ParticleSystemParticlesjjPKN4math8floatNx3E
Hxd:__ZN5physx2Sc17ParticleSystemSimD0Ev
Jhm:__ZL50CarAudio_t499525394_CustomAttributesCacheGeneratorP21CustomAttributesCache
D7h:_CultureInfo_GetCultureInfo_m56098747
fpb:__ZN18ProceduralMaterial23VirtualRedirectTransferER17RemapPPtrTransfer
j7b:__Z20AddActiveLocalLightsR11CullResultsR27LocalLightCullingParametersPPK15SharedLightDataPK8Vector4fRK9IndexListPfRSA_R12ActiveLightsSG_P5RectTIfEP13TargetEyeMask
KDl:__ZL80Hashtable_t1853889766_CustomAttributesCacheGenerator_Hashtable__ctor_m1763145853P21CustomAttributesCache
eng:_Convert_ToDecimal_m1284148187
kcj:_Collection_1__ctor_m3489157029_gshared
Gzm:_emscripten_glRenderbufferStorage__wrapper
Wdk:__ZNK6il2cpp2vm14TypeNameParser10NextWillBeEcb
FUe:_cf2_getNormalizedVector
wf:_JS_Sound_Play
Zqj:_ReadOnlyCollection_1_System_Collections_IList_set_Item_m1538987737_gshared
m7g:_DefaultComparer_Compare_m1920986590_gshared
BTg:_RecordProtocol_ProcessChangeCipherSpec_m15839975
ura:__ZN9ShaderLab16SerializedShader8TransferI14SafeBinaryReadEEvRT_
lQf:_GridLayoutGroup_set_constraint_m3308895167
Nlh:_ConstructionCallDictionary_SetMethodProperty_m3145285304
qsg:_Int32_System_IConvertible_ToUInt32_m3557270157
yil:__Z243RuntimeInvoker_Void_t1185182177_Int16_t2552820387_RuntimeObject_Int32_t2950945753_Int32_t2950945753_Int32_t2950945753_SByte_t1669577662_SByte_t1669577662_SByte_t1669577662_SByte_t1669577662_Int16_t2552820387_SByte_t1669577662_SByte_t1669577662PFvvEPK10MethodInfoPvPS4_
Ctg:_Int64_Parse_m3309897583
MJ:__ZN7mecanim8skeleton13SkeletonAlignEPKNS0_8SkeletonERKN4math7_float4ES7_i
nlc:__ZN19ShaderPropertySheet16SetVectorIndexedEN9ShaderLab16FastPropertyNameEifRK8Vector4fNS_8SetFlagsE
gSi:_Type_get_IsAbstract_m1120089130
O6h:_CompareInfo_IndexOf_m667936183
wLj:_UriFormatException__ctor_m1115096473
Unk:__ZN15dense_hashtableINSt3__24pairIK10KeyWrapperINS1_IP11Il2CppClassjEEES4_EES6_N6il2cpp8metadata14ArrayClassHashEN14dense_hash_mapIS6_S4_SB_NS6_14EqualsComparerINSA_17ArrayClassCompareEEENS0_9allocatorIS8_EEE9SelectKeyESF_SH_E9copy_fromERKSK_j
MOj:_GUIUtility_IsExitGUIException_m3644066650
z2:__ZN11UnityEngine15CloudWebService14DataDispatcher4StopEv
xnl:__Z59RuntimeInvoker_MinMaxGradient_t3677460847_Color_t2555686324PFvvEPK10MethodInfoPvPS4_
fqg:_Int16_System_IConvertible_ToUInt64_m134975563
Rsa:__ZNSt3__26vectorIN9ShaderLab20SerializedSubProgram12UAVParameterENS_9allocatorIS3_EEE8__appendEj
BHc:__ZN5IMGUI9GUIWindow5OnGUIER8GUIState
wNe:__ZN9Heightmap8TransferI14SafeBinaryReadEEvRT_
bgi:_Single_System_IConvertible_ToDecimal_m325860800_AdjustorThunk
Psi:_Array_InternalArray__ICollection_CopyTo_TisSingle_t1397266774_m455540885_gshared
dXa:__ZN17ScriptingGCHandle7AcquireE18ScriptingObjectPtr25ScriptingGCHandleWeakness
ygl:__Z74RuntimeInvoker_RuntimeObject_RuntimeObject_Int64_t3736567304_RuntimeObjectPFvvEPK10MethodInfoPvPS4_
v9e:__ZN2UI14CanvasRenderer14AttachToCanvasER8JobFencePNS_6CanvasENS0_15InstructionTypeE
PDd:__ZN5physx12NpConstraint8comShiftEPNS_12PxRigidActorE
evm:dynCall_iifiii
uIa:__Z21HasAlphaTextureFormat13TextureFormat
OX:__ZN12AudioManager6UpdateEv
nIa:__ZN14ImageReference9BlitImageERKS_NS_8BlitModeE
nB:__ZN8Animator12AddToManagerEv
Zsc:__Z26ApplyBlendShapesToVerticesR12SkinMeshInfoRKN4math5_int4EPNS1_8floatNx3ES6_
lcd:__ZNK5physx2Gu16SupportLocalImplINS0_11ConvexHullVEE9doSupportERKNS_6shdfnd3aos5Vec3VERNS5_6FloatVESA_
aTb:__ZN23CachedSerializationDataD2Ev
g9b:__ZNK25CameraStackRenderingState31CalculateStereoCameraTargetTypeEv
g8a:__ZN14RenderSettings23VirtualRedirectTransferER14SafeBinaryRead
bTe:__Z22RegisterModule_Terrainv
jsf:__ZN5physx3Pvd17PvdPropertyFilterINS_2Sn17RepXVisitorWriterINS_22PxVehicleWheelsDynDataEEEE27handleExtendedIndexPropertyILj632ES4_fKjNS_18PxUnknownClassInfoEEEvjRKNS_29PxExtendedIndexedPropertyInfoIXT_ET0_T2_T1_EERKT3_
nAk:__ZN6il2cpp2os10ThreadImpl15CurrentThreadIdEv
sui:_Array_InternalArray__Insert_TisVector2_t2156229523_m2148694950_gshared
tci:_SymmetricAlgorithm_get_Key_m3241860519
vvh:_U3CMouseDragOutsideRectU3Ec__Iterator1_Reset_m2233410497
Nsh:_InputField_set_customCaretColor_m720445789
d1e:_UNITY_tt_face_load_fpgm
k$a:__Z17IsObjectAvailablei
rqb:__ZN12InputManagerD0Ev
t5i:_Queue_1_Peek_m1713833142_gshared
CKk:__ZN6il2cpp6icalls8mscorlib6System11Diagnostics10StackTrace9get_traceEP15Il2CppExceptionib
TOi:_ExecutionContext_Capture_m681135907
lEd:__ZN5physx2Sc9RigidCore20removeShapeFromSceneERNS0_9ShapeCoreEb
ZYg:_InternalEnumerator_1_System_Collections_IEnumerator_get_Current_m2889979481_AdjustorThunk
Srm:_posix_memalign
mze:__ZN5physx11RTreeCooker18buildFromTrianglesERNS_2Gu5RTreeEPKNS_6PxVec3EjPKtPKjjRNS_6shdfnd5ArrayIjNSB_19ReflectionAllocatorIjEEEEPNS0_13RemapCallbackEfNS_17PxMeshCookingHint4EnumE
wyd:__ZN5physx6shdfnd5ArrayIPvNS0_15InlineAllocatorILj256ENS0_19ReflectionAllocatorINS_14NpArticulationEEEEEE15growAndPushBackERKS2_
APj:_AesManaged_GenerateKey_m2004209814
nJh:_ASN1_GetBytes_m3305539297
K7:__ZNK15MonoScriptCache7ReleaseEv
A1j:__ZN6il2cpp2vm5Class13HasReferencesEP11Il2CppClass
tle:__ZN5physx9PxTaskMgrC2EPNS_15PxCpuDispatcherEPNS_15PxGpuDispatcherEPNS_15PxSpuDispatcherE
Kg:_glBindTexture
fqm:_snprintf
WAm:_emscripten_glVertexAttrib1fv__wrapper
Jwb:__Z36scripting_liveness_calculation_begin17ScriptingClassPtriPFvPP12Il2CppObjectiPvES3_PFvvES7_
cu:__ZN7mecanim12statemachine13StateConstant8TransferI24GenerateTypeTreeTransferEEvRT_
uzm:_emscripten_glGetProgramInfoLog__wrapper
nM:__ZN25AnimatedPropertyEvaluator29BindCurveToScriptingObjectPtrERKN13AnimationClip10FloatCurveEj18ScriptingObjectPtrb
rMl:__ZL80AllowPartiallyTrustedCallersAttribute_t1828959166_CustomAttributesCacheGeneratorP21CustomAttributesCache
H9:__ZN17PersistentManager23DestroyFromFileInternalEi
VQk:_Display__ctor_m501911701
Lmj:_ReadOnlyCollection_1_System_Collections_Generic_IListU3CTU3E_Insert_m1020890112_gshared
jMf:_DefaultControls_SetDefaultTextValues_m1943359795
r2b:__Z19SetupMotionMatricesR6CameraR18RPDataMotionVector
S_j:__ZL7log2_64y
BOh:_TypeConverterAttribute_Equals_m1580461255
gL:__ZN26AnimatorControllerPlayable18PrepareForPlaybackERN7mecanim6memory9AllocatorE
GF:__ZN7mecanim5human25HumanPoseAddOverrideLayerERNS0_9HumanPoseERKS1_fRKNS_6bitsetILj83EEE
gQf:_GridLayoutGroup_get_cellSize_m2967185053
Bbe:__ZN5physx19PxsMaterialCombiner24combineIsotropicFrictionERKNS_15PxsMaterialDataES3_
HCj:_PKCS12_Decrypt_m1280162536
gZg:_InternalEnumerator_1_get_Current_m3081223448_gshared
$Lj:_Event_get_isMouse_m1058251071
e5a:__ZN10VertexDataC2ERKS_17ShaderChannelMask10MemLabelId
MXe:_otv_JSTF_validate
iea:__ZN22CreateGpuProgramOutputC2Ev
eSk:_PersistentCallGroup_Initialize_m4253175514
lcg:_Boolean_System_IConvertible_ToChar_m4279513009_AdjustorThunk
sNh:_DictionaryNodeEnumerator__ctor_m1005316675
urg:_NumberFormatter_ScaleOrder_m3813786990
Ejf:__ZN5physx15PxVehicleWheels15exportExtraDataERNS_22PxSerializationContextE
uLh:_PrivateKeyInfo_DecodeDSA_m771724585
uxe:__ZN5physx7Cooking16cookTriangleMeshERKNS_18PxTriangleMeshDescERNS_14PxOutputStreamE
bhk:__ZNK15dense_hashtableINSt3__24pairIK10KeyWrapperINS1_IPK10MethodInfoP11Il2CppClassEEEjEES9_17ReflectionMapHashIS8_EN14dense_hash_mapIS9_jSD_NS9_14EqualsComparerINS0_8equal_toIS8_EEEENS0_9allocatorISB_EEE9SelectKeyESI_SK_E23find_position_with_hashERSA_j
RIe:__ZN14CompletionTask4InitEPN5physx7PxSceneE
Ivd:__ZN5physx2Sc7ElementD0Ev
OUi:_UInt32_System_IConvertible_ToSByte_m1061556466
Tze:__ZN5physx6shdfnd10Foundation7releaseEv
Iih:_WellKnownClientTypeEntry__ctor_m2471908952
z1j:__ZN6il2cpp2vm5Class4InitEP11Il2CppClass
_c:invoke_vidi
rEg:_NumberFormatter_FormatRoundtrip_m19342689
hph:_RemotingServices_CreateClientProxyForContextBound_m783705199
ltc:__ZNK15GUIEventManager15GetEventAtIndexEi
M9e:__ZN2UI14CanvasRenderer17SyncDirtyElementsER8JobFence
Fid:__ZN5physx6shdfnd5ArrayINS_10PxTriangleENS0_19ReflectionAllocatorIS2_EEE19resizeUninitializedEj
U9g:_Enumerator_System_Collections_IEnumerator_get_Current_m3816090481_gshared
qDk:__ZN6il2cpp5utils11StringUtils15StringDuplicateEPKc
$yi:_DefaultComparer_Equals_m2480133610_gshared
zda:__ZNK9ShaderLab21ShaderRasterStateDesc16ToGfxRasterStateEPK19ShaderPropertySheetS3_R14GfxRasterState
jhj:_Array_Sort_TisVector3_t3722313464_m1915176437_gshared
tMk:__ZN6il2cpp2os9EventImplC2Ebb
CXc:__Z12RangedRandomR5RandNRKiS2_
Y_i:_List_1_get_Item_m2113769949_gshared
lyh:_MaskableGraphic_OnTransformParentChanged_m329502413
iy:__ZNSt3__26vectorIN13AnimationClip9PPtrCurveE13stl_allocatorIS2_L18MemLabelIdentifier26ELi16EEE6resizeEj
yea:__Z20IsMatrixBuiltinParamPKcPi
Mdi:_String_memcpy4_m979367827
XMi:_UnicodeEncoding_GetBytesInternal_m1902824297
Wkc:__ZN8Renderer19PostInitializeClassEv
kpi:_Array_FindIndex_TisRuntimeObject_m2504082708_gshared
yEj:_X509Chain_FindCertificateRoot_m1937726457
KIk:__ZN6il2cpp6icalls8mscorlib6System8Delegate23CreateDelegate_internalEP20Il2CppReflectionTypeP12Il2CppObjectP22Il2CppReflectionMethodb
Vah:_Enumerator_System_Collections_IEnumerator_get_Current_m921113401_AdjustorThunk
uSb:__ZN18DelayedCallManager18CancelCallDelayed2E4PPtrI6ObjectEPF15CallObjectStatePS1_PvES7_
gVk:_Matrix4x4_GetHashCode_m4034747639
SUa:__ZN25ThreadsafeLinearAllocator10ReallocateEPvji
vCb:__Z18Transfer_BlittableI14SafeBinaryReadLb1E11QuaternionfEvRK29SerializationCommandArgumentsR31RuntimeSerializationCommandInfo
SBd:__ZNK5physx18PxArticulationLink8isKindOfEPKc
pqa:__ZN18SpriteAtlasManagerD0Ev
wQe:__ZN14DetailDatabase12GenerateMeshER4Meshii8Vector3f16DetailRenderModefii
E2d:__ZN5physx13NpVolumeCache13onOriginShiftERKNS_6PxVec3E
jIk:_GC_disable
ymb:__ZN10Matrix4x4f8TransferI14SafeBinaryReadEEvRT_
pn:FUNCTION_TABLE_vifiiiiiiiiiiiiiiiiii
JGg:_CryptographicUnexpectedOperationException__ctor_m2381988196
skk:__ZN14dense_hash_mapI10KeyWrapperIPK22Il2CppGenericParameterEPK24MonoGenericParameterInfoN6il2cpp5utils11PointerHashIS2_EENS4_14EqualsComparerINSt3__28equal_toIS3_EEEENSD_9allocatorINSD_4pairIKS4_S7_EEEEE15set_deleted_keyERSJ_
aL:__ZN14AvatarPlayback8StopTimeEv
L$g:_InternalEnumerator_1_System_Collections_IEnumerator_get_Current_m4213507601_gshared
Uka:__Z6AppendRKN4core12basic_stringIcNS_20StringStorageDefaultIcEEEEPKc
ajm:_VirtualAxis__ctor_m1869943658
hOh:__KeysEnumerator_MoveNext_m4289758929
oEa:__ZN7ApiGLES18ClearBufferSubDataEjN2gl12BufferTargetEll
Hyc:__Z37Camera_Get_Custom_PropAllCamerasCountv
Kkb:__ZN14Texture2DArray8TransferI18StreamedBinaryReadILb0EEEEvRT_
mFd:__ZN5physx15NpActorTemplateINS_18PxArticulationLinkEED2Ev
s6b:__Z18ApplyOcclusionMaskR19ProbeOcclusionCacheRK17LightProbeContextRK10RenderNodeb
G2e:_Split_Cubic
qb:invoke_fiiii
Uuh:_InputField_OnSubmit_m3583210804
Fjm:_CrossPlatformInputManager_UnRegisterVirtualButton_m2844659319
mvm:dynCall_viiiiiiffii
JKj:_Uri_CheckHostName_m2213216182
TAm:_emscripten_glBindRenderbuffer__wrapper
Oij:_Mesh_SetUvsImpl_TisVector2_t2156229523_m3009194955_gshared
uMg:_HMAC_set_Key_m3535779141
Hgg:_ArrayListWrapper_Contains_m2641184447
s2e:_ft_black_render
Fjj:_Array_InternalArray__get_Item_TisResourceInfo_t2872965302_m3865610257_gshared
Ewm:dynCall_viiifi
YMa:__ZN18GfxFramebufferGLES20ActiveContextChangedEPP17RenderSurfaceBaseS2_
PMa:__Z19PluginsRenderMarkeri
iN:__ZN10HumanTrait18InitializeBoneNameEv
Ysa:__ZNSt3__26vectorIN9ShaderLab20SerializedSubProgram15StructParameterENS_9allocatorIS3_EEE6assignINS_11__wrap_iterIPS3_EEEENS_9enable_ifIXaasr21__is_forward_iteratorIT_EE5valuesr16is_constructibleIS3_NS_15iterator_traitsISC_E9referenceEEE5valueEvE4typeESC_SC_
q2g:_InternalEnumerator_1_get_Current_m1698047500_gshared
Ovk:__ZNSt3__214__split_bufferIN6il2cpp2vm5Image20EmbeddedResourceDataERNS_9allocatorIS4_EEEC2EjjS7_
FOd:__ZNK5physx7NpCloth25getNbSelfCollisionIndicesEv
dIh:_Kernel_multiByteDivide_m4249920547
TP:__ZN12AudioManager17RemoveAudioSourceEP11AudioSource
nTh:_X509Certificate2Collection_Add_m3151757943
x8g:_Comparer_1__cctor_m951016718_gshared
Aig:_CaseInsensitiveHashCodeProvider_get_DefaultInvariant_m4264275163
Zdl:__Z195RuntimeInvoker_Int32_t2950945753_RuntimeObject_Int32_t2950945753_Int32_t2950945753_Int32_t2950945753_RuntimeObject_DecoderFallbackBufferU26_t3866396827_ByteU5BU5DU26_t4057885439_SByte_t1669577662PFvvEPK10MethodInfoPvPS4_
V2d:__ZN5physx2Sc5Scene22setNbContactDataBlocksEj
i_:__ZN5physx14PxLightCpuTask12addReferenceEv
O4a:__ZNK15InstancingProps35FillInstanceBufferDispatchConstantsIN10Instancing14RenderLoopArgsEEEvPPvjjRK19ShaderPropertySheetRKT_
psl:__Z86RuntimeInvoker_Int32_t2950945753_Color32_t2600501292_Color32_t2600501292_RuntimeObjectPFvvEPK10MethodInfoPvPS4_
mhb:__ZN21EnlightenSceneMapping8TransferI19StreamedBinaryWriteILb0EEEEvRT_
zxk:__ZN6il2cpp2gc16GarbageCollector19InitializeFinalizerEv
aH:__ZN7mecanim8skeleton18CreateSkeletonMaskEjPKNS0_19SkeletonMaskElementERNS_6memory9AllocatorE
gHc:__ZN10GUIManager10DoGUIEventER10InputEventb
nIb:__Z35Transfer_Blittable_FixedBufferFieldI24GenerateTypeTreeTransferxEvRK29SerializationCommandArgumentsR31RuntimeSerializationCommandInfo
AYe:_otv_LangSys_validate
B_k:_RectOffset_get_right_m2294081512
zej:_Array_InternalArray__set_Item_TisLink_t544317964_m1234244240_gshared
j1e:_UNITY_TT_Init_Glyph_Loading
s1b:__Z20CalculateSqrDistanceRK8Vector3fRK4AABB
hRe:__ZN23LODTreeInstanceRendererC2ER12TreeRendereriR12MeshRendererRK10Matrix4x4fi
HJe:__ZN14PhysicsManager15ProcessContactsEv
Nrh:_SerializationInfo_GetBoolean_m1756153320
Rgd:__ZN21BoxTraceSegmentReport7onEventEjPj
zBd:__ZN5physx2Sc21ArticulationJointCore13setSwingLimitEff
qU:__Z32AudioMixerDuckingProcessCallbackP21UnityAudioEffectStatePfS1_jii
Ccd:__ZL20HullProjectionCB_BoxRKN5physx2Gu13PolygonalDataERKNS_6PxVec3ERKNS_2Cm8Matrix34ERKNS7_23FastVertex2ShapeScalingERfSE_
LVk:_Mesh_get_uv2_m3615020997
S4d:__ZN5physx17PxcNpMemBlockPool19releaseUnusedBlocksEv
$zi:_EqualityComparer_1_System_Collections_IEqualityComparer_Equals_m4172006498_gshared
the:__ZN5physx14PxsAABBManager21selfCollideAggregatesEPKNS_19AggregateSortedDataE
LQ:__ZN12AudioManager8TransferI24GenerateTypeTreeTransferEEvRT_
TUk:_Mathf_Round_m4098141538
M2c:__ZN16CustomDataModuleD0Ev
sHa:__Z25GetBytesFromTextureFormat13TextureFormat
Zqk:__ZN6il2cpp6icalls8mscorlib6System9Threading6Thread20Thread_free_internalEP12Il2CppThreadi
Bpe:__ZN5physx12_GLOBAL__N_112innerProductERKNS_14Px1DConstraintERS1_RKNS0_9MassPropsE
gwf:__Z35setPxVehicleDriveSimData4W_DiffDataPN5physx23PxVehicleDriveSimData4WERKNS_27PxVehicleDifferential4WDataE
dvm:dynCall_iifff
Knd:__ZN19ControllerHitReportD2Ev
x9:__Z32scripting_class_get_assemblyname17ScriptingClassPtr
Hdf:__ZN11UnityEngine15PlatformWrapper15GetVRDeviceNameEv
eol:__Z99RuntimeInvoker_Boolean_t97287965_Int32_t2950945753_PointerEventDataU26_t867828220_SByte_t1669577662PFvvEPK10MethodInfoPvPS4_
Hde:__ZN5physx26PxcFrictionPatchStreamPairC2ERNS_17PxcNpMemBlockPoolE
r_g:_InternalEnumerator_1_get_Current_m2128158355_AdjustorThunk
TSa:__ZN9GfxDevice21RegisterNativeTextureE9TextureIDi16TextureDimension
TOf:_GraphicRegistry__ctor_m1851575309
_Jk:__ZN6il2cpp6icalls8mscorlib6System10Reflection4Emit11TypeBuilder20create_generic_classEP27Il2CppReflectionTypeBuilder
gbi:_SHA1Internal_FillBuff_m3615718415
Wmi:_PlayableHandle_IsPlayableOfType_TisAnimationLayerMixerPlayable_t3631223897_m201603007_gshared
DZ:__Z60Register_UnityEngine_AudioListener_GetNumExtensionPropertiesv
Dj:_emscripten_glUniformMatrix4fv
hok:__ZN15dense_hashtableINSt3__24pairIK10KeyWrapperINS1_IP11Il2CppClassjEEES4_EES6_N6il2cpp8metadata14ArrayClassHashEN14dense_hash_mapIS6_S4_SB_NS6_14EqualsComparerINSA_17ArrayClassCompareEEENS0_9allocatorIS8_EEE9SelectKeyESF_SH_E13set_empty_keyERKS8_
oxb:__ZN12ScriptMapperD2Ev
_De:__ZN9Rigidbody13AwakeFromLoadE17AwakeFromLoadMode
OVk:_Mesh_get_colors32_m1253190811
sZc:__ZN9SubModule8TransferI14SafeBinaryReadEEvRT_
$Fk:_GC_stopped_mark
dNk:_AnimationCurve_Finalize_m2397002729
eTc:__ZN14ParticleSystem15AddCustomLightsERK27LocalLightCullingParametersRK11CullResultsR12ActiveLightsRi9LightType
eHd:__ZNK5physx14NpSceneQueries10multiQueryINS_12PxOverlapHitEEEbRKNS_15MultiQueryInputERNS_13PxHitCallbackIT_EENS_7PxFlagsINS_9PxHitFlag4EnumEtEEPKNS_12PxQueryCacheERKNS_17PxQueryFilterDataEPNS_21PxQueryFilterCallbackEPNS_20BatchQueryFilterDataE
Eyl:__Z50RuntimeInvoker_RuntimeObject_ColorTween_t809614380PFvvEPK10MethodInfoPvPS4_
wrh:_SerializationCallbacks__cctor_m1674315180
IDc:__Z52Register_UnityEngine_RenderTexture_Internal_GetWidthv
VGk:_GC_check_leaked
Yva:__ZN9ShaderLab20SerializedSubProgram16TextureParameter8TransferI19StreamedBinaryWriteILb0EEEEvRT_
Ib:invoke_fiiiiiiiifiiiif
YRc:__ZN14ParticleSystem23RendererBecameInvisibleEv
vUa:__ZNK7Hash12812PackToUInt32Ev
Ihg:_SynchronizedArrayListWrapper_IndexOf_m3642674350
kba:__ZNSt3__227__insertion_sort_incompleteIRNS_6__lessI14ObjectLoadDataS2_EEPS2_EEbT0_S6_T_
H2:__ZN11UnityEngine15CloudWebService16SessionContainer8AddEventEPNS0_14CloudEventInfoE
IRa:__Z4TrimRKN4core12basic_stringIcNS_20StringStorageDefaultIcEEEES5_
fij:_Dictionary_2_Do_ICollectionCopyTo_TisKeyValuePair_2_t3842366416_m1399105608_gshared
zSh:_X509Certificate2_Import_m4026562329
gCm:_glGetStringi__wrapper
ijb:__ZN10VertexData8TransferI14SafeBinaryReadEEvRT_
GAd:__ZN5physx19NpArticulationJointD0Ev
$R:__ZN4FMOD8ChannelI8setDelayE14FMOD_DELAYTYPEjj
PHk:_GC_malloc_atomic
AHe:__ZN5physx9NpPhysics14createInstanceEjRNS_12PxFoundationERKNS_17PxTolerancesScaleEbPNS_20PxProfileZoneManagerE
oLe:__Z59Register_UnityEngine_Physics_INTERNAL_CALL_Internal_Raycastv
YDi:_HashSet_1_GetEnumerator_m3346268098_gshared
xKk:__ZN6il2cpp5utils6Memory13AlignedMallocEjj
_uh:_Selectable_get_animator_m2899312855
A6:__ZL20SortItemByInstanceIDRKN18AwakeFromLoadQueue4ItemES2_
I3k:_Vector2_op_Multiply_m2347887432
gHe:__ZN5physx6shdfnd5ArrayIPvNS0_15InlineAllocatorILj256ENS0_19ReflectionAllocatorINS_24NpPtrTableStorageManager8PtrBlockILi16EEEEEEEE15growAndPushBackERKS2_
Mvf:__Z46getPxVehicleEngineDataMDampingRateFullThrottlePKN5physx19PxVehicleEngineDataE
yOh:_TypeConverterAttribute__ctor_m1774069684
lH:__ZNK34AnimationStateMachineMixerPlayable26GetInterruptedPosePlayableEv
lgf:__ZN20UnityConnectSettings8TransferI24GenerateTypeTreeTransferEEvRT_
t_c:__ZN25IParticleSystemProperties8PropertyIfNS_11ClampRadiusEE8TransferI14SafeBinaryReadEEvRT_PKc
nJ:__ZN34BlobWriteTransferSTLStyleArrayImplI22OffsetPtrArrayTransferIbEEclERS1_17TransferMetaFlagsR9BlobWrite
X6f:_Byte_ToString_m4063101981
RCg:_MonoType_GetConstructors_m2574682189
poc:__ZN24MeshIntermediateRenderer10InitializeERK10Matrix4x4fP4MeshRK4AABB4PPtrI8MaterialEiy17ShadowCastingModebi
ALd:__ZN5physx7NpShape13setRestOffsetEf
b7k:__Z64RuntimeInvoker_RuntimeObject_Int16_t2552820387_Int16_t2552820387PFvvEPK10MethodInfoPvPS4_
iPh:_ServicePointManager_FindServicePoint_m4119451290
yma:__ZL31InitializeRendererUpdateManagerPv
cVf:_ParameterInfo__ctor_m2779026345
Ush:_InputField_set_onValueChange_m1251390545
aMd:__ZN5physxL11getTriangleERKNS_2Gu12TriangleMeshEjPNS_6PxVec3EPKS4_PKvRKNS_2Cm8Matrix34Eb
M5f:_DeriveBytes_set_Password_m3005258189
jEg:_NumberFormatter_get_IsZeroInteger_m2263284741
LDe:__ZN14SafeBinaryRead21TransferSTLStyleArrayINSt3__26vectorIjNS1_9allocatorIjEEEEEEvRT_17TransferMetaFlags
gNd:__ZNK5physx7NpCloth16lockParticleDataEv
UAj:_X509Certificate_PEM_m2020851166
VFg:_SByte_Equals_m865896384_AdjustorThunk
Cti:_Array_InternalArray__Insert_TisDateTime_t3738529785_m2308632330_gshared
arb:__ZN11TimeManager8TransferI19StreamedBinaryWriteILb0EEEEvRT_
PSg:_TlsServerCertificateRequest_ProcessAsTls1_m3214041063
WYe:_compare_uni_maps
uef:__ZN11UnityEngine15PlatformWrapper27GetGraphicsCapsSupportFlagsEv
G6d:__ZN5physx13NpRigidStatic9visualizeERNS_2Cm12RenderOutputEPNS_7NpSceneE
QLb:__ZN12NativeBufferI16Converter_StringE15SetupForWritingER9ArrayInfo
UIh:_SequentialSearchPrimeGeneratorBase_GenerateSearchBase_m3595783982
Ipa:__ZN13RuntimeStaticI18AssetBundleManagerLb1EE16StaticInitializeEPv
JDm:___cxa_end_catch__wrapper
ati:_Array_InternalArray__ICollection_CopyTo_TisQuaternion_t2301928331_m4050064315_gshared
Xj:_emscripten_glVertexAttrib3fv
mBf:__Z22CleanupVehiclesManagerv
H4c:__ZL24GenerateParticleGeometryIL24ParticleSystemRenderMode0ELb1ELb0EL25ParticleSystemRenderSpace4EEvPfRK22ParticleSystemTempDataRK26ParticleSystemRendererDataRK21ParticleSystemModulesRK23ParticleSystemParticlesRK31ParticleSystemParticlesTempData
a9d:__ZN5physx6shdfnd8PoolBaseINS_2Sc35ParticleElementRbElementInteractionENS0_19ReflectionAllocatorIS3_EEE15disposeElementsEv
bbi:_SHA1CryptoServiceProvider_Dispose_m1653611664
wfg:_Char_ToString_m278452217
Zlj:_ReadOnlyCollection_1_System_Collections_IList_set_Item_m4047645019_gshared
Bdi:_String_Format_m1881875187
iLg:_BigInteger_op_RightShift_m460065452
dTb:__ZN13MonoBehaviour22DoScriptRebuildWarningEv
Jyc:__Z38Camera_CUSTOM_INTERNAL_CALL_RaycastTryP12Il2CppObjectRK3Rayfi
Vnc:__ZNK10GameObject22GetComponentPtrAtIndexEi
Dmc:__ZZL23RegisterLightPropertiesR22GenericPropertyBindingEN22Wrapper_LightSpotAngle13GetFloatValueEPv
kFf:_ExecuteEvents_get_cancelHandler_m1220395193
T6e:__Z38TextGenerator_Get_Custom_PropLineCountP12Il2CppObject
AAj:_InternalAsyncResult_SetComplete_m963842420
qLi:_Encoding_GetEncoding_m2801244948
jIc:__ZN11IMGUIModule25GetGUIStyleScriptingClassEv
y$e:_tt_get_interface
FVg:_SslStreamBase_EndRead_m495357226
Kqk:__ZN6il2cpp5utils9PathUtils7CombineIcEENSt3__212basic_stringIT_NS3_11char_traitsIS5_EENS3_9allocatorIS5_EEEERKSA_SC_
Dhe:__ZN5physx14PxsAABBManager16processBPResultsERKNS_20PxsComputeAABBParamsE
dOc:__ZN9JSONWrite8TransferI13dynamic_arrayIiLj4EEEEvRT_PKc17TransferMetaFlags
Kfe:__ZN5physx23PxsBroadPhaseContextSapD2Ev
qgl:__Z64RuntimeInvoker_RuntimeObject_SByte_t1669577662_SByte_t1669577662PFvvEPK10MethodInfoPvPS4_
spc:__ZN13PlayableGraph21InvalidateMultithreadEv
tze:__ZN5physx12SubSortQuickC2EPjPKNS_10PxBounds3VEjf
MFi:_Enumerator_System_Collections_IEnumerator_get_Current_m713684915_AdjustorThunk
xCi:_GenericComparer_1_Compare_m459680062_gshared
HWf:_EnumBuilder_GetConstructorImpl_m3068576149
i8:__Z18ConvertUTF16toUTF8PPKtS0_PPhS2_15ConversionFlags
IBk:__ZN6il2cpp2os20PathErrnoToErrorCodeERKNSt3__212basic_stringIcNS1_11char_traitsIcEENS1_9allocatorIcEEEEi
rbm:__ZL68InputField_t3762917431_CustomAttributesCacheGenerator_m_KeyboardTypeP21CustomAttributesCache
F_j:__ZL16my_g_bit_nth_msfj
XQl:__ZL65NonSerializedAttribute_t2945079482_CustomAttributesCacheGeneratorP21CustomAttributesCache
Q4i:_Enumerator_MoveNext_m3662315381_AdjustorThunk
xSg:_TlsClientFinished_ProcessAsTls1_m2429863130
E$b:__Z23SetupStereoFlareElementP11FlareVertexRK8Vector2fS3_S3_RK11ColorRGBA32RK10Matrix4x4fRK8Vector3fb
jWf:_DerivedType_GetCustomAttributes_m851300494
cb:invoke_iiiifiiii
_sh:_InputField_EnforceContentType_m2436948794
m8c:__ZN11ShapeModule13DidDeleteMeshEv
GPd:__ZNK5physx2Sc9ClothCore16getRestPositionsEPNS_6PxVec4E
rce:__ZN5physx20PxcSweepConvexConvexERKNS_11PxsCCDShapeES2_PKNS_12PxsRigidBodyES5_RKNS_11PxTransformES8_S8_S8_fRNS_6PxVec3ESA_RNS_10PxcNpCacheERNS_18PxcNpThreadContextEf
Mii:_String_Join_m2050845953
NSd:__ZN5physx15PxsParticleDataD0Ev
RNa:__ZL19BlitFramebufferImplRN4gles23BlitFramebufferDrawQuadER9GfxDevice9TextureIDRK8Vector4f
kxe:__ZN5physx6shdfnd5ArrayIPvNS0_19ReflectionAllocatorIN17PxcPoolMallocData9PoolData8EEEE15growAndPushBackERKS2_
lgk:__ZN15dense_hashtableINSt3__24pairIK10KeyWrapperIPK10Il2CppTypeEjEES6_N6il2cpp8metadata14Il2CppTypeHashEN14dense_hash_mapIS6_jSB_NS6_14EqualsComparerINSA_26Il2CppTypeEqualityComparerEEENS0_9allocatorIS8_EEE9SelectKeyESF_SH_E4findERS7_
sxh:_LayoutUtility_U3CGetPreferredWidthU3Em__1_m74273510
avm:dynCall_viiiiiiiiiiiiii
P0e:_UNITY_FT_List_Add
ykc:__ZN14Texture2DArray11InitTextureEiii13TextureFormatb
Fwj:_InvokableCall_1_Invoke_m1524307439_gshared
qBe:__ZN5physx15PxGeometryQuery14getWorldBoundsERKNS_10PxGeometryERKNS_11PxTransformEf
VQd:__ZN5physx2Sc9ClothCore18setSolverFrequencyEf
fvg:_Directory_CreateDirectoriesInternal_m3735342319
wIe:__ZN8ColliderC2E10MemLabelId18ObjectCreationMode
hlk:__ZN15dense_hashtableINSt3__24pairIK10KeyWrapperINS1_IPK11Il2CppImageP11Il2CppClassEEEjEES9_17ReflectionMapHashIS8_EN14dense_hash_mapIS9_jSD_NS9_14EqualsComparerINS0_8equal_toIS8_EEEENS0_9allocatorISB_EEE9SelectKeyESI_SK_E14squash_deletedEv
ici:_SHAConstants__cctor_m1699027474
Lqb:__ZN9InputAxis8TransferI18StreamedBinaryReadILb0EEEEvRT_
hcd:__ZN5physx2Gu16buildPartialHullERKNS0_13PolygonalDataEPNS0_12SupportLocalERNS0_14SeparatingAxesERKNS_6shdfnd3aos5Vec3VESC_
gub:__Z14resize_trimmedINSt3__26vectorIN4core12basic_stringIcNS2_20StringStorageDefaultIcEEEE13stl_allocatorIS6_L18MemLabelIdentifier13ELi16EEEEEvRT_j
dDb:__Z18Transfer_BlittableI14SafeBinaryReadLb0EaEvRK29SerializationCommandArgumentsR31RuntimeSerializationCommandInfo
Afg:_CharEnumerator_System_Collections_IEnumerator_get_Current_m1328529384
HWc:__ZN11NoiseModule17CalculateNoiseJobILi3ELb1ELb1EEEvP12NoiseJobData
pMe:__ZN7TerrainD2Ev
Wxm:_emscripten_glFrustum__wrapper
Uzd:__ZNK5physx2Sc16ArticulationCore17releaseDriveCacheERNS_9PxcFsDataE
xzh:_GetRayIntersectionAllCallback_Invoke_m1316694896
hGj:_PatternCompiler_Emit_m3022689557
t1e:_UNITY_FT_List_Iterate
eod:__ZN5physx11NpAggregate7releaseEv
Veg:_Char_System_IConvertible_ToUInt64_m3536560782
qzi:_EqualityComparer_1__cctor_m3452395357_gshared
LA:__ZN19StreamedBinaryWriteILb0EE8TransferIKN4math7_float3EEEvRT_PKc17TransferMetaFlags
j_b:__Z20SyncFenceCullResultsR11CullResults
uQa:__ZN15TextureTFMethod20IsBoneCountSupportedEi
$3h:_Double_ToString_m3828879243_AdjustorThunk
yHb:__Z22TransferField_NonArrayI17RemapPPtrTransfer27Converter_SimpleNativeClassI8GUIStyleEEvRK23StaticTransferFieldInfoR31RuntimeSerializationCommandInfoRT0_
uLd:__ZN5physx7NpShape12setMaterialsEPKPNS_10PxMaterialEt
qfc:__ZNK17AnimationCurveTplIfE20EvaluateWithoutCacheEfRf
Nzk:__ZN6il2cpp2os6Thread12QueueUserAPCEPFvPvES2_
y8a:__ZN19ShaderPropertySheet10SetTextureERK23FastTexturePropertyNameP7Texture
aUf:_CustomAttributeData__ctor_m2966233049
rTb:__ZN10MonoScriptD0Ev
aKf:_CanvasUpdateRegistry_PerformUpdate_m1793997159
NRg:_Context_set_ClientWriteIV_m3405909624
zsc:__ZN4Mesh10SetNormalsEPK8Vector3fj
BPj:_AesManaged_CreateDecryptor_m692040246
ry:__ZN17AnimationCurveTplIfE8TransferI14SafeBinaryReadEEvRT_
Fej:_Array_InternalArray__set_Item_TisInt16_t2552820387_m2544074754_gshared
j9f:_ArithmeticException__ctor_m3551809662
Gvg:_MonoIO_ExistsDirectory_m2182482658
s7c:__ZN22ParticleSystemRenderer15InitializeClassEv
Pcc:__Z29StdTemplateConversionFunctionIybEbPvR14SafeBinaryRead
Jhb:__ZNSt3__26vectorIN15QualitySettings14QualitySettingENS_9allocatorIS2_EEE6assignIPS2_EENS_9enable_ifIXaasr21__is_forward_iteratorIT_EE5valuesr16is_constructibleIS2_NS_15iterator_traitsIS9_E9referenceEEE5valueEvE4typeES9_S9_
$Q:__ZN12AudioManager21FixMasterGroupRoutingEv
Ljd:__Z15raycast_capsuleRKN5physx10PxGeometryERKNS_11PxTransformERKNS_6PxVec3ES8_fNS_7PxFlagsINS_9PxHitFlag4EnumEtEEjPNS_12PxRaycastHitEbPFbRSD_PvESG_
oIi:_List_1_CheckCollection_m1671972112_gshared
YPg:_CipherSuiteFactory_GetSsl3SupportedCiphers_m3757358569
hNi:_UnicodeEncoding_GetPreamble_m3002287178
uqe:__ZNK5physx34PxsSolverConstraintPostProcessTask7getNameEv
Zkl:__Z52RuntimeInvoker_Color_t2555686324_Color32_t2600501292PFvvEPK10MethodInfoPvPS4_
vxa:__ZN20GpuProgramParameters14AddVectorParamEPKcii15ShaderParamTypeiiiP16PropertyNamesSet
rdd:__ZN5physx2Gu23distancePointBoxSquaredERKNS_6PxVec3ES3_S3_RKNS_7PxMat33EPS1_
rHe:__ZN5physx9NpPhysics20MeshDeletionListener28onGuMeshFactoryBufferReleaseEPKNS_6PxBaseEtb
aif:__ZNK12HeaderHelper3GetERKN4core12basic_stringIcNS0_20StringStorageDefaultIcEEEE
Hqb:__ZN9InputAxis8TransferI14SafeBinaryReadEEvRT_
V6:__ZNK21ExecutionOrderManager30GetCustomAwakeFromLoadQueueForEPKN5Unity4TypeE
Q0d:__ZNK5physx7NpScene9getActorsENS_7PxFlagsINS_15PxActorTypeFlag4EnumEtEEPPNS_7PxActorEjj
vhf:__Z27RegisterModule_UnityConnectv
Yxg:_MemoryStream_Expand_m3554752073
YYh:_DateTimeFormatInfo_get_RoundtripPattern_m796050488
G8d:__ZN5physx11NodeManagerD0Ev
p0k:_ScriptableObject_CreateInstance_m2611081756
Eph:_ObjectRecord_get_IsInstanceReady_m2304516395
B4g:_InternalEnumerator_1_System_Collections_IEnumerator_get_Current_m1635397542_gshared
Dyg:_Path__cctor_m3273994011
ctm:__ZNSt11logic_errorD2Ev
IYh:_DateTimeUtils_CountRepeat_m3396693018
Kmf:__ZN5physx16PxVehicleDriveNW12createObjectERPhRNS_24PxDeserializationContextE
tT:__ZN10ObjectPoolIN4FMOD12ChannelGroupENS0_13ChannelGroupIEE7SetSizeEi
mPj:_SymmetricTransform_FinalDecrypt_m764004682
tAk:__ZN6il2cpp2os10ThreadImpl33UnregisterCurrentThreadForCleanupEv
DHj:_Parser_ParseGroupingConstruct_m263270497
JQf:_HorizontalOrVerticalLayoutGroup_set_childControlWidth_m3261460516
Ss:__ZN15SerializeTraitsINSt3__24pairI8StateKey10StateRangeEEE8TransferI14SafeBinaryReadEEvRS4_RT_
nlk:__ZN14dense_hash_mapI10KeyWrapperINSt3__24pairIPK9EventInfoP11Il2CppClassEEEj17ReflectionMapHashIS8_ENS9_14EqualsComparerINS1_8equal_toIS8_EEEENS1_9allocatorINS2_IKS9_jEEEEE15set_deleted_keyERSH_
yMf:_Dropdown_RefreshShownValue_m2806045241
QNd:__ZNK5physx7NpCloth25getMotionConstraintConfigEv
e9b:__ZN25CameraStackRenderingState19SetupLastEyeCamerasERK11CameraStack
VZa:__Z12GUIDToStringRK9UnityGUID
jUg:_RSASslSignatureDeformatter_SetKey_m2204705853
bzk:__ZN6il2cpp6icalls8mscorlib6System4Enum12get_hashcodeEP12Il2CppObject
qP:__ZN11SoundHandleC2ERKS_
CB:__ZN17AnimationPlayableC2E18DirectorPlayerType
rhf:__ZN22UnityAnalyticsSettingsC2Ev
w7j:__ZNK6il2cpp5utils11collections13ArrayValueMapIPK10Il2CppType17Il2CppInteropData26InteropDataToTypeConverterNS_8metadata14Il2CppTypeLessENS8_26Il2CppTypeEqualityComparerEE10find_firstERKS5_
qs:__ZN18AnimatorController23VirtualRedirectTransferER18StreamedBinaryReadILb0EE
Bwg:_FileStream_get_CanSeek_m331583577
MHg:_DSAParameters_t1885824122_marshal_pinvoke_back
Bld:__ZN5physx3Cct26CharacterControllerManager24setOverlapRecoveryModuleEb
RH:__ZN8Animator22OnGraphTopologyChangedEP8Playablei
JIh:_Kernel_MultiplyByDword_m1266935086
eDk:__ZN4utf89unchecked8utf8to16INSt3__220back_insert_iteratorINS2_12basic_stringIDsNS2_11char_traitsIDsEENS2_9allocatorIDsEEEEEEPKcEET_T0_SE_SD_
bE:__ZN17AnimationPlayable18DeallocateBindingsEv
Oac:__ZN6Camera25StandaloneRenderToCubemapEP7TextureiPFvPK9SceneNodePK4AABBR9IndexListPvESA_j
Jhi:_String_Trim_m3384720403
k8a:__ZN14RenderSettings18TransferDeprecatedI14SafeBinaryReadEEvRT_
KLj:_Event__ctor_m526447123
Gil:__Z88RuntimeInvoker_RuntimeObject_RuntimeObject_RuntimeObject_RuntimeObject_Int32_t2950945753PFvvEPK10MethodInfoPvPS4_
cTi:_Type_ToString_m3975981286
N6:__ZN12TLSAllocatorI14StackAllocatorE8AllocateEji
O8:__ZN16ScriptingManager18GetMonoScriptCacheEi
aph:_RemotingServices__cctor_m4056345423
RHj:_ExpressionAssertion__ctor_m2554412824
bgj:_Array_Resize_TisCustomAttributeTypedArgument_t2723150157_m3021884250_gshared
kDb:__Z18Transfer_BlittableI14SafeBinaryReadLb1EyEvRK29SerializationCommandArgumentsR31RuntimeSerializationCommandInfo
_Uc:__ZNSt3__27__sort5IR31SortCollisionEventsByGameObjectP22ParticleCollisionEventEEjT0_S5_S5_S5_S5_T_
WDg:_NullReferenceException__ctor_m3076065613
$Kc:__ZN8JSONRead8TransferIfEEvRT_PKc17TransferMetaFlagsb
BMj:_GUIStyle_Draw_m3190299676
Uwa:__ZN9ShaderLab7Program22ComputeSupportsShadowsEv
lRh:_X509SubjectKeyIdentifierExtension_Decode_m1505409124
BOd:__ZN5physx7NpCloth25setSelfCollisionStiffnessEf
mhi:_String_System_IConvertible_ToUInt16_m2888090399
aV:__ZN11AudioSource21ApplyCachedParametersE12SoundChannel
SSf:_Assembly_InternalGetType_m3065345470
G_:__ZN13Simd4iFactoryIN6detail9FourTupleEEC2Eiiii
R3f:_ResourceSet__ctor_m3356376607
CIl:__ZL56_ParameterInfo_t489405856_CustomAttributesCacheGeneratorP21CustomAttributesCache
Ogb:__ZN15SerializeTraitsI33EnlightenTerrainChunksInformationE8TransferI14SafeBinaryReadEEvRS0_RT_
zUi:_UInt32_System_IConvertible_ToByte_m4072781199_AdjustorThunk
klc:__ZNK32RendererMaterialAnimationBinding9BindValueER6ObjectRKN11UnityEngine9Animation14GenericBindingERNS3_10BoundCurveE
zmf:__ZN5physx15PxVehicleWheels17getBinaryMetaDataERNS_14PxOutputStreamE
Wch:_Transform_1_Invoke_m1731820209_gshared
f9a:__Z13GetIAnimationv
SIa:__ZL18stbir__support_onef
Dgi:_Single_CompareTo_m189772128
MMc:__Z26Transfer_UnityEngineObjectI9JSONWriteLb0EEvRK29SerializationCommandArgumentsR31RuntimeSerializationCommandInfo
X6g:_DefaultComparer_Compare_m4042058291_gshared
m2c:__ZN14VelocityModuleD2Ev
tcb:__ZNSt3__26vectorIN4core12basic_stringIcNS1_20StringStorageDefaultIcEEEE13stl_allocatorIS5_L18MemLabelIdentifier1ELi16EEE6assignINS_11__wrap_iterIPS5_EEEENS_9enable_ifIXaasr21__is_forward_iteratorIT_EE5valuesr16is_constructibleIS5_NS_15iterator_traitsISF_E9referenceEEE5valueEvE4typeESF_SF_
Uvm:dynCall_iiiifii
U8e:__ZNSt3__27__sort5IRNS_6__lessIN2UI14DepthSortEntryES3_EEPS3_EEjT0_S7_S7_S7_S7_T_
mwg:_FileLoadException_ToString_m2989457882
VRj:_AudioListener_ClearExtensionProperties_m3849891634
tRc:__Z39ParticleSystemRenderer_RenderBillboardsIL21SpriteMaskInteraction0EEvRK15RenderNodeQueuej17ShaderChannelMaski
mUe:_UNITY_FT_DivFix
pjj:_Array_InternalArray__get_Item_TisDecimal_t2948259380_m3511003792_gshared
Ydi:_SecurityElement_IsValidAttributeValue_m948345692
Lkc:__ZN14Texture2DArrayC2E10MemLabelId18ObjectCreationMode
Ja:invoke_vdd
uo:FUNCTION_TABLE_fiii
yAg:_TextWriter_Write_m2252948084
Joc:__Z19RegisterModule_Corev
x6e:__ZZ29InitializeTextRenderingModulevEN27cleanupAfterLoadRegistrator7ForwardEv
qyb:__ZNSt3__26__sortIRPFbRK23TransformAccessReadOnlyS3_EPS1_EEvT0_S8_T_
R5h:_CCFixed_FromDateTime_m3894190577
MKk:__ZN6il2cpp6icalls8mscorlib4Mono8Security12Cryptography18KeyPairPersistence19_IsMachineProtectedEP12Il2CppString
T8b:__Z29PluginsIssueRenderingExtEvent26UnityRenderingExtEventTypePv
d9k:__Z116RuntimeInvoker_RuntimeObject_RuntimeObject_Int32_t2950945753_RuntimeObject_RuntimeObject_RuntimeObject_RuntimeObjectPFvvEPK10MethodInfoPvPS4_
Kaj:_Collection_1_SetItem_m2109164320_gshared
iqh:_MessageFormatter_ReadMethodCall_m2327590823
g6c:__Z19UpdateSingleRow2TplIL27ParticleSystemCurveEvalMode2ELS0_2EEvfRK11MinMaxCurveS3_RK23ParticleSystemParticlesPfbiii
lkc:__Z14RandomRotationP9Texture2DPhiiii
Kri:_Array_InternalArray__ICollection_Add_TisUInt16_t2177724958_m3981262878_gshared
_Fe:__ZThn132_N5physx7profile8ZoneImplINS_28PxProfileNameProviderForwardEED1Ev
VDi:_HashSet_1_Contains_m3173358704_gshared
TPj:_ToggleEvent__ctor_m834619998
oNg:_PKCS1_Encode_v15_m2077073129
hZb:__ZZ23InitPlayerLoopCallbacksvEN39PostLateUpdateGUIClearEventsRegistrator7ForwardEv
n1d:__ZN5physx7NpScene27setCCDContactModifyCallbackEPNS_26PxCCDContactModifyCallbackE
Xxe:__ZNK5physx17ConvexHullBuilder17ComputeGeomCenterERNS_6PxVec3E
z_k:_RectOffset_get_left_m1232181034
kge:__ZN3MBPD0Ev
TLa:__ZN4gles14UseGLSLProgramER15DeviceStateGLESjbij
cEm:_glDeleteProgram__wrapper
Qyc:__Z50Register_UnityEngine_Camera_INTERNAL_get_pixelRectv
i$c:__ZN11ShapeModule18MultiModeParameterIN25IParticleSystemProperties8PropertyIfNS1_11ClampRadiusEEEE8TransferI24GenerateTypeTreeTransferEEvRT_
$Ja:__ZN6prcoreL18BlitFloatToIntegerERK14ImageReferenceRS0_
M$h:_DBNull_System_IConvertible_ToUInt32_m3784627971
QQg:_ClientSessionCache_Add_m964342678
t4d:__ZNK5physx10PxsContext18getBounceThresholdEv
cQa:__ZN13dynamic_arrayI15ComputeShaderCBLj4EE6assignEPKS0_S3_
a2:__ZN11UnityEngine15CloudWebService14RestDownloader17OnCompleteContentEv
bZj:_CanvasRenderer_SetTexture_m1600559835
y2k:_Transform_get_localScale_m129152068
h1h:_DivideByZeroException__ctor_m3496959969
w$d:__ZN5physx6shdfnd5ArrayIPvNS0_15InlineAllocatorILj256ENS0_19ReflectionAllocatorINS_2Gu31SpherePersistentContactManifoldEEEEEE15growAndPushBackERKS2_
Cse:__ZN5physx2Cm18DelegateFanoutTaskINS_2Sc5SceneEXadL_ZNS3_17finalizationPhaseEPNS_10PxBaseTaskEEEE11runInternalEv
xH:__ZN17AnimationPlayable28UpdateInternalStateRecursiveILi1ELb0EEEvPK35AnimationPlayableEvaluationConstant
Nxk:__ZN6il2cpp2gcL10CleanupCCWEPvS1_
eb:invoke_vifff
FCm:_glGetVertexAttribiv__wrapper
jEd:__ZN5physx6shdfnd15atomicDecrementEPVi
vf:_emscripten_request_fullscreen
_uj:_Predicate_1_Invoke_m851618236_gshared
ZTb:__ZN20LocalFileSystemWebGL6DeleteER13FileEntryDatab
xf:_emscripten_glDisableVertexAttribArray
pmi:_Array_InternalArray__ICollection_Remove_TisSingle_t1397266774_m3361324455_gshared
oo:FUNCTION_TABLE_iiiifiiii
qqa:__ZN4core8hash_mapINS_12basic_stringIcNS_20StringStorageDefaultIcEEEE13dynamic_arrayI4PPtrI6SpriteELj4EENS_4hashIS4_EENSt3__28equal_toIS4_EEE12delete_nodesEv
IIe:__ZN8Collider18SelfPointerToWordsERjS0_
Ac:invoke_fifffi
ocj:_Collection_1_System_Collections_IList_Add_m2969482770_gshared
sJh:_BitConverterLE_GetBytes_m4130646282
nGa:__ZN4gles23ClearCurrentFramebufferEP7ApiGLESbbbRK10ColorRGBAffi
WF:__ZN7mecanim12statemachine20CreateStateWorkspaceEjjjRNS_6memory9AllocatorE
dyj:_UnityEvent_1_Invoke_m3604335408_gshared
Dxe:__ZN5physx2Gu11HeightField13releaseMemoryEb
If:_emscripten_glDeleteObjectARB
YDf:_EventSystem_RaycastComparer_m3685368675
FLa:__Z14DecompressDXT3iiiPKjPj
Zcl:__Z131RuntimeInvoker_Void_t1185182177_RuntimeObject_RuntimeObject_Int64_t3736567304_ObjectU26_t2146539884_SerializationInfoU26_t419328957PFvvEPK10MethodInfoPvPS4_
tTc:__ZN12LightsModule5StartER23ParticleSystemParticlesjj
hKh:_DSAManaged_CreateSignature_m2233977444
UMh:_PKCS12_RemoveCertificate_m1421555398
Ljm:_CrossPlatformInputManager_GetButtonDown_m1689635996
aLa:__ZN6prcoreL17RemapGenericFloatI17TexFormatRGBAHalf18TexFormatARGBFloatEEvPKNS_9InnerInfoE
$Hc:__Z14GetBuiltinSkini
Hmh:_MethodDictionary_get_Item_m1201458851
PHf:_StandaloneInputModule_ProcessMouseEvent_m2923582521
ngi:_Single_System_IConvertible_ToSingle_m1939829239_AdjustorThunk
rha:___cxx_global_var_init_18
Rl:_JS_SystemInfo_GetBrowserVersionString
Sxb:__ZN2UI13RectTransform23VirtualRedirectTransferER14SafeBinaryRead
Y1d:__ZN5physx7NpScene17flushQueryUpdatesEv
Qdh:_Enumerator_MoveNext_m3045873697_gshared
nua:__ZNSt3__26vectorIN9ShaderLab20SerializedSubProgramENS_9allocatorIS2_EEE6assignIPS2_EENS_9enable_ifIXaasr21__is_forward_iteratorIT_EE5valuesr16is_constructibleIS2_NS_15iterator_traitsIS9_E9referenceEEE5valueEvE4typeES9_S9_
YOc:__Z18Transfer_BlittableI8JSONReadLb0E8BitFieldEvRK29SerializationCommandArgumentsR31RuntimeSerializationCommandInfo
vfg:_Char_ToString_m3588025615_AdjustorThunk
PDi:_HashSet_1_CopyTo_m2849056227_gshared
iNb:__ZL17Transfer_GUIStyleI18StreamedBinaryReadILb1EELb0EEvRK29SerializationCommandArgumentsR31RuntimeSerializationCommandInfo
rIh:_ModulusRing_Multiply_m343333088
kJe:__ZN12PhysXRaycast15InitializeClassEv
o2d:__ZN5physx7NpScene10unlockReadEv
csa:__ZN9ShaderLab14SerializedPass8TransferI14SafeBinaryReadEEvRT_
VIc:__Z71Register_UnityEngine_GUILayoutUtility_INTERNAL_CALL_Internal_MoveWindowv
SX:__ZN12AudioManager16SetListenerPauseEb
dub:__ZNSt3__26vectorIN30RuntimeInitializeOnLoadManager9ClassInfoE13stl_allocatorIS2_L18MemLabelIdentifier13ELi16EEE6assignINS_11__wrap_iterIPS2_EEEENS_9enable_ifIXaasr21__is_forward_iteratorIT_EE5valuesr16is_constructibleIS2_NS_15iterator_traitsISC_E9referenceEEE5valueEvE4typeESC_SC_
eni:_SetPropertyUtility_SetStruct_TisSingle_t1397266774_m2805350785_gshared
isk:__ZN6il2cpp2vm9Exception25RaiseOutOfMemoryExceptionERKNS_5utils10StringViewIDsEE
fa:invoke_viiiiiiiiiii
Som:___syscall_ret
KCj:_DeriveBytes_set_Salt_m1400945044
fGf:_PointerEventData_set_worldNormal_m1888481930
zIj:_AnchorInfo__ctor_m46784903
wPg:_CipherSuiteCollection_get_Item_m4188309062
eVg:_SslHandshakeHash_HashFinal_m2573455475
wkh:_SynchronizationAttribute_ReleaseLock_m1030353464
Ldk:__ZNSt3__212basic_stringIcNS_11char_traitsIcEENS_9allocatorIcEEE6assignINS_11__wrap_iterIPKcEEEENS_9enable_ifIXaasr21__is_forward_iteratorIT_EE5valuesr38__libcpp_string_gets_noexcept_iteratorISC_EE5valueERS5_E4typeESC_SC_
Mjb:__ZN11ChannelInfo8TransferI19StreamedBinaryWriteILb0EEEEvRT_
Adm:__ZL53ToggleGroup_t123837990_CustomAttributesCacheGeneratorP21CustomAttributesCache
SPd:__ZN5physx2Sc9ClothCore22setFrictionCoefficientEf
s0b:__ZN14qsort_internal13Partition3WayIP17RODataReplacementi19ROSorterReplacementEENSt3__24pairIT_S6_EES6_S6_T0_T1_
QJd:__ZNK5physx9NpPhysics17getNbConvexMeshesEv
L1d:__ZNK5physx7NpScene29getContactCorrelationDistanceEv
Yzc:__Z34Register_UnityEngine_Gradient_Initv
rrc:__Z15WriteLineVertexILb0EEvRPhRKN4math8float4x4ERKNS2_7_float3ERK11ColorRGBA32RKffRKNS2_7_float2E
n$c:__ZN13InitialModule8TransferI17RemapPPtrTransferEEvRT_
Kjh:_Context_ToString_m1073616138
r0c:__ZN25IParticleSystemProperties8PropertyI8Vector3fNS_3MinILi0EEEE8TransferI18StreamedBinaryReadILb0EEEEvRT_PKc
Wrh:_InputField_EnforceTextHOverflow_m3400115777
tLe:__Z39Register_UnityEngine_Rigidbody_get_dragv
Mqb:__ZN9InputAxis8TransferI19StreamedBinaryWriteILb0EEEEvRT_
Eqg:__Z33il2cpp_codegen_check_sub_overflowxx
$um:dynCall_viififiii
Jsh:_InputField_get_caretColor_m2973283772
fnd:__ZN5physx6shdfnd8SyncImpl4waitEj
k4a:__ZNK24MeshIntermediateRenderer14GetSubsetIndexEi
r3h:_Double_System_IConvertible_ToInt16_m3591921965_AdjustorThunk
ltj:_Comparison_1_Invoke_m2925518770_gshared
T3c:__ZN33SizeBySpeedModulePropertyBindings13GetFloatValueERK14ParticleSystemi
T_a:__ZN10GameObject23VirtualRedirectTransferER18StreamedBinaryReadILb0EE
XOj:_SymmetricTransform__ctor_m2693628991
$Rf:_ObjectDisposedException__ctor_m1034312941
Kkl:__Z67RuntimeInvoker_Void_t1185182177_Scene_t2348375561_Scene_t2348375561PFvvEPK10MethodInfoPvPS4_
Zg:_glFrontFace
E7j:__ZNK15dense_hashtableINSt3__24pairIK10KeyWrapperIPK11Il2CppClassEPKcEES6_N6il2cpp5utils11PointerHashIS3_EEN14dense_hash_mapIS6_S9_SE_NS6_14EqualsComparerINS0_8equal_toIS5_EEEENS0_9allocatorISA_EEE9SelectKeyESJ_SL_E13find_positionERS7_
YVc:__Z13DragUpdateTplIL27ParticleSystemCurveEvalMode4EEvRK11MinMaxCurvebbR23ParticleSystemParticlesjjRKN4math7_float4E
v_k:_RectOffset__ctor_m3236153262
PMe:__ZN14SplatMaterials22FindMaterialPropertiesEP8Material
k$c:__ZN14ParticleSystem8TransferI17RemapPPtrTransferEEvRT_
wXc:__Z11StartCircleILN11ShapeModule14MultiModeValueE3EEvRS0_R23ParticleSystemParticlesRK19ParticleSystemStateRK27ParticleSystemEmissionStateRKN4math8float3x3ERKNSB_8float4x4Ejbj
jyh:_MaskUtilities_IsDescendantOrSelf_m2247511982
D3d:__ZN5physx13NpVolumeCache17getNbCachedShapesEv
o5b:__ZNSt3__26vectorI16ShadowCasterData13stl_allocatorIS1_L18MemLabelIdentifier2ELi16EEE21__push_back_slow_pathIKS1_EEvRT_
f7e:__Z51Register_UnityEngine_TextGenerator_GetLinesInternalv
mdh:_Enumerator_get_Current_m2250080680_AdjustorThunk
gfi:_SecurityElement__cctor_m3326869319
IPj:_AesManaged_set_Key_m767972181
Gpg:_Int16_System_IConvertible_ToBoolean_m1656400658_AdjustorThunk
Cdg:_Byte_System_IConvertible_ToInt64_m285584218
yrf:__Z54setPxVehicleWheelsSimData_HighForwardSpeedSubStepCountPN5physx22PxVehicleWheelsSimDataEj
GDa:__ZN13GfxDeviceGLES22SetScissorRectPlatformERK5RectTIiE
rKa:__ZN6prcoreL17RemapGenericFloatI17TexFormatRGBFloat18TexFormatRGBAFloatEEvPKNS_9InnerInfoE
e5d:__ZN5physx2Sc5Scene15getRenderBufferEv
cri:_Array_InternalArray__ICollection_Add_TisDictionaryEntry_t3123975638_m665385049_gshared
NBg:_MissingMemberException__ctor_m2707802176
_yb:__ZN12HandlerChain10ToAbsoluteEPKc
jYj:_Canvas_get_renderMode_m841659411
Ugb:__ZN15SerializeTraitsI13dynamic_arrayI28EnlightenRendererInformationLj8EEE19ResizeSTLStyleArrayERS2_i
elm:_TouchPad__ctor_m1845169266
VRb:__ZN13MonoBehaviour23VirtualRedirectTransferER19StreamedBinaryWriteILb0EE
hP:__ZN9AudioClip11CreateSoundEv
Wjl:__Z98RuntimeInvoker_Void_t1185182177_Single_t1397266774_Vector3U26_t3464235976_QuaternionU26_t651104941PFvvEPK10MethodInfoPvPS4_
TIe:__Z19ExtractDataFromMeshR4MeshR13dynamic_arrayI8Vector3fLj4EERS1_IjLj4EES6_b
Blk:__ZN14dense_hash_mapI10KeyWrapperINSt3__24pairIPK9FieldInfoP11Il2CppClassEEEj17ReflectionMapHashIS8_ENS9_14EqualsComparerINS1_8equal_toIS8_EEEENS1_9allocatorINS2_IKS9_jEEEEEC2EjRKSB_RKSF_
dYj:_TextGenerator_PopulateWithErrors_m1222498386
Zgk:__ZNK15dense_hashtableINSt3__24pairIK10KeyWrapperINS1_IPK10MethodInfoP11Il2CppClassEEEjEES9_17ReflectionMapHashIS8_EN14dense_hash_mapIS9_jSD_NS9_14EqualsComparerINS0_8equal_toIS8_EEEENS0_9allocatorISB_EEE9SelectKeyESI_SK_E13find_positionERSA_
Iej:_Array_InternalArray__set_Item_TisIntPtr_t_m3746458435_gshared
Igf:__ZN11UnityEngine7Connect16PersistentValues13RestoreValuesER8JSONRead
t9h:_Guid_BaseToString_m3600006650
pQe:__ZNK14SplatMaterials12GetMaterialsER13dynamic_arrayIP8MaterialLj4EE
qDf:_PointerEventData_set_pointerEnter_m3256217464
Pne:__ZNK5physx2Gu11HeightField17getHeightInternalEff
ouk:__ZN6il2cpp2vmL11GetIdentityEP14Il2CppIUnknown
d8j:__ZN6il2cpp2vm13MetadataCache26GetWindowsRuntimeClassNameEPK11Il2CppClass
EGk:_GC_push_gc_structures
HSg:_TlsServerCertificate_ProcessAsTls1_m819212276
d1d:__ZNK5physx7NpScene22getClientBehaviorFlagsEh
sij:_Dictionary_2_Do_ICollectionCopyTo_TisRuntimeObject_m3942192587_gshared
vKd:__ZN5physx9NpFactory14createMaterialEfff
J_:__ZN5physx5cloth11PhaseConfigC2Et
q6c:__Z19UpdateSingleRow2TplIL27ParticleSystemCurveEvalMode0ELS0_2EEvfRK11MinMaxCurveS3_RK23ParticleSystemParticlesPfbiii
zy:__ZNSt3__26vectorIN13AnimationClip10FloatCurveE13stl_allocatorIS2_L18MemLabelIdentifier26ELi16EEE6resizeEj
NKg:_Kernel_DwordDivMod_m1540317819
k4c:__ZN22ParticleSystemRenderer23UpdateVertexInputLayoutEv
P$d:__ZThn8_N5physx2Sc19ShapeInstancePairLLD0Ev
Pie:__ZN5physx19PxcContactSphereBoxERKNS_2Gu13GeometryUnionES3_RKNS_11PxTransformES6_RKfRNS_10PxcNpCacheERNS0_13ContactBufferE
UCb:__Z18Transfer_BlittableI14SafeBinaryReadLb1E11ColorRGBA32EvRK29SerializationCommandArgumentsR31RuntimeSerializationCommandInfo
r1d:__ZNK5physx7NpScene21getBroadPhaseCallbackEh
Rsd:__ZN5physx6shdfnd5ArrayIPNS_12PxConstraintENS0_19ReflectionAllocatorIS3_EEE15growAndPushBackERKS3_
oEj:_X509StoreManager_get_CurrentUser_m719101392
A_f:_TypeBuilder_GetPropertyImpl_m3104345782
ekb:__ZNSt3__213__stable_sortIRNS_4lessI4PPtrI11SpriteAtlasEEENS_11__wrap_iterIPS4_EEEEvT0_SA_T_NS_15iterator_traitsISA_E15difference_typeEPNSD_10value_typeEi
Utg:_Int64_ToString_m2085073918_AdjustorThunk
Yzd:__ZNK5physx2Sc15ArticulationSim11checkResizeEv
g$f:_FieldInfo_GetFieldOffset_m1356898082
kqi:_Array_InternalArray__IndexOf_TisTypeTag_t3541821701_m2988972362_gshared
Jia:__ZN8keywords6CreateEPKc
Odd:__ZN5physx2Gu11gjkRelativeINS0_8CapsuleVENS0_11ConvexHullVEEEjRKT_RKT0_RKNS_6shdfnd3aos15PsMatTransformVERNSB_5Vec3VESG_SG_RNSB_6FloatVE
Omf:__ZN5physx16PxVehicleNoDrive14setDriveTorqueEjf
T_j:__ZL7log2_32j
S:Math_imul
x6c:__Z17UpdateSprites2TplIL27ParticleSystemCurveEvalMode4ELS0_4EEvfRK11MinMaxCurveS3_RK23ParticleSystemParticlesPf
aTg:_TlsServerKeyExchange_Update_m453798279
Xhb:__ZN11PlayerPrefs6GetIntERKN4core12basic_stringIcNS0_20StringStorageDefaultIcEEEEi
DPg:_CipherSuiteCollection_System_Collections_IList_IndexOf_m1361500977
XEh:_Text_set_fontStyle_m648756124
P6e:__Z45TextGenerator_CUSTOM_INTERNAL_get_rectExtentsP12Il2CppObjectP5RectTIfE
Igc:__ZN14BestStripCacheD2Ev
aYh:_DateTime__ctor_m2135476686_AdjustorThunk
LY:__ZN11AudioSource12SetAudioClipEP9AudioClip
j$k:_RectTransform_GetLocalCorners_m823861473
uEe:__ZN12PhysXRaycast19ApplyParticleForcesER13dynamic_arrayI21BatchedColliderResultLj4EE
g4c:__ZN30VelocityModulePropertyBindings13GetFloatValueERK14ParticleSystemi
W7:__ZN18ScriptingArguments9AddObjectE18ScriptingObjectPtr
bbf:__Z39CanvasGroup_Get_Custom_PropInteractableP12Il2CppObject
i$:__ZN11UnityEngine15CloudWebService16SessionContainerD2Ev
Sgf:__ZL38InitializeUnityConnectScriptingClassesv
B9b:__ZN13ProbeRenderer8ConvolveEbijjb
BOj:_GUIUtility_set_systemCopyBuffer_m608712289
HGa:__ZN17GenericDynamicVBOC2ER9GfxDevice13GfxBufferModejj
KOe:__ZN14DetailDatabase8TransferI19StreamedBinaryWriteILb0EEEEvRT_
h4a:__ZN24MeshIntermediateRendererD2Ev
uZd:__ZNK5physx2Sc5Scene7isValidEv
a6h:_CCGregorianCalendar_day_from_fixed_m1674702403
B0:__ZN11UnityEngine15CloudWebService17SessionEventQueue10PurgeItemsEj
u3d:__ZN5physx2Sq17SceneQueryManager29setDynamicTreeRebuildRateHintEj
fac:__ZN6Camera16StandaloneRenderENS_10RenderFlagEP6ShaderRKN4core12basic_stringIcNS3_20StringStorageDefaultIcEEEE
RSh:_X509Chain_PrepareForNextCertificate_m3691934993
o_k:_Rect_Equals_m4169342960
CMb:__Z18Transfer_BlittableI18StreamedBinaryReadILb1EELb1EtEvRK29SerializationCommandArgumentsR31RuntimeSerializationCommandInfo
U4l:__ZL58EventType_t3528516131_CustomAttributesCacheGenerator_keyUpP21CustomAttributesCache
KKl:__ZL57X509Certificate_t713131622_CustomAttributesCacheGeneratorP21CustomAttributesCache
hnb:__ZN12BoneWeights48TransferI19StreamedBinaryWriteILb0EEEEvRT_
SAa:__ZN9GfxDevice20DeallocRenderSurfaceEP17RenderSurfaceBase
Nyd:__ZN5physx6shdfnd5ArrayIPvNS0_19ReflectionAllocatorINS_18NpArticulationLinkEEEE4copyINS0_15InlineAllocatorILj256ES5_EEEEvRKNS1_IS2_T_EE
jxa:__ZN20GpuProgramParameters36UpdatePrepareValuesMaximumBufferSizeEv
V9c:__ZNK5physx3Cct10Controller12getKineShapeEv
PXc:__Z15GetPositionMeshIL20MeshDistributionMode1ELb1E11ColorRGBA32EvRN4math8floatNx3ES4_RNS2_4pix4ERK13dynamic_arrayIS1_Lj4EERK14StrideIteratorI8Vector3fESF_RKSB_IT1_ERKS7_I16MeshTriangleDataLj4EERKS7_I11MeshAreaLUTLj4EERKfRKiST_R5RandNP12SkinMeshInfo
J0c:__ZN20ExternalForcesModule8TransferI19StreamedBinaryWriteILb0EEEEvRT_
frd:__ZN5physx6shdfnd4sortIPvNS0_4LessIS2_EENS0_19ReflectionAllocatorINS_2Sc18TriggerInteractionEEEEEvPT_jRKT0_RKT1_j
vsi:_Array_InternalArray__ICollection_CopyTo_TisDecimal_t2948259380_m2749946216_gshared
yFl:__ZL54EnumBuilder_t2400448213_CustomAttributesCacheGeneratorP21CustomAttributesCache
r0a:__ZN12BaseRenderer23RendererBecameInvisibleEv
FXd:__ZNK5physx2Sc8BodyCore14getMaxAngVelSqEv
C3e:__ZN20TextRenderingPrivate8FontImpl13CharacterInfo8TransferI18StreamedBinaryReadILb0EEEEvRT_
RJb:__Z29Transfer_Blittable_ArrayFieldI24GenerateTypeTreeTransferfEvRT_R9ArrayInfoRK23StaticTransferFieldInfo
lla:__ZNSt3__26__treeINS_12__value_typeIN4core12basic_stringIcNS2_20StringStorageDefaultIcEEEES6_EENS_19__map_value_compareIS6_S7_NS_4lessIS6_EELb1EEE13stl_allocatorIS7_L18MemLabelIdentifier13ELi16EEE7destroyEPNS_11__tree_nodeIS7_PvEE
oSk:_UnityEvent_FindMethod_Impl_m2312362624
vbc:__ZN19CustomRenderTexture9AddParentE4PPtrIS_E
Bga:__ZN8Gradient8TransferI14SafeBinaryReadEEvRT_
$Lf:_FloatTween_AddOnChangedCallback_m2814315272
vgi:_Single_System_IConvertible_ToUInt64_m3299129161_AdjustorThunk
scb:__ZNSt3__26vectorIN4core12basic_stringIcNS1_20StringStorageDefaultIcEEEE13stl_allocatorIS5_L18MemLabelIdentifier1ELi16EEE7reserveEj
Wfg:_ArrayList_Shift_m395607654
VPh:_IPv6Address_AsIPv4Int_m844941024
Oje:__ZN5physx2Gu32PCMConvexVsMeshContactGeneration15processTriangleEPKNS_6PxVec3EjhPKj
plg:_SortedList_GetEnumerator_m772783392
iMi:_StringBuilder__ctor_m3504405255
$4f:_Marshal__cctor_m4007734770
yFk:_GC_new_free_list_inner
aMh:_SymmetricTransform_Random_m2004892672
NCl:__ZL72RuntimeCompatibilityAttribute_t1169614002_CustomAttributesCacheGeneratorP21CustomAttributesCache
qne:__ZN5physx6shdfnd5ArrayINS_2Cm8Matrix34ENS0_19ReflectionAllocatorIS3_EEE15growAndPushBackERKS3_
QNg:_RSAManaged_DecryptValue_m1804388365
Vje:__ZN5physx2Gu32PCMConvexVsMeshContactGeneration31generatePolyDataContactManifoldERNS0_9TriangleVEjjhPNS0_21MeshPersistentContactERjRKNS_6shdfnd3aos6FloatVERNS8_5Vec3VE
pXg:_InternalEnumerator_1_System_Collections_IEnumerator_get_Current_m2980550840_AdjustorThunk
yze:__ZN5physx10SubSortSAH5splitEPjj
Bqh:_ObjectReader_ReadArrayOfPrimitiveType_m3374303005
Fs:__ZN25RuntimeAnimatorController8TransferI14SafeBinaryReadEEvRT_
MPc:__ZN8JSONRead8TransferI10RectOffsetEEvRT_PKc17TransferMetaFlagsb
k0:__ZN9JSONWrite8TransferIN11UnityEngine15CloudWebService14DataErrorEvent15FileErrorDetailEEEvRT_PKc17TransferMetaFlags
Fsg:_Int32_Parse_m2087562008
ofd:__ZN5physx2Gu3EPA8addFacetEjjjRKNS_6shdfnd3aos6FloatVES6_
r$c:__ZN14RotationModule8TransferI17RemapPPtrTransferEEvRT_
Y1f:_MonoProperty_GetAccessors_m412928203
Bzj:_TweenRunner_1_Start_m3757154622_gshared
nS:__ZN12SoundManager20RegisterModifiedClipEP10SampleClip
Boh:_RemotingServices_GetClientChannelSinkChain_m1499550585
TSf:_Assembly_FillName_m1660001542
rIl:__ZL56_EventBuilder_t2558055199_CustomAttributesCacheGeneratorP21CustomAttributesCache
Kbi:_SHA384Managed_processBlock_m1272529332
TU:__ZN11AudioSource4PlayEd
eFj:_X509Store_get_Crls_m1211262034
xfg:_Char_ToString_m278452217_AdjustorThunk
Ymd:__ZN5physx3Cct9CCTParamsC2Ev
$4j:__ZN15dense_hashtableI10KeyWrapperIPK17Il2CppGenericInstES4_N6il2cpp8metadata21Il2CppGenericInstHashEN14dense_hash_setIS4_S7_NS4_14EqualsComparerINS6_24Il2CppGenericInstCompareEEENSt3__29allocatorIS4_EEE8IdentityESB_SE_E13set_empty_keyERKS4_
HDj:_X509Certificate_get_RSA_m1755006809
qng:_Convert_ToDouble_m2924063577
rNd:__ZN5physx7NpCloth21setStiffnessFrequencyEf
qce:__ZN5physx17PxcSweepBoxConvexERKNS_11PxsCCDShapeES2_PKNS_12PxsRigidBodyES5_RKNS_11PxTransformES8_S8_S8_fRNS_6PxVec3ESA_RNS_10PxcNpCacheERNS_18PxcNpThreadContextEf
Kve:__ZThn8_N5physx2Gu11HeightField14onRefCountZeroEv
MRe:__ZN12TreeRenderer17UpdateShaderPropsERK27ScriptableCullingParametersf
zqd:__ZN5physx2Sc5Actor9setActiveEbj
Alf:__ZN13WheelCollider8TransferI18StreamedBinaryReadILb0EEEEvRT_
Ddd:__ZN12_GLOBAL__N_127SphereMeshContactGeneration15processTriangleEjRKN5physx6PxVec3ES4_S4_PKj
_Qe:__ZN13dynamic_arrayI4AABBLj4EE9push_backERKS0_
Veb:__ZN7Cubemap23VirtualRedirectTransferER18StreamedBinaryReadILb0EE
zBc:__ZNSt3__27__sort4IRNS_6__lessI11KeyframeTplIfES3_EEPS3_EEjT0_S7_S7_S7_T_
d0e:_Read_CVT
Vqd:__ZN5physx2Sc10NPhaseCore28reserveContactReportPairDataEjjRj
Udd:__ZN5physx2Gu22barycentricCoordinatesERKNS_6shdfnd3aos5Vec3VES5_S5_RNS2_6FloatVE
LYa:__ZN12FileAccessor4SeekEx10FileOrigin
FIb:__ZL26Transfer_SimpleNativeClassI24GenerateTypeTreeTransfer17AnimationCurveTplIfELb0EEvRK29SerializationCommandArgumentsR31RuntimeSerializationCommandInfo
MQc:__ZN8JSONRead21TransferSTLStyleArrayI13dynamic_arrayI9BoundsIntLj4EEEEvRT_17TransferMetaFlags
ahb:__ZN24GenerateTypeTreeTransfer8TransferI13dynamic_arrayI33EnlightenTerrainChunksInformationLj4EEEEvRT_PKc17TransferMetaFlags
SYh:_DateTimeFormatInfo__ctor_m3106345035
tQg:_TlsServerKeyExchange_verifySignature_m3412856769
hzi:_EqualityComparer_1_System_Collections_IEqualityComparer_GetHashCode_m4137147946_gshared
Sxe:__ZL18TestUnifiedNormalsjPKN5physx6PxVec3EjPNS_2Gu9TriangleTIjEEb
Ima:__ZN16LightmapSettings20DidChangeActiveSceneEP10UnitySceneS1_
CMe:__ZN14SplatMaterials16DestroyMaterialsEv
Mbk:__ZN6il2cpp5utils9PathUtils8BasenameIcEENSt3__212basic_stringIT_NS3_11char_traitsIS5_EENS3_9allocatorIS5_EEEERKSA_
Roh:_RemotingProxy__cctor_m4096951805
FIc:__Z35Register_UnityEngine_Event_get_typev
tsk:__ZN6il2cpp2vm9Exception23GetInvalidCastExceptionERKNS_5utils10StringViewIDsEE
Fqc:__ZN4NodeD2Ev
tue:__ZNK5physx13GuMeshFactory17getNbConvexMeshesEv
d8c:__ZN14ParticleSystem15InitializeClassEv
D6:__Z63ThreadAndSerializationSafeCheckGetMonoBehaviourBeingTransferredv
R2h:_StackTrace__ctor_m206492268
gYi:_List_1_set_Item_m4224739467_gshared
rLf:_ColorTween_set_startColor_m2562993758_AdjustorThunk
mVf:_ConstructorBuilder_get_Name_m2426555260
ZAc:__Z37Register_UnityEngine_Input_GetAxisRawv
CHj:_Parser_ParseCharacterClass_m4285351396
oog:_Convert_ToSByte_m2653418303
Ckg:_SyncHashtable__ctor_m2449935938
FU:__ZN11AudioSource5ResetEv
Wai:_RSAPKCS1SignatureFormatter_SetKey_m2935054088
S$b:__ZN12ImageFilters27SetSurfaceUseResolvedBufferEP13RenderTextureb
dHj:_Regex__ctor_m3948448025
tkb:__ZN14Texture2DArray23VirtualRedirectTransferER18StreamedBinaryReadILb0EE
Kqa:__ZN13TrailRenderer5ResetEv
SNi:_UTF7Encoding_GetByteCount_m209415911
Jxb:__ZN2UI13RectTransform13AwakeFromLoadE17AwakeFromLoadMode
iKj:_RegularExpression_Compile_m2385682508
k6h:_CompareInfo__cctor_m1837489679
skf:__ZN5physx23PxVehicleWheels4SimData26setSuspForceAppPointOffsetEjRKNS_6PxVec3E
O4b:__ZN14qsort_internal30FindAndMovePivotToLastPositionIP20ShadowCasterSortDatai26ShadowCasterSortDataSorterEEvT_S4_T0_T1_
F5j:__ZNK15dense_hashtableI10KeyWrapperIPK19Il2CppGenericMethodES4_N6il2cpp8metadata23Il2CppGenericMethodHashEN14dense_hash_setIS4_S7_NS4_14EqualsComparerINS6_26Il2CppGenericMethodCompareEEENSt3__29allocatorIS4_EEE8IdentityESB_SE_E3endEv
bCb:__Z18Transfer_BlittableI14SafeBinaryReadLb1EiEvRK29SerializationCommandArgumentsR31RuntimeSerializationCommandInfo
XSh:_X509ExtensionEnumerator_get_Current_m256207749
Mha:__GLOBAL__sub_I_modules_profiler_public_0_cpp
jwb:__ZN17PersistentManager13GetAllFileIDsERKN4core12basic_stringIcNS0_20StringStorageDefaultIcEEEER13dynamic_arrayIxLj8EE
Tag:_Array_Sort_m182264525
bwh:_LayoutGroup_set_padding_m282562135
QTf:_Default_IsArrayAssignable_m953489228
pUi:_UInt16_ToString_m355311020_AdjustorThunk
zHd:__ZN18MultiQueryCallbackIN5physx12PxOverlapHitEE6invokeERfPKNS0_2Sq13PrunerPayloadEj
Chd:__ZN5physx2Gu18gjkRelativeRayCastINS0_4BoxVES2_NS0_10ShrunkBoxVES3_EEbRT_RT0_RKNS_6shdfnd3aos15PsMatTransformVERKNS9_6FloatVERKNS9_5Vec3VESI_RSD_RSG_SK_fb
ml:_glGetStringi
Kji:_DecoderExceptionFallback_CreateFallbackBuffer_m1133375601
kwk:__ZNK15dense_hashtableI10KeyWrapperIP18Il2CppGenericClassES3_N6il2cpp8metadata22Il2CppGenericClassHashEN14dense_hash_setIS3_S6_NS3_14EqualsComparerINS5_25Il2CppGenericClassCompareEEENSt3__29allocatorIS3_EEE8IdentityESA_SD_E10test_emptyERK30dense_hashtable_const_iteratorIS3_S3_S6_SF_SA_SD_E
Cah:_Enumerator_get_CurrentKey_m889650866_gshared
w$j:_Physics_Raycast_m3133704280
$ue:__ZThn8_N5physx2Gu10ConvexMeshD0Ev
y9d:__ZNK5physx2Sq12BucketPruner7raycastERKNS_6PxVec3ES4_RfRNS0_14PrunerCallbackE
RI:__ZN8Animator9WriteStepEy
X0:__ZN11UnityEngine15CloudWebService20WebRequestRestClient18GetResponseHeadersEv
eib:__ZNSt3__23mapIN4core12basic_stringIcNS1_20StringStorageDefaultIcEEEE9PrefValueNS_4lessIS5_EENS_9allocatorINS_4pairIKS5_S6_EEEEEixERSB_
Woc:__ZN15DirectorManager22ConstructPlayableGraphEv
WBc:__ZN11PlayerPrefs8GetFloatERKN4core12basic_stringIcNS0_20StringStorageDefaultIcEEEEf
h7i:_Collection_1_ConvertItem_m1743542180_gshared
W6e:__Z38Register_UnityEngine_Font_HasCharacterv
L8b:__Z35IntersectSpherePlaneBoundsOptimizedRKN4math7_float4EPS1_i
bai:_RNGCryptoServiceProvider__cctor_m3587754670
Rod:__ZN5physx2Sc8ShapeSim20createLowLevelVolumeEjRKNS_9PxBounds3EjNS_9AABBMgrIdE
t3c:__ZN37InheritVelocityModulePropertyBindings13GetFloatValueERK14ParticleSystemi
QY:__ZN11AudioSource14SetSecPositionEf
wNd:__ZNK5physx7NpCloth22getAngularInertiaScaleEv
pjd:__ZN26IntersectAnyVsMeshCallbackILi1ELb1EE10processHitERKN5physx12PxRaycastHitERKNS1_6PxVec3ES7_S7_RfPKj
fma:__Z22CleanupLODGroupManagerPv
O4d:__ZN5physx6shdfnd5ArrayINS_2Sc5Scene14SimpleBodyPairENS0_19ReflectionAllocatorIS4_EEE8recreateEj
Xl:_glUniform3fv
qLk:__ZNK6il2cpp8metadata24Il2CppGenericInstCompareclERK10KeyWrapperIPK17Il2CppGenericInstES8_
htb:__ZNSt3__218__insertion_sort_3IRN15ResourceManager10Dependency6SorterEPS2_EEvT0_S6_T_
qTh:_X509ChainElement_Set_m655180762
buc:__ZNK8Gradient19InitializeOptimizedER17OptimizedGradient
iWk:_MonoBehaviour_StopCoroutine_m615723318
z3b:__ZNK16LightmapSettings31GetRealtimeLightmapDecodeValuesEv
HT:__ZN5audio5mixer12SetSuspendedERNS0_16AudioMixerMemoryEb
bxb:__ZN17PersistentManager21UnloadNonDirtyStreamsEv
Lrk:__ZN6il2cpp2vm13LivenessStateC2EP11Il2CppClassjPFvPP12Il2CppObjectiPvES7_PFvvESB_
tTk:_Input_GetButtonDown_m3074252807
sYj:_Canvas_get_overrideSorting_m2740418462
oQi:_Scheduler__ctor_m3313141270
Dlb:__ZN12ImageFilters4BlitER17ShaderPassContextP7TextureP13RenderTextureiPK18SharedMaterialDataPKcP6ShaderiNS_9BlitFlagsE11CubemapFaceRK8Vector2fSH_
jHe:__ZN5physx6shdfnd8PoolBaseINS_24NpPtrTableStorageManager8PtrBlockILi4EEENS0_19ReflectionAllocatorIS4_EEE12allocateSlabEv
Tdm:__ZL69CanvasScaler_t2767979955_CustomAttributesCacheGenerator_m_ScaleFactorP21CustomAttributesCache
bih:_ConfigHandler_CheckPath_m3079311646
L0:__ZN11UnityEngine15CloudWebService10RestClientINS0_23WebRequestRestHeaderMapEED2Ev
ase:__ZN5physx2Sc5Scene13ccdBroadPhaseEPNS_10PxBaseTaskE
sm:_emscripten_glDepthMask
Qje:__ZN5physx2Gu24PCMMeshContactGeneration15processContactsEhb
fph:_RemotingServices_CreateClientProxy_m3886727610
WHa:__ZN4crnd25static_huffman_data_model22prepare_decoder_tablesEv
hNd:__ZN5physx7NpCloth12setParticlesEPKNS_15PxClothParticleES3_
ZEe:__ZN5physx7profile8ZoneImplINS_28PxProfileNameProviderForwardEE9doAddNameEPKctb
CTg:_RecordProtocol_GetMessage_m2086135164
zHc:__Z23GUIStatePopDisplayIndexv
Nma:__Znaj
CEm:_emscripten_glEnableClientState__wrapper
vja:__ZN17MessageIdentifierC2EPKcNS_7OptionsEPKN5Unity4TypeES1_
aWk:_Mesh_SetTriangles_m1523451247
kgi:_Single_System_IConvertible_ToSByte_m1208276900
ufj:_Array_InternalArray__set_Item_TisVector4_t3319028937_m757305038_gshared
acl:__Z105RuntimeInvoker_Void_t1185182177_RuntimeObject_RuntimeObject_RuntimeObject_RuntimeObject_Int32_t2950945753PFvvEPK10MethodInfoPvPS4_
dee:__ZN5physxL26solveFriction4_StaticBlockEPKNS_23PxcSolverConstraintDescERNS_16PxcSolverContextE
eui:_Array_InternalArray__Insert_TisContactPoint_t3758755253_m151422964_gshared
TZ:__Z55Register_UnityEngine_AudioSource_get_spatializeInternalv
mVa:__ZN14SafeBinaryRead8TransferI14ConstantStringEEvRT_PKc17TransferMetaFlags
Jie:__ZN5physx30PxcGetMaterialShapeHeightFieldEPKNS_12PxsShapeCoreES2_RNS_18PxcNpThreadContextEPNS_15PxsMaterialInfoE
d_b:__ZNK6Camera16GetStereoEnabledEv
Kgl:__Z72RuntimeInvoker_Int32_t2950945753_TimeSpan_t881159249_TimeSpan_t881159249PFvvEPK10MethodInfoPvPS4_
bUg:_SendRecordAsyncResult_SetComplete_m153213906
ny:__ZN13AnimationClip9PPtrCurveaSERKS0_
Pxa:__ZL24FindBelongingStructParamRPKcRNSt3__26vectorIN9ShaderLab20SerializedSubProgram14ConstantBufferENS2_9allocatorIS6_EEEE
Okc:__ZN12LightManager15InitializeClassEv
Lse:__ZN5physx6shdfnd8PoolBaseINS_2Sc19ParticlePacketShapeENS0_19ReflectionAllocatorIS3_EEE12allocateSlabEv
rbb:__ZN9ShaderLab11shaderprops16GetComputeBufferEPK19ShaderPropertySheetS3_NS_16FastPropertyNameE
vDk:__ZN6il2cpp6icalls8mscorlib6System10Reflection10MethodBase31GetMethodFromHandleInternalTypeEii
k8:__ZN18ScriptingArgumentsC2Ev
Ymm:_WheelEffects_PlayAudio_m3493420585
Hzm:_emscripten_glBlendFuncSeparate__wrapper
Qvg:_FileSystemInfo__ctor_m3769019897
$jj:_Array_InternalArray__get_Item_TisContentType_t1787303396_m421427711_gshared
ZEa:__Z17HasSampledTexture14GraphicsFormat13formatSupport
s$b:__ZNK25CameraStackRenderingState27GetStereoImageEffectTextureEb
JIg:_HMACSHA384__ctor_m1677515580
Z9h:_RIPEMD160Managed_J_m1336489154
i9j:__ZN6il2cpp6icalls6System6System3Net7Sockets6Socket7ReceiveEiP11Il2CppArrayiiNS4_11SocketFlagsEPi
vuc:__ZN13BuildSettings13GetSceneIndexERKN4core12basic_stringIcNS0_20StringStorageDefaultIcEEEE
Dp:FUNCTION_TABLE_ii
h0a:__ZN10TagManager8TransferI18StreamedBinaryReadILb0EEEEvRT_
mMc:__Z18Transfer_BlittableI9JSONWriteLb0E8BitFieldEvRK29SerializationCommandArgumentsR31RuntimeSerializationCommandInfo
Oxg:_MemoryStream_set_Capacity_m1773624579
$nk:__ZNK15dense_hashtableINSt3__24pairIK10KeyWrapperINS1_IP11Il2CppClassjEEES4_EES6_N6il2cpp8metadata14ArrayClassHashEN14dense_hash_mapIS6_S4_SB_NS6_14EqualsComparerINSA_17ArrayClassCompareEEENS0_9allocatorIS8_EEE9SelectKeyESF_SH_E10test_emptyEj
Zsa:__ZNSt3__26vectorIN9ShaderLab20SerializedSubProgram15StructParameterENS_9allocatorIS3_EEE8__appendEj
Lb:invoke_diiii
BYh:_DateTime_ToString_m2992030064
uid:__ZL17sweepVolumeVsMeshPKN5physx3Cct9SweepTestEPKNS0_11TouchedMeshERNS0_12SweptContactERKNS_6PxVec3ERKNS_10PxGeometryERKNS_11PxTransformEjPKNS_10PxTriangleEj
uNe:__ZN13SplatDatabase8TransferI14SafeBinaryReadEEvRT_
cil:__Z95RuntimeInvoker_Void_t1185182177_RuntimeObject_RuntimeObject_SByte_t1669577662_SByte_t1669577662PFvvEPK10MethodInfoPvPS4_
cne:__ZN5physx2Gu31checkOverlapOBB_heightFieldGeomERKNS_10PxGeometryERKNS_11PxTransformERKNS0_3BoxE
NWa:__Z24CreateDirectoryRecursiveRKN4core12basic_stringIcNS_20StringStorageDefaultIcEEEE
Uxm:b41
tva:__ZN9ShaderLab20SerializedSubProgram8TransferI18StreamedBinaryReadILb0EEEEvRT_
VGc:__Z22MonoGUIContentToNative18ScriptingObjectPtrR10GUIContent
kbd:__ZN5physx2Gu23findRotationMatrixFromZERKNS_6PxVec3E
xB:__ZN26AnimatorControllerPlayable13GenerateGraphEv
Xia:__ZN13RuntimeStaticI21ScalableBufferManagerLb0EE13StaticDestroyEPv
C7e:__ZN2UI13CanvasManager9AddCanvasEPNS_6CanvasE
llb:__ZN9Texture3D8TransferI19StreamedBinaryWriteILb0EEEEvRT_
X$b:__ZNK6Camera22CalculateRenderingPathEv
GNc:__ZN9JSONWrite8TransferI5RectTIfEEEvRT_PKc17TransferMetaFlags
B3d:__ZN5physx13NpVolumeCache10invalidateEv
AK:__ZN11UnityEngine9Animation37SetGenericRootTransformPropertyValuesERKNS0_30AnimatorGenericBindingConstantERKN7mecanim10ValueArrayER9Transformbb
hOa:__Z13ConvertMipmap14GraphicsFormatPKvS_Pviiii
lHb:__ZL12InvokeMethodI17RemapPPtrTransferEvRK29SerializationCommandArgumentsR31RuntimeSerializationCommandInfo
NMe:__ZN14SplatMaterials6UpdateEPK11TerrainDataP8MaterialRA3_KPKcRK11ColorRGBA32f
clm:_TiltInput_OnDisable_m1131217228
iji:_StringComparer_Compare_m991165676
Plm:_AeroplaneController_set_Altitude_m3124734897
MZe:_tt_sbit_decoder_load_image
YBf:__Z47Register_UnityEngine_WheelCollider_GetGroundHitv
nzj:_U3CStartU3Ec__Iterator0_Dispose_m261027331_gshared
gPa:__ZN4core8hash_mapIPK17RenderSurfaceBaseP13RenderTexture19PointerHashFunctionIS3_ENSt3__28equal_toIS3_EEE6insertERKNS8_4pairIKS3_S5_EE
Jzf:__Z34setPxVehicleDriveTankMDriveSimDataPN5physx18PxVehicleDriveTankENS_21PxVehicleDriveSimDataE
tHc:__ZNSt3__24listIN10GUIManager12SortedScriptE11memory_poolIS2_EE6__sortI13OldSortScriptEENS_15__list_iteratorIS2_PvEESA_SA_jRT_
qpd:__ZN5physx6shdfnd5ArrayIPvNS0_19ReflectionAllocatorINS_2Sc10NPhaseCore16ClothListElementEEEE15growAndPushBackERKS2_
haj:_Collection_1_System_Collections_IList_Add_m3364892189_gshared
DYi:_List_1_AddEnumerable_m3500350831_gshared
Cmf:__ZN5physx23PxVehicleWheels4DynData17getBinaryMetaDataERNS_14PxOutputStreamE
BNg:_PrivateKeyInfo_get_PrivateKey_m3647771102
Qz:__ZN13AnimationClip8TransferI17RemapPPtrTransferEEvRT_
Yqk:__ZN6il2cpp6icalls8mscorlib6System9ThreadingL11ThreadStartEPv
Foa:__ZN15DirectorManager12OnSampleTimeEv
oqi:_Array_InternalArray__IndexOf_TisMark_t3471605523_m2905388260_gshared
vZf:_TypeBuilder_check_not_created_m3652863637
BHf:_StandaloneInputModule_UpdateModule_m450861257
iXj:_Font_add_textureRebuilt_m2164317336
Xrj:_ReadOnlyCollection_1_System_Collections_IList_Insert_m2928873627_gshared
QAi:_EqualityComparer_1__cctor_m314889309_gshared
Jfa:__ZN12CachedReader10Align4ReadEv
QZc:__ZN13dynamic_arrayIN9SubModule14SubEmitterDataELj4EE18resize_initializedEj12ResizePolicy
wDj:_X501__cctor_m2428304915
rYj:_Canvas_get_renderOrder_m1489855841
py:__Z14resize_trimmedINSt3__26vectorIN13AnimationClip10FloatCurveE13stl_allocatorIS3_L18MemLabelIdentifier26ELi16EEEEEvRT_j
Nsk:__ZN6il2cpp2vm9Exception28GetMarshalDirectiveExceptionEPKc
cMj:_Event_ToString_m1688862299
nUa:__ZNK9Behaviour22GetTypeVirtualInternalEv
fId:__ZN5physx2Sc14ConstraintCore13setBreakForceEff
Puf:__Z34setPxVehicleAutoBoxData_DownRatiosPN5physx20PxVehicleAutoBoxDataENS_18PxVehicleGearsData4EnumEf
$5h:_CCGregorianCalendar_month_from_fixed_m4268992710
Zoi:_Array_compare_TisUICharInfo_t75501106_m1310495481_gshared
v9b:__Z21GetScriptingArraySize17ScriptingArrayPtr
_2e:__ZN20TextRenderingPrivate8FontImpl8TransferI14SafeBinaryReadEEvRT_
p8c:__ZNSt3__27__sort4IRN10vector_mapIi22ParticleModulePropertyNS_4lessIiEENS_9allocatorINS_4pairIiS2_EEEEE13value_compareEPS7_EEjT0_SD_SD_SD_T_
Ufc:__ZN13TrailRenderer18PrepareRenderNodesILb1EEEvR35RenderNodeQueuePrepareThreadContext
N0d:__ZN5physx7NpScene15removeAggregateERNS_11PxAggregateEb
kqj:_ReadOnlyCollection_1_System_Collections_IList_Clear_m4022532825_gshared
sLi:_Encoding_get_ASCII_m3595602635
IBf:__ZN13WheelCollider14SetMotorTorqueEf
zMe:__ZN7Terrain23VirtualRedirectTransferER14SafeBinaryRead
oJe:__ZZN14PhysicsManager15InitializeClassEvEN63EarlyUpdatePhysicsResetInterpolatedTransformPositionRegistrator7ForwardEv
x_c:__ZN11ShapeModule18MultiModeParameterIN25IParticleSystemProperties8PropertyIfNS1_11ClampRadiusEEEE8TransferI14SafeBinaryReadEEvRT_
OBa:__ZN9GfxDevice17ImmediateTexCoordEifff
cmf:__ZNK5physx14PxVehicleDrive19getConcreteTypeNameEv
kWf:_DerivedType_GetCustomAttributes_m3536779709
CNl:__ZL93Interlocked_t2273387594_CustomAttributesCacheGenerator_Interlocked_CompareExchange_m388540288P21CustomAttributesCache
x_f:_MethodBase_get_IsAbstract_m428833029
OHb:__Z35Transfer_Blittable_FixedBufferFieldI24GenerateTypeTreeTransferhEvRK29SerializationCommandArgumentsR31RuntimeSerializationCommandInfo
Exm:_emscripten_glUniform4f__wrapper
h1f:_MonoMethod_GetBaseDefinition_m2844667474
gHi:_Enumerator_MoveNext_m2595190390_AdjustorThunk
dqe:__ZN5physx6shdfnd5ArrayINS_25PxcThresholdStreamElementENS0_19ReflectionAllocatorIS2_EEE8recreateEj
vqi:_Array_InternalArray__IndexOf_TisColor32_t2600501292_m3783551884_gshared
Q5:__ZNK6Camera16GetProjectionFarEv
as:__Z24InverseTransformRotationRK23TransformAccessReadOnlyRKN4math7_float4E
wEj:_X509Chain_Build_m2469702749
MU:__ZN11AudioSource6UpdateEv
gDh:_Selectable_OnPointerEnter_m3378734298
vdb:__ZNK14PlayableOutput11DerivesFromE17ScriptingClassPtr
Ieb:__ZN7Texture34CreateFileTextureUploadInstructionE18TextureUploadFlagsj
FPe:__ZN14TerrainManager26Heightmap_GetPxHeightFieldER9Heightmap
WPa:__ZN13ComputeShader14SetBufferParamEjRKN9ShaderLab16FastPropertyNameE15ComputeBufferID
xOd:__ZN5physx7NpCloth21setCollisionMassScaleEf
rne:__ZN5physx6shdfnd5ArrayINS_7PxPlaneENS0_19ReflectionAllocatorIS2_EEE8recreateEj
ZJe:__ZN13PhysicsModule17GetRigidBodyStateERK9RigidbodyPN8IPhysics14RigidBodyStateE
tZf:_TypeBuilder_DefineConstructor_m2989882735
sZa:__ZN25SingleBlockMemoryFileDataC2E10MemLabelIdPvjb
glk:__ZN15dense_hashtableINSt3__24pairIK10KeyWrapperINS1_IPK11Il2CppImageP11Il2CppClassEEEjEES9_17ReflectionMapHashIS8_EN14dense_hash_mapIS9_jSD_NS9_14EqualsComparerINS0_8equal_toIS8_EEEENS0_9allocatorISB_EEE9SelectKeyESI_SK_E15set_deleted_keyERKSB_
JL:__ZN8Animator8TransferI14SafeBinaryReadEEvRT_
vTd:__ZN5physx2Sc17ParticleSystemSim7releaseEb
cba:__Z23AsyncReadForceCloseFileRKN4core12basic_stringIcNS_20StringStorageDefaultIcEEEE
mC:__ZN17AnimationPlayable34CollectAnimatorControllerPlayablesER13dynamic_arrayIP26AnimatorControllerPlayableLj4EE
KX:__ZN16BaseVideoTexture19UpdateVideoTexturesEv
X0f:_MonoField_GetValue_m3124733531
G4a:__Z28BuildSingleStreamChannelInfo17ShaderChannelMaskRK20VertexChannelsLayoutS_S2_P11ChannelInfo
ifa:__ZNK16LightmapSettings23HasLightProbeTetrahedraEv
EUc:__ZNK18ColorBySpeedModule12UpdateSingleERK22ParticleSystemParticleR11ColorRGBA32
Rib:__ZN6Sprite23VirtualRedirectTransferER19StreamedBinaryWriteILb0EE
XDc:__Z38Transform_CUSTOM_INTERNAL_set_positionP12Il2CppObjectRK8Vector3f
mEf:_EventTrigger_Execute_m2453060771
$sj:_Comparison_1_Invoke_m517083441_gshared
$fk:__ZNK15dense_hashtableINSt3__24pairIK10KeyWrapperINS1_IPK9FieldInfoP11Il2CppClassEEEjEES9_17ReflectionMapHashIS8_EN14dense_hash_mapIS9_jSD_NS9_14EqualsComparerINS0_8equal_toIS8_EEEENS0_9allocatorISB_EEE9SelectKeyESI_SK_E5beginEv
aya:__ZNK9ShaderLab7Program19HasMatchingVariantsERK13dynamic_arrayI16ShaderKeywordSetLj4EE
EJ:__ZN15SerializeTraitsIN4math4trsXEE8TransferI8BlobSizeEEvRS1_RT_
IFa:__ZN14DataBufferGLES11CopySubDataEPKS_jjj
Oe:_emscripten_glVertexPointer
E9e:__ZN2UI13PrepareOutputERNS_7BatchesEjjNS_30AdditionalCanvasShaderChannelsE
Zbk:__ZN6il2cpp2vm7Runtime47RaiseExecutionEngineExceptionIfMethodIsNotFoundEPK10MethodInfo
eGj:_PatternCompiler_GetMachineFactory_m3758869886
r5b:__Z17GetFrustumPortionPK8Vector3fffPS_
esd:__ZNK5physx2Gu22SupportMapRelativeImplINS0_4BoxVEE18doWarmStartSupportEiRNS_6shdfnd3aos5Vec3VE
Ltk:__ZN15dense_hashtableINSt3__24pairIK10KeyWrapperIP14Il2CppIUnknownEjEES5_N6il2cpp5utils11PointerHashIS3_EEN14dense_hash_mapIS5_jSB_NS5_14EqualsComparerINS0_8equal_toIS4_EEEENS0_9allocatorIS7_EEE9SelectKeyESG_SI_E14squash_deletedEv
Q5a:__ZN5Light13AwakeFromLoadE17AwakeFromLoadMode
INj:_GUILayoutEntry_ApplyOptions_m1741659338
MTf:_Default_check_arguments_m3882727959
kgc:__ZN6Shader13GetDependencyERKN4core12basic_stringIcNS0_20StringStorageDefaultIcEEEE
Fza:__ZNK9GfxDevice27GetPlatformAdjustedViewportEv
rnj:_ReadOnlyCollection_1_System_Collections_Generic_IListU3CTU3E_set_Item_m88350439_gshared
ENe:__ZN14SafeBinaryRead21TransferSTLStyleArrayINSt3__26vectorI12TreeInstanceNS1_9allocatorIS3_EEEEEEvRT_17TransferMetaFlags
juj:_Func_3_Invoke_m1194147890_gshared
pOi:_UTF8Encoding_GetMaxCharCount_m3762459613
Fpj:_ReadOnlyCollection_1_System_Collections_ICollection_CopyTo_m2672196987_gshared
Epc:__ZN16StreamedResource8TransferI24GenerateTypeTreeTransferEEvRT_
N_k:_RectTransform_get_anchorMin_m2928307238
Hld:__ZN5physx3Cct10Controller13onOriginShiftERKNS_6PxVec3E
Ifg:_ArrayList__ctor_m3828927650
QDa:__ZThn9568_N13GfxDeviceGLES26EnableScissorRectsPlatformEv
SQa:__ZN10Matrix3x3f15InvertTransposeEv
UNj:_GUILayoutGroup_SetHorizontal_m996475327
LNj:_GUILayoutEntry__cctor_m663865902
B0c:__ZN14EmissionModule8TransferI19StreamedBinaryWriteILb0EEEEvRT_
zZb:__Z11IsBatchmodev
Nce:__ZN5physx2Gu19_gjkRelativeRayCastINS0_9TriangleVENS0_11ConvexHullVEEEbRT_RT0_RKNS_6shdfnd3aos15PsMatTransformVERKNS9_6FloatVERKNS9_5Vec3VESI_RSD_RSG_SK_f
XY:__Z50AudioSettings_CUSTOM_GetAmbisonicDecoderPluginNamev
NFb:__Z29Transfer_Blittable_ArrayFieldI14SafeBinaryRead8Vector3fEvRT_R9ArrayInfoRK23StaticTransferFieldInfo
Zn:FUNCTION_TABLE_vfii
ZXk:_PlayerPrefs_TrySetFloat_m2507302512
Cob:__ZN26SkinnedMeshRendererManager31HandlePreparationBreakingChangeER19SkinnedMeshRenderer
P3e:__ZN20TextRenderingPrivate8FontImpl18ResetCachedTextureEv
Bak:__ZN6il2cpp6icalls8mscorlib6SystemL16GetFieldFromTypeINS_5utils10functional6FilterINSt3__212basic_stringIcNS7_11char_traitsIcEENS7_9allocatorIcEEEENS4_13VmStringUtils21CaseSensitiveComparerEEEEEP21Il2CppReflectionFieldP11Il2CppClassSK_iRKT_
_he:__ZNK5physx19ActorAABBUpdateTask7getNameEv
Irf:__Z30getPxVehicleWheels_VehicleTypePKN5physx15PxVehicleWheelsE
oRh:_X509KeyUsageExtension_Decode_m3150759625
gGk:_GC_print_finalization_stats
zOj:_GUITargetAttribute_GetGUITargetAttrValue_m2954410352
tyc:__Z53Register_UnityEngine_Behaviour_get_isActiveAndEnabledv
$ag:_SimpleEnumerator_get_Current_m72361444
wr:__ZNSt3__26vectorIN4core12basic_stringIcNS1_20StringStorageDefaultIcEEEENS_9allocatorIS5_EEE8__appendEj
ZX:__ZN13ProduceHelperI10SampleClipLb0EE7ProduceE10MemLabelId18ObjectCreationMode
wsb:__ZN26PlayerSettingsSplashScreen8TransferI17RemapPPtrTransferEEvRT_
kJh:_ASN1_set_Value_m2803403806
Iak:__ZN6il2cpp6icalls8mscorlib6SystemL17CollectTypeFieldsINS_5utils10functional10TrueFilterEEEvP11Il2CppClassPKS7_iRNSt3__26vectorIP9FieldInfoNSB_9allocatorISE_EEEERKT_
Gsd:__ZN5physx3Scb5Scene20addArticulationJointERNS0_17ArticulationJointE
x1d:__ZN5physx7NpScene14resetFilteringERNS_12PxRigidActorEPKPNS_7PxShapeEj
Tgc:__Z13GetTagManagerv
D8f:_Hashtable__ctor_m1815022027
nOi:_UTF8Encoding_GetChars_m1433288684
K_j:__ZL10roundUp128PyS_
U_:__ZN11UnityEngine15CloudWebService17CloudJobSchedulerD0Ev
gCe:__ZN15CapsuleCollider23VirtualRedirectTransferER14SafeBinaryRead
Cub:__ZN18LoadSceneOperation7PerformEv
Z6d:__ZN5physx2Sc5Scene26setSimulationEventCallbackEPNS_25PxSimulationEventCallbackEh
XRi:_TimeZone_ToUniversalTime_m2789507578
NNh:_DictionaryNodeEnumerator_get_Value_m1345533116
zpi:_Array_IndexOf_TisUICharInfo_t75501106_m3198896198_gshared
_7e:__ZNK2UI11CanvasGroup22GetTypeVirtualInternalEv
VRg:_Context_get_Current_m2853615040
Nad:__ZL30GeomMTDCallback_CapsuleCapsuleRN5physx6PxVec3ERfRKNS_10PxGeometryERKNS_11PxTransformES5_S8_
b2d:__ZN5physx7NpScene23forceDynamicTreeRebuildEbb
cjd:__ZL18intersectAnyVsMeshILi0EEbPKN5physx2Gu6SphereEPKNS1_7CapsuleEPKNS1_3BoxERKNS1_13RTreeMidphaseERKNS0_11PxTransformERKNS0_11PxMeshScaleEP14LimitedResults
NHc:__Z21CleanupGlobalGUIStatev
ZSi:_Type_IsContextfulImpl_m3693603908
wzd:__ZN5physx14NpArticulation6wakeUpEv
prc:__ZNSt3__26vectorI14SubstanceInputNS_9allocatorIS1_EEE6assignIPS1_EENS_9enable_ifIXaasr21__is_forward_iteratorIT_EE5valuesr16is_constructibleIS1_NS_15iterator_traitsIS8_E9referenceEEE5valueEvE4typeES8_S8_
J8c:__Z49ParticleSystem_MainModule_CUSTOM_SetStartLifetimeP12Il2CppObjectR15MonoMinMaxCurve
pSa:__ZN22VertexDeclarationCache5ClearEv
UGg:_CspParameters__ctor_m3852972821
wcc:__ZN17PersistentManager12SetPathRemapERKN4core12basic_stringIcNS0_20StringStorageDefaultIcEEEES6_
RE:__Z27ProcessRootMotionEmptyMixerP35AnimationPlayableEvaluationConstantP32AnimationPlayableEvaluationInputP33AnimationPlayableEvaluationOutput
U6b:__ZN6Camera24PrepareCullingParametersERK23CameraCullingParameters13RenderingPathR11CullResults
Qjf:__ZN13WheelCollider23VirtualRedirectTransferER24GenerateTypeTreeTransfer
Ntc:__Z12SetIUISystemP9IUISystem
Pub:__ZN19RuntimeSceneManager22EndIntegrateMainThreadEP10UnitySceneNS_11LoadingModeE
Zgj:_Array_Sort_TisUICharInfo_t75501106_m3474449559_gshared
nHb:__Z26Transfer_UnityEngineObjectI17RemapPPtrTransferLb0EEvRK29SerializationCommandArgumentsR31RuntimeSerializationCommandInfo
bHj:_QuickSearch_GetShiftDistance_m2542665852
xjj:_Array_InternalArray__get_Item_TisCustomAttributeTypedArgument_t2723150157_m2639399822_gshared
BHh:_BigInteger_GenerateRandom_m3141592944
IJb:__Z29Transfer_Blittable_ArrayFieldI24GenerateTypeTreeTransfer4AABBEvRT_R9ArrayInfoRK23StaticTransferFieldInfo
eXh:_Interval_Contains_m1454846757
UOf:_Graphic_CacheCanvas_m1120385152
_ve:__ZN5physx20InternalTriangleMesh16allocateVerticesEj
Z5d:__ZN5physx2Sc16InteractionScene18releaseConstraintsEb
QXc:__Z15GetPositionMeshIL20MeshDistributionMode1ELb0E11ColorRGBA32EvRN4math8floatNx3ES4_RNS2_4pix4ERK13dynamic_arrayIS1_Lj4EERK14StrideIteratorI8Vector3fESF_RKSB_IT1_ERKS7_I16MeshTriangleDataLj4EERKS7_I11MeshAreaLUTLj4EERKfRKiST_R5RandNP12SkinMeshInfo
Zsh:_InputField_set_contentType_m1277230266
gge:__ZN5physx6shdfnd5ArrayINS_17PxcBroadPhasePairENS0_19ReflectionAllocatorIS2_EEE8recreateEj
Oom:_emscripten_GetProcAddress
Ka:invoke_fiiifii
jqm:_modff
ohd:__ZThn4_N16RayRTreeCallbackILi1ELb0EED1Ev
P8a:__ZN20SphericalHarmonicsL219AddDirectionalLightERKN4math7_float3ERKNS0_7_float4E
Iue:__ZN5physx13BigConvexDataD2Ev
woa:__Z26ScheduleJobForEachInternalR8JobFencePFvPvjES1_iPFvS1_E11JobPriority
kZb:__ZZ23InitPlayerLoopCallbacksvEN41PostLateUpdateProfilerEndFrameRegistrator7ForwardEv
Guc:__ZN9Scripting18RaiseMonoExceptionEPKcz
A7e:__ZN2UI13UIInstruction19ClearSharedMeshDataER8JobFence
_nc:__ZN10GameObject17WillHandleMessageERK17MessageIdentifier
eei:_StrongNamePublicKeyBlob_Equals_m3655422942
bfi:_SecurityContext__ctor_m1730177197
CZj:_RectTransformUtility_GetTransposed_m3952754222
llc:__ZN9ShaderLab16FastPropertyName15InitBy28BitHashEj
xSe:__ZN4Tree23VirtualRedirectTransferER18StreamedBinaryReadILb0EE
Eal:__Z96RuntimeInvoker_Void_t1185182177_Int32_t2950945753_Single_t1397266774_RuntimeObject_RuntimeObjectPFvvEPK10MethodInfoPvPS4_
PNg:_RSAManaged_get_PublicOnly_m405847294
e9g:_Enumerator_System_Collections_IDictionaryEnumerator_get_Key_m195047678_AdjustorThunk
qYj:_Canvas_get_pixelPerfect_m333060872
wmb:__ZN17PackedFloatVector12UnpackFloatsEPfiiii
kXc:__Z16EmitterStoreDataRKN4math8float3x3ERKNS_8float4x4ER23ParticleSystemParticlesRK19ParticleSystemStatejRNS_8floatNx3ESC_R5RandNfffbb
WH:__ZN17AnimationPlayable28UpdateInternalStateRecursiveILi3ELb0EEEvPK35AnimationPlayableEvaluationConstant
OCa:__ZN13GfxDeviceGLES21DestroyComputeProgramER12ObjectHandleI18ComputeProgram_TagPvE
AGj:_PatternCompiler_EmitIfDefined_m2075050865
E0h:_Decimal_System_IConvertible_ToInt64_m1446427516_AdjustorThunk
jma:__ZN17UniqueIDGenerator16DestroyPureIndexEj
RDg:_NotImplementedException__ctor_m3095902440
y9:__ZL21AppendNestedClassName17ScriptingClassPtrRN4core17string_with_labelILi1EEE
Gsa:__ZN14SafeBinaryRead21TransferSTLStyleArrayINSt3__26vectorIN9ShaderLab20SerializedSubProgram12UAVParameterENS1_9allocatorIS5_EEEEEEvRT_17TransferMetaFlags
c0:__ZN24TextDOMTransferWriteBaseI9JSONWriteE12PushMetaFlagEi
cOd:__ZN5physx7NpCloth22removeCollisionCapsuleEj
DIl:__ZL59_PropertyBuilder_t1366136710_CustomAttributesCacheGeneratorP21CustomAttributesCache
tLa:__ZN6prcoreL26RemapGenericIntegerToFloatI17TexFormatARGB888815TexFormatRFloatEEvPKNS_9InnerInfoE
$_i:_List_1__ctor_m808270210_gshared
_dk:__ZN6il2cpp2vm17TypeNameParseInfoD2Ev
CDi:_PrimeHelper_ToPrime_m3704362632_gshared
NR:__ZN4FMOD7Channel7setModeEj
kqe:__ZN5physx18PxsSolverStartTask16articulationTaskEv
BRe:__ZN12TreeRenderer11RenderBatchER14TreeBinaryTreefP21ImposterRenderTexture
O3k:_Vector2_get_right_m1027081661
Z4:__ZNK8Renderer8GetLayerEv
Qtd:__ZN5physx6shdfnd4sortIPvNS0_4LessIS2_EENS0_19ReflectionAllocatorINS_2Cm5BlockIS2_Lj16EEEEEEEvPT_jRKT0_RKT1_j
Lyg:_Stream_Close_m771352034
E1b:__ZNK6Camera20GetReplacementShaderEv
EHd:__ZN18MultiQueryCallbackIN5physx12PxRaycastHitEE6invokeERfPKNS0_2Sq13PrunerPayloadEj
uKk:__ZNSt3__26__treeINS_12__value_typeINS_12basic_stringIcNS_11char_traitsIcEENS_9allocatorIcEEEEPFvvEEENS_19__map_value_compareIS7_SA_NS_4lessIS7_EELb1EEENS5_ISA_EEE4findIS7_EENS_15__tree_iteratorISA_PNS_11__tree_nodeISA_PvEEiEERKT_
IIa:__ZL23stbir__calculate_memoryP11stbir__info
Aoc:__ZNK11LightProbes47GetNonTetrahedralizedProbeSetIndexOffsetAndSizeERK7Hash128
oWh:_Interpreter_Close_m126356671
Plb:__ZNK6Camera18GetRenderRectangleEv
GSh:_X509Chain_Reset_m1198177101
qhm:__ZL68AeroplaneUserControl4Axis_t4090860418_CustomAttributesCacheGeneratorP21CustomAttributesCache
akb:__ZN13sorted_vectorIN4core12basic_stringIcNS0_20StringStorageDefaultIcEEEENSt3__24lessIS4_EE13stl_allocatorIS4_L18MemLabelIdentifier81ELi16EEE4findIS4_EENS5_11__wrap_iterIPS4_EERKT_
tHj:_Parser_HandleExplicitNumericGroups_m1412234891
Yjj:_Array_InternalArray__get_Item_TisRaycastHit2D_t2279581989_m2440275162_gshared
pUf:_CustomAttributeNamedArgument_Equals_m1414002036
fPc:__ZL26Transfer_SimpleNativeClassI8JSONRead10RectOffsetLb1EEvRK29SerializationCommandArgumentsR31RuntimeSerializationCommandInfo
CUk:_Material_SetInt_m475299667
jbf:__Z44CanvasRenderer_CUSTOM_INTERNAL_CALL_SetColorP12Il2CppObjectRK10ColorRGBAf
Rdh:_Enumerator_MoveNext_m3045873697_AdjustorThunk
$Ei:_Enumerator_System_Collections_IEnumerator_Reset_m959124362_AdjustorThunk
TJf:_CanvasScaler_HandleScaleWithScreenSize_m3848620697
Anm:_CarSelfRighting_Update_m507945115
P4h:_Enum_ToObject_m121831801
Nye:__ZN5physx2Gu27computeBoundsAroundVerticesERNS_9PxBounds3EjPKNS_6PxVec3E
hRf:_Image_get_hasBorder_m3423344180
WLc:__Z18Transfer_BlittableI9JSONWriteLb1EsEvRK29SerializationCommandArgumentsR31RuntimeSerializationCommandInfo
D0d:__ZNK5physx7NpScene9getLimitsEv
Avc:__ZN9Transform16SetLocalRotationERK11Quaternionf
hde:__ZNK5physx2Gu29EPASupportMapPairRelativeImplINS0_9TriangleVENS0_8CapsuleVEE9doSupportERKNS_6shdfnd3aos5Vec3VERS7_SA_SA_
oOf:_FontData_set_richText_m993590067
VZb:__ZN13RenderManager37RenderCamerasWithScriptableRenderLoopEi
$ge:__ZN3MBP12updateObjectEjRK5IAABB
vBf:__ZN14VehiclesModule20SetupVehiclesManagerEv
NQi:_TimeSpan__ctor_m3689759052
Swd:__ZN5physx6shdfnd5ArrayINS_6PxVec3ENS0_19ReflectionAllocatorIS2_EEE15growAndPushBackERKS2_
NJ:__ZN7mecanim8skeleton25SkeletonPoseComputeLocalQEPKNS0_8SkeletonEPKNS0_13SkeletonPoseTIN4math4trsXEEEPS7_ii
Wxl:__Z37RuntimeInvoker_Enumerator_t3123848928PFvvEPK10MethodInfoPvPS4_
Swk:__ZN6il2cpp2os19ReleaseSocketHandleEj
XW:__ZN11AudioModule16GetDSPSampleRateEv
LWb:__ZN15InstancingProps11NewConstantERKN9ShaderLab16FastPropertyNameEj15ShaderParamTypehhjjP6Object
A4d:__ZN5physx2Sc5Scene20fireTriggerCallbacksEv
xsh:_InputField_get_characterValidation_m4196664041
lUc:__ZN14ParticleSystem4EmitEPS_RK21SubEmitterEmitCommand
$7e:__ZN2UI11CanvasGroup23VirtualRedirectTransferER19StreamedBinaryWriteILb0EE
wce:__ZN5physx2Gu18GJKRelativeRayCastERNS0_8CapsuleVERNS0_4BoxVERKNS_6shdfnd3aos15PsMatTransformVERKNS6_6FloatVERKNS6_5Vec3VESF_RSA_RSD_SH_fb
o6f:_Array_GetUpperBound_m4018715963
sBf:__ZN14VehiclesModule21GetColliderForVehicleEPN5physx16PxVehicleNoDriveEi
Tyk:__ZN6il2cpp2os5posix15PosixWaitObjectC2ENS2_4TypeE
R$b:__ZN6Camera21PostMultiCustomRenderENS_10RenderFlagEb
Pti:_Array_InternalArray__Insert_TisMonoResource_t4103430009_m1997865927_gshared
aci:_SHA512Managed_HashFinal_m2173184560
BPa:__ZN12_GLOBAL__N_112UploadImagesEP7ApiGLESjji14GraphicsFormatPKhjS2_iiii16TextureUsageModePh
zWb:__ZN23ShaderVariantCollection13WarmupShadersEv
njc:__ZN13ProduceHelperI9TransformLb0EE7ProduceE10MemLabelId18ObjectCreationMode
g9:__Z25GetCommonScriptingClassesv
lvb:__Z27scripting_gc_collect_unsafei
bNg:_MD5SHA1_HashFinal_m4115488658
aX:__ZN11AudioModule20SuspendVideoTexturesEv
eri:_Array_InternalArray__ICollection_Add_TisKeyValuePair_2_t71524366_m3468275433_gshared
hSj:_AudioSettings_InvokeOnAudioManagerUpdate_m4044425648
AZ:__Z59Register_UnityEngine_AudioExtensionManager_GetAudioListenerv
pYd:__ZN5physx13NpRigidStaticC2ERKNS_11PxTransformE
$Ib:__Z26Transfer_UnityEngineObjectI24GenerateTypeTreeTransferLb0EEvRK29SerializationCommandArgumentsR31RuntimeSerializationCommandInfo
ong:_Convert_ToDouble_m278900635
BWe:_UNITY_FT_GlyphLoader_CheckPoints
TQk:_DebugLogHandler_LogException_m302830419
Swg:_Stream_BeginRead_m2233539237
Ice:__ZN5physxL20PxcSweepBoxTrianglesERKNS_11PxsCCDShapeES2_RKNS_11PxTransformES5_S5_S5_fRNS_6PxVec3ES7_RNS_10PxcNpCacheERNS_18PxcNpThreadContextERKNS_2Cm23FastVertex2ShapeScalingERNS_2Gu9TriangleVEf
Xld:__ZN5physx3Cct15ObstacleContextD0Ev
R2a:__ZN15SharedLightData7PrecalcEv
pba:__ZN10Matrix4x4fmLERKS_
zZk:_Vector2__ctor_m3970636864
xMb:__Z35Transfer_Blittable_FixedBufferFieldI18StreamedBinaryReadILb1EEsEvRK29SerializationCommandArgumentsR31RuntimeSerializationCommandInfo
k5h:_Environment_InternalGetFolderPath_m468390978
kYa:__ZN15ArchiveReadFileD0Ev
Aef:__ZN11UnityEngine15PlatformWrapper18GetOperatingSystemEv
Lfi:_SecurityFrame_ToString_m339310712
r5d:__ZN5physx3Scb9Aggregate9syncStateERNS0_5SceneE
yOf:_FontUpdateTracker_RebuildForFont_m3134452007
Wqg:_NumberFormatter_FormatDecimal_m1921932981
Pak:__ZN6il2cpp6icalls8mscorlib6System8MonoType19GetGenericArgumentsEP20Il2CppReflectionType
hga:__ZN8DrawUtil36DrawLineOrTrailMultipleFromNodeQueueERK15RenderNodeQueueRK18RenderMultipleData17ShaderChannelMask
cIf:_TouchInputModule_ProcessTouchPress_m3504077560
SRc:__ZN22ParticleSystemRenderer13BoundsChangedEv
bDh:_Selectable_IsInteractable_m2611421038
eWe:_FT_MSB
fuh:_Selectable_UpdateSelectionState_m682863465
TBm:_emscripten_glReadPixels__wrapper
TDi:_HashSet_1_Add_m1971460364_gshared
zmc:__ZZL23RegisterLightPropertiesR22GenericPropertyBindingEN29Wrapper_LightShadowNormalBias13GetFloatValueEPv
IKk:__ZN6il2cpp6icalls8mscorlib4Mono8Security12Cryptography18KeyPairPersistence10_CanSecureEP12Il2CppString
bli:_Array_InternalArray__ICollection_Contains_TisParameterModifier_t1461694466_m1000453323_gshared
_Cd:__ZN5physx7NpActor17resolveReferencesERNS_24PxDeserializationContextE
EKe:__ZN9Rigidbody15InitializeClassEv
Jvi:_Dictionary_2_System_Collections_ICollection_CopyTo_m4047192178_gshared
D9h:_RIPEMD160Managed_Initialize_m2173168986
gDk:__ZNSt3__212basic_stringIDsNS_11char_traitsIDsEENS_9allocatorIDsEEE9push_backEDs
z0c:__ZN13InitialModule8TransferI19StreamedBinaryWriteILb0EEEEvRT_
_kc:__ZN9TransformC2E10MemLabelId18ObjectCreationMode
_ya:__ZN13GfxDeviceGLES14SetRasterStateEPK17DeviceRasterState
YSf:_Assembly_ToString_m2053237013
kVk:_Vector4_Equals_m1779210055
opd:__ZN5physx6shdfnd8internal8HashBaseINS0_4PairIKPKNS_2Sc8ShapeSimENS4_10NPhaseCore16ClothListElementEEES7_NS0_4HashIS7_EENS1_11HashMapBaseIS7_SA_SD_NS0_9AllocatorEE6GetKeyESF_Lb1EE5eraseERS8_
vYe:_otv_Coverage_get_count
Vod:__ZN5physx5Elems17setStaticAABBDataEjRKNS_17PxcAABBDataStaticE
gca:__ZN14SafeBinaryRead11EndTransferEv
NDb:__ZN14SafeBinaryRead8TransferI8MonoPPtrEEvRT_PKc17TransferMetaFlags
F4h:_Enum_System_IConvertible_ToUInt16_m4216751959
G1c:__ZN11MinMaxCurve11ResetCurvesEv
Tfm:__ZL61AeroplaneAiControl_t3513225471_CustomAttributesCacheGeneratorP21CustomAttributesCache
Gti:_Array_InternalArray__Insert_TisInt32_t2950945753_m4073217122_gshared
xdh:_Enumerator_get_Current_m2897627569_AdjustorThunk
qlg:_SortedList_Remove_m2784369438
GHa:__ZN4crnd12crn_unpacker10unpack_dxnEPPhjjj
Sea:__Z11FormatBytesx
Q9:__ZN14SerializedFileD2Ev
vIc:__Z30Event_Get_Custom_PropModifiersP12Il2CppObject
bvd:__ZN5physx6shdfnd5ArrayIPvNS0_16AlignedAllocatorILj64ENS0_9AllocatorEEEE15growAndPushBackERKS2_
mPd:__ZN5physx6shdfnd5ArrayINS_35PxClothParticleSeparationConstraintENS0_19ReflectionAllocatorIS2_EEE6resizeEjRKS2_
BC:__ZN7mecanim9animation16CreateClipOutputEPKNS0_4ClipERNS_6memory9AllocatorE
Zyh:_RawImage_get_mainTexture_m2396337033
h$c:__ZN27ParticleSystemEmissionBurst8TransferI24GenerateTypeTreeTransferEEvRT_
Wek:__ZN6il2cpp2vm10Reflection17GetAssemblyObjectEPK14Il2CppAssembly
kld:__ZN5physx3Cct12SweptCapsuleC2Ev
ira:__ZN6Shader21AwakeFromLoadThreadedEv
vKa:__ZN6prcoreL17RemapGenericFloatI17TexFormatRGBFloat17TexFormatRGBAHalfEEvPKNS_9InnerInfoE
wHh:_BigInteger__ctor_m3991350270
B3k:_Vector2_GetHashCode_m3916089713_AdjustorThunk
ZHe:__ZN5physx24PxcContactBoxHeightFieldERKNS_2Gu13GeometryUnionES3_RKNS_11PxTransformES6_RKfRNS_10PxcNpCacheERNS0_13ContactBufferE
ULk:__ZN6il2cpp2os9SemaphoreC2Eii
PDb:__ZNSt3__26vectorI8MonoPPtr13stl_allocatorIS1_L18MemLabelIdentifier1ELi16EEE8__appendEj
u0b:__ZN14qsort_internal30FindAndMovePivotToLastPositionIP17RODataReplacementi19ROSorterReplacementEEvT_S4_T0_T1_
KQa:__ZN15UniformTFMethod20IsBoneCountSupportedEi
Rhe:__ZNK5physx23AggregateAABBUpdateTask7getNameEv
qWi:_UnauthorizedAccessException__ctor_m246605039
Oum:dynCall_viidi
w8:__ZN24ScriptingMethodFiltering17FilterOnSignatureENS_18MethodSearchFilterE
T0c:__ZN11TrailModule8TransferI19StreamedBinaryWriteILb0EEEEvRT_
Mte:__ZN5physx13NpClothFabric16scaleRestlengthsEf
Wbc:__ZN18ScreenManagerWebGL13SetLockCursorE14CursorLockMode
CVe:_cf2_arrstack_finalize
UDj:_X509Certificate_VerifySignature_m3538124832
_4c:__ZL37ParticleGeomBillboardFacingOrVelocityIL25ParticleSystemRenderSpace4ELb0EEvRKN4math8floatNx3ES4_S4_S4_S4_RKNS1_8float3x3ES4_S4_S4_RKNS1_8floatNx2ES4_RS2_SB_PS2_
EMi:_StringBuilder_Append_m1640838743
Pyg:_StreamAsyncResult_SetComplete_m1102187093
Nic:__ZN13MonoBehaviour19HandleNotificationsEPviR11MessageData
w_k:_RectOffset_Init_m2028508611
YZd:__ZN5physx6shdfnd5ArrayIPNS_2Sc17ParticleSystemSimENS0_19ReflectionAllocatorIS4_EEE8recreateEj
$1i:_List_1_System_Collections_IList_Remove_m4226673807_gshared
mOg:_Alert__ctor_m3135936936
etg:_Int64_System_IConvertible_ToInt32_m772105781
LAj:_TlsClientSettings__ctor_m3220697265
Xik:__ZNK15dense_hashtableINSt3__24pairIK10KeyWrapperINS1_IPK9EventInfoP11Il2CppClassEEEjEES9_17ReflectionMapHashIS8_EN14dense_hash_mapIS9_jSD_NS9_14EqualsComparerINS0_8equal_toIS8_EEEENS0_9allocatorISB_EEE9SelectKeyESI_SK_E23find_position_with_hashERSA_j
mym:b58
Hjj:_Array_InternalArray__get_Item_TisSByte_t1669577662_m2349608172_gshared
$ui:_Dictionary_2_make_pair_m2250450206_gshared
WLi:_ForwardingDecoder_GetChars_m4228908854
JWh:_InterpreterFactory_get_GroupCount_m2226373271
hym:b53
eym:b50
fym:b51
Mle:__ZN5physx9PxTaskMgrD0Ev
lym:b57
iym:b54
jym:b55
z6f:_X509Certificate_get_RawData_m2387471414
nAm:_glDetachShader__wrapper
gbg:_ArrayTypeMismatchException__ctor_m3375008173
Zbh:_Transform_1_BeginInvoke_m1757796657_gshared
tsl:__Z88RuntimeInvoker_Int32_t2950945753_UIVertex_t4057497605_UIVertex_t4057497605_RuntimeObjectPFvvEPK10MethodInfoPvPS4_
qnc:__ZN10GameObject12CleanupClassEv
Nxd:__ZN5physx3Scb5Scene13addRigidNoSimINS0_11RigidStaticELb0ELb1EEEvRT_RNS0_13ObjectTrackerE
Oza:__ZN9GfxDevice25SetShaderPropertiesSharedERK19ShaderPropertySheet
XIf:_BaseMeshEffect_get_graphic_m1852367505
Big:_CaseInsensitiveHashCodeProvider_GetHashCode_m2168170016
eHa:__ZN18AsyncUploadManager19AsyncResourceUploadER9GfxDeviceii9TextureID
Xlc:__ZL25InitializeDefaultMaterialv
Kbf:__Z53Register_UnityEngine_CanvasRenderer_get_materialCountv
a_f:_PropertyBuilder_GetCustomAttributes_m3798356764
Q2f:_PropertyInfo_get_MemberType_m2794839864
a8g:_Comparer_1_System_Collections_IComparer_Compare_m4179495191_gshared
xWa:__ZN17PersistentManager12UnloadStreamERKN4core12basic_stringIcNS0_20StringStorageDefaultIcEEEEb
jBf:__Z14UpdateVehiclesf
aQf:_GraphicRegistry__cctor_m1805310505
kv:__ZN15SerializeTraitsI9OffsetPtrIN7mecanim9animation17BlendTreeConstantEEE8TransferI19StreamedBinaryWriteILb0EEEEvRS4_RT_
oui:_Array_InternalArray__Insert_TisUICharInfo_t75501106_m2924156520_gshared
Wqi:_MonoProperty_GetterAdapterFrame_TisRuntimeObject_TisRuntimeObject_m458718082_gshared
zRc:__Z43ParticleSystemRenderer_RenderMultipleMeshesIL21SpriteMaskInteraction2EEvRK15RenderNodeQueueRK18RenderMultipleData17ShaderChannelMask
cnk:_il2cpp_unity_liveness_calculation_from_statics
iG:__ZNK26AnimatorControllerPlayable11DerivesFromE17ScriptingClassPtr
lZh:_DateTime_get_Minute_m87527789_AdjustorThunk
x5g:_InternalEnumerator_1_System_Collections_IEnumerator_get_Current_m2649471526_gshared
Cfa:__ZN8Renderer8TransferI17RemapPPtrTransferEEvRT_
soc:__Z27AddMeshIntermediateRendererRK10Matrix4x4fP4Mesh4PPtrI8MaterialEi17ShadowCastingModebiyRKi
mza:__ZN13GfxDeviceGLES26UpdateViewProjectionMatrixEv
a9g:_Enumerator_System_Collections_IDictionaryEnumerator_get_Entry_m522483686_gshared
rLh:_PrivateKeyInfo_RemoveLeadingZero_m3921889925
vPi:_Thread_get_CurrentContext_m1695017876
WTj:__ZL24UnresolvedVirtualCall_71P12Il2CppObjectS0_S0_iS0_S0_S0_PK10MethodInfo
_6k:__Z68RuntimeInvoker_Int32_t2950945753_Int16_t2552820387_Int32_t2950945753PFvvEPK10MethodInfoPvPS4_
kPd:__ZNK5physx2Sc9ClothCore16getCollisionDataEPNS_22PxClothCollisionSphereEPjPNS_21PxClothCollisionPlaneES4_PNS_24PxClothCollisionTriangleE
U9b:__Z24LookRotationToQuaternionRK8Vector3fS1_P11Quaternionf
S9b:__ZN16ReflectionProbes9GetCameraEv
GYc:__ZN22ParticleSystemRenderer8TransferI14SafeBinaryReadEEvRT_
kaf:__ZN2UI6Canvas17SetSortingLayerIDEi
Qyk:__ZN6il2cpp2vm11MethodStack23CleanupForCurrentThreadEv
ylj:_Collection_1_ConvertItem_m618594517_gshared
kpg:_Convert_ToUInt64_m388601487
N3a:__ZN20TierGraphicsSettings8TransferI24GenerateTypeTreeTransferEEvRT_
C6j:__ZN15dense_hashtableINSt3__24pairIK10KeyWrapperIN6il2cpp5utils13dynamic_arrayIPK10Il2CppTypeLj4EEEEPFvvEEESA_NS3_8metadata19Il2CppSignatureHashEN14dense_hash_mapISA_SD_SG_NSA_14EqualsComparerINSF_22Il2CppSignatureCompareEEENS0_9allocatorISE_EEE9SelectKeyESK_SM_E16reset_thresholdsEv
HVk:_Mesh_get_vertices_m3585684815
APe:__ZN13SplatDatabaseD2Ev
CFb:__ZN14SafeBinaryRead21TransferSTLStyleArrayI13dynamic_arrayI4AABBLj4EEEEvRT_17TransferMetaFlags
RPj:_AesTransform_Decrypt128_m3018534522
abc:__ZN26CustomRenderTextureManager25UpdateCustomRenderTextureEP19CustomRenderTexturei
Apa:__ZNSt3__26__treeINS_12__value_typeIiN11TypeManager18TypeCallbackStructEEENS_19__map_value_compareIiS4_NS_4lessIiEELb1EEENS_9allocatorIS4_EEE7destroyEPNS_11__tree_nodeIS4_PvEE
vpc:__ZNK14PlayableOutput23GetSourcePlayableUnsafeEv
xdf:__ZN11UnityEngine7Connect17XRDeviceInfoEventD0Ev
IJl:__ZL60SoapTypeAttribute_t1750930817_CustomAttributesCacheGeneratorP21CustomAttributesCache
bTc:__ZN14ParticleSystem8Update1bER24ParticleSystemUpdateDatafNS_11UpdateFlagsEi
Nsf:__ZN5physx2Sn21RepXVisitorWriterBaseINS_22PxVehicleWheelsSimDataEE23extendedIndexedPropertyINS_3Pvd36PxPvdExtendedIndexedPropertyAccessorILj620ES2_KjiEEKNS_18PxUnknownClassInfoEEEvPjRKT_RT0_
FTf:_Binder_ConvertArgs_m2124461494
r3:__ZN21UnityDefaultAllocatorI17LowLevelAllocatorE10DeallocateEPv
rBm:b86
t6a:__ZN15SharedLightData22UpdateCookieTextureRefEv
Yy:__ZN15PackedIntVector8TransferI14SafeBinaryReadEEvRT_
Q3k:_Vector3__ctor_m3353183577_AdjustorThunk
JZg:_InternalEnumerator_1_System_Collections_IEnumerator_get_Current_m1514266661_gshared
dBd:__ZNK5physx19NpArticulationJoint20getTangentialDampingEv
aNg:_MD5SHA1_Initialize_m675470944
Sri:_Array_InternalArray__ICollection_Add_TisKeyframe_t4206410242_m442111799_gshared
C$i:_List_1_CheckMatch_m3263549496_gshared
pQ:__ZN13AudioListener8DoUpdateEv
Z9c:__ZN5physx3Cct10Controller22setUpDirectionInternalERKNS_6PxVec3E
iKc:__ZN5Unity9rapidjson13GenericReaderINS0_4UTF8IcEES3_13JSONAllocatorE9ParseTrueILj1ENS0_25GenericInsituStringStreamIS3_EENS0_15GenericDocumentIS3_S4_S4_EEEEvRT0_RT1_
ymg:__Z13bankers_roundd
lsb:__ZN14SafeBinaryRead8TransferI5RectTIfEEEvRT_PKc17TransferMetaFlags
_i:_emscripten_glGenFramebuffers
upa:__ZN17BaseObjectManager16StaticInitializeEPv
_qa:__ZN13TrailRenderer18TransferDeprecatedI14SafeBinaryReadEEvRT_
hKi:_List_1_CheckCollection_m2602703205_gshared
CMc:__Z18Transfer_BlittableI9JSONWriteLb0EyEvRK29SerializationCommandArgumentsR31RuntimeSerializationCommandInfo
Dab:__ZN13RenderTexture15ThreadedCleanupEv
aSh:_X509BasicConstraintsExtension__ctor_m3721156175
Vdb:__ZN12CubemapArray23VirtualRedirectTransferER14SafeBinaryRead
k2j:__ZN6il2cpp2vm5Class12IsSubclassOfEP11Il2CppClassS3_b
YPd:__ZNK5physx2Sc9ClothCore23getNbCollisionTrianglesEv
Uf:___cxa_free_exception
qvg:_Path_GetFileName_m1354558116
p$j:_Physics_Raycast_m4145022031
gMd:__ZN5physx7NpShape16setFlagsInternalENS_7PxFlagsINS_11PxShapeFlag4EnumEhEE
lzm:_emscripten_glUniform3i__wrapper
e_k:_Rect_Contains_m1232228501_AdjustorThunk
lCc:__Z43RectTransform_CUSTOM_INTERNAL_set_sizeDeltaP12Il2CppObjectRK13Vector2fIcall
eid:__ZN5physx2Gu30distanceSegmentTriangleSquaredERKNS_6shdfnd3aos5Vec3VES5_S5_S5_S5_RS3_S6_
ntg:_Int64_System_IConvertible_ToType_m3223988955_AdjustorThunk
Iuk:__ZN15dense_hashtableINSt3__24pairIK10KeyWrapperINS1_IPKcS4_EEEiEES6_24NamespaceAndNamePairHashN14dense_hash_mapIS6_iS9_NS6_14EqualsComparerI26NamespaceAndNamePairEqualsEENS0_9allocatorIS8_EEE9SelectKeyESD_SF_E6insertERKS8_
zfa:__ZN24GenerateTypeTreeTransfer18BeginArrayTransferEPKcS1_Ri17TransferMetaFlags
J4k:_Vector4__cctor_m2519631228
Vjj:_Array_InternalArray__get_Item_TisPlayableBinding_t354260709_m3837494573_gshared
Ym:___syscall51
Tii:_String_CreateString_m4016935005
PFj:_MatchCollection_get_FullList_m1829231879
an:___syscall54
W9f:_Array_GetValue_m2528415604
dPd:__ZN5physx2Sc9ClothCore14updateBulkDataERNS0_13ClothBulkDataE
l$k:_Transform_INTERNAL_CALL_TransformPoint_m4261269221
r9h:_Guid_AppendShort_m791023083
Y$i:_List_1__ctor_m4212503576_gshared
blm:_TiltInput_Update_m223364922
jya:__ZN9ShaderLab9SubShader19CreateFromSubShaderERKS0_
IUk:_Mathf_Acos_m3996105394
CWe:_cff_builder_add_point1
wCb:__Z18Transfer_BlittableI14SafeBinaryReadLb0E10ColorRGBAfEvRK29SerializationCommandArgumentsR31RuntimeSerializationCommandInfo
o2c:__ZN21InheritVelocityModuleD2Ev
Ga:invoke_iiiiiiiiii
RY:__ZN11AudioSource25GetNumExtensionPropertiesEv
hti:_Array_InternalArray__ICollection_CopyTo_TisUILineInfo_t4195266810_m104406798_gshared
qfg:_Char_ToLowerInvariant_m1926695830
FQk:_Debug_LogErrorFormat_m3558239521
Dub:__ZN18LoadSceneOperation19IntegrateTimeSlicedEi
Rth:_InputField_ActivateInputFieldInternal_m3360893886
WO:__ZN4FMOD7SystemI11createSoundEPKcjP22FMOD_CREATESOUNDEXINFOPPNS_5SoundE
_jf:__ZN13WheelCollider11PoseChangedEb
PPk:_Component_get_gameObject_m442555142
z9:__ZN16ScriptingManager24NotifyScriptCacheReleaseEi
PZc:__ZN13dynamic_arrayIN9SubModule14SubEmitterDataELj4EE9push_backERKS1_
lyc:__Z47Register_UnityEngine_Coroutine_ReleaseCoroutinev
Lxd:__ZN10ScSceneFnsIN5physx3Scb11RigidStaticEE6insertERNS0_2Sc5SceneERS2_
aR:__ZN15AudioReverbZone13SetFMODValuesEv
i7:__ZN14SafeBinaryRead4InitERK16TypeTreeIteratorxx24TransferInstructionFlags10MemLabelId
Fqa:__ZL19StaticDestroyShaderPv
Je:_glRenderbufferStorageMultisample
epc:__ZN8Playable4PlayEv
JOh:_DefaultCertificatePolicy_CheckValidationResult_m3811448269
Skg:_SyncHashtable_Clone_m3726939774
ZUk:_Mathf_Clamp_m2756574208
tH:__ZN23AnimationPlayableOutput17SetTargetAnimatorEP8Animator
ZNc:__ZN9JSONWrite8TransferI13dynamic_arrayIN4math12int3_storageELj4EEEEvRT_PKc17TransferMetaFlags
cjm:_VirtualAxis_Remove_m3159277484
K2b:__ZN22MotionVectorRenderLoopD2Ev
Rul:__Z67RuntimeInvoker_Void_t1185182177_Int32_t2950945753_Touch_t1921856868PFvvEPK10MethodInfoPvPS4_
xid:__ZN5physx2Gu20sweepCCTBoxTrianglesEjPKNS_10PxTriangleEbRKNS_13PxBoxGeometryERKNS_11PxTransformERKNS_6PxVec3EfRSA_SD_RfRjPKjfNS_7PxFlagsINS_9PxHitFlag4EnumEtEE
Wbd:__ZN5physx2Gu15OBBTriangleTestC2ERKNS0_3BoxE
Zkf:__ZN5physx22PxVehicleWheelsDynData14setToRestStateEv
EVc:__Z25EvaluateRandomGradientHDRIL12GradientMode0ELS0_0EEN4math8floatNx4ERK14MinMaxGradientRKNS1_7_float4ES8_
Edd:__ZN5physx2Gu21computeMTD_SphereMeshERNS_6PxVec3ERfRKNS0_6SphereERKNS_22PxTriangleMeshGeometryERKNS_11PxTransformE
_qi:_Array_InternalArray__ICollection_Add_TisClientCertificateType_t1004704908_m2622721177_gshared
Xr:__Z18TransformDirection23TransformAccessReadOnlyRKN4math7_float3E
xpd:__ZN5physx2Sc10NPhaseCore15fetchFilterPairEPv
uze:__ZN5physx12SubSortQuick5sort4EPjjRNS_6shdfnd5ArrayINS_11RTreeNodeNQENS2_19ReflectionAllocatorIS4_EEEERjRNS_10PxBounds3VEj
gFc:__Z37Register_UnityEngine_Screen_get_widthv
bwd:__ZN5physx6shdfnd5ArrayIPNS_2Sc8BodyCoreENS0_19ReflectionAllocatorIS4_EEE15growAndPushBackERKS4_
dLj:_Uri_get_Authority_m3816772302
tqc:__ZN22BlockMemoryCacheWriter11GetPathNameEv
gLg:_BigInteger_op_Division_m3713793389
D1k:_Touch_get_position_m3109777936
ege:__ZN5physx16PxsBroadPhaseMBPC2ERNS_19PxcScratchAllocatorERNS_2Cm13EventProfilerERKNS_11PxSceneDescEPNS_14PxsAABBManagerE
$1f:_ParameterInfo__ctor_m3269320476
rDe:__ZN14PhysicsManager23VirtualRedirectTransferER14SafeBinaryRead
alf:__ZN5physx25PxVehicleConstraintShader36vehicleSuspLimitConstraintSolverPrepEPNS_14Px1DConstraintERNS_6PxVec3EjRNS_24PxConstraintInvMassScaleEPKvRKNS_11PxTransformESB_
bVh:_X509SubjectKeyIdentifierExtension_FromHexChars_m3244835916
wgi:_Single_CompareTo_m2785801815
DCj:_PKCS12_MAC_m3355614022
CVi:_UInt64_System_IConvertible_ToInt16_m3895479143_AdjustorThunk
Ijf:__ZN13WheelCollider13AwakeFromLoadE17AwakeFromLoadMode
iFd:__ZN5physx7NpActor14onActorReleaseEPNS_7PxActorE
zld:__ZN5physx3Cct26CharacterControllerManager19computeInteractionsEfPNS_26PxControllerFilterCallbackE
nq:stackAlloc
tud:__ZN5physx6shdfnd8PoolBaseINS_2Cm5BlockIhLj256EEENS0_19ReflectionAllocatorIS4_EEE12allocateSlabEv
Fyc:__Z44Camera_CUSTOM_INTERNAL_CALL_ScreenPointToRayP12Il2CppObjectRK8Vector3fR3Ray
vZa:__ZN25SingleBlockMemoryFileData4LockEPPv
ZCm:_glProgramParameteri__wrapper
d7:__ZN17PersistentManager23PostReadActivationQueueEiPK8TypeTreeb
iAc:__Z32RectOffset_Get_Custom_PropBottomP12Il2CppObject
CQk:_Debug_LogError_m2850623458
hcj:_Collection_1_CheckWritable_m3225530705_gshared
xDm:_emscripten_glGetObjectParameterivARB__wrapper
vqm:_stat
Uda:__ZN9ShaderLab10SubProgram7CompileEv
NWb:__ZN15InstancingProps14CombineBuiltinEN10Instancing11BuiltinPropES1_S1_
VZf:_PropertyBuilder_get_CanRead_m3783190070
Axi:_DefaultComparer_Equals_m3770904334_gshared
fri:_Array_InternalArray__ICollection_Add_TisKeyValuePair_2_t3699644050_m4052349323_gshared
vPg:_CipherSuiteCollection_System_Collections_IList_get_Item_m2175128671
$Wb:__ZNSt3__218__insertion_sort_3IRNS_4lessIN22BuiltinResourceManager8ResourceEEEPS3_EEvT0_S7_T_
mje:__ZN5physx2Gu21findUniqueConvexEdgesEjPNS0_10ConvexEdgeEjPKNS0_15HullPolygonDataEPKh
kYd:__ZN5physx20NpRigidActorTemplateINS_14PxRigidDynamicEED0Ev
qa:invoke_iiiiiiiiiiii
_Yh:_DateTime_System_IConvertible_ToType_m1242864300_AdjustorThunk
Zde:__ZN5physx43solveContactCoulombPreBlock_WriteBackStaticEPKNS_23PxcSolverConstraintDescEjRNS_16PxcSolverContextEPNS_25PxcThresholdStreamElementEjPi
n4g:_InternalEnumerator_1_get_Current_m2446410893_AdjustorThunk
F4a:__Z29CalculateDefaultChannelsToAdd17ShaderChannelMaskS_
Pag:_Array_Sort_m870838517
rud:__ZN5physx2Sc5Scene23allocateConstraintBlockEj
aZj:_CanvasRenderer_SetMaterial_m633746949
Gcl:__Z99RuntimeInvoker_RuntimeObject_RuntimeObject_RuntimeObject_StreamingContext_t3711869237_RuntimeObjectPFvvEPK10MethodInfoPvPS4_
YT:__ZN10AudioMixer12RebindOutputEv
Dlh:_MethodCall_InitMethodProperty_m1333573177
xok:__ZNK15dense_hashtableINSt3__24pairIK10KeyWrapperIP11Il2CppClassES4_EES5_N6il2cpp8metadata16SZArrayClassHashEN14dense_hash_mapIS5_S4_SA_NS5_14EqualsComparerINS9_19SZArrayClassCompareEEENS0_9allocatorIS7_EEE9SelectKeyESE_SG_E5beginEv
Vwh:_LayoutRebuilder_PerformLayoutControl_m4241054021
s1j:__ZN6il2cpp2vm17SetupFieldsLockedEP11Il2CppClassRKNS_2os12FastAutoLockE
zVb:__ZNK9GfxDevice20IsViewportFullscreenEv
BU:__ZN11AudioSourceD0Ev
iNa:__ZN18GlslGpuProgramGLES13SwitchProgramEj
Hvd:__ZN5physx2Sc5Actor15onElementDetachERNS0_7ElementE
i_a:__ZN20ArchiveStorageReaderC2E10MemLabelId
W6k:__Z132RuntimeInvoker_Int32_t2950945753_RuntimeObject_Int32_t2950945753_Int32_t2950945753_RuntimeObject_Int32_t2950945753_Int32_t2950945753PFvvEPK10MethodInfoPvPS4_
_3c:__ZN27TrailModulePropertyBindings13SetFloatValueER14ParticleSystemif
PAb:__ZN16MemoryFileSystem4NameEv
J5c:__Z20UpdateWholeSheet2TplIL27ParticleSystemCurveEvalMode2ELS0_0EEvfRK11MinMaxCurveS3_RK23ParticleSystemParticlesPf
tDe:__ZN14PhysicsManager9onContactERKN5physx19PxContactPairHeaderEPKNS0_13PxContactPairEj
bFc:__Z13SetCopyBufferRKN4core12basic_stringIcNS_20StringStorageDefaultIcEEEE
D9c:__ZN5physx3Cct13BoxController13setHalfHeightEf
s5d:__ZN5physx3Scb13ObjectTracker5clearEv
N6f:_X509CertificateEnumerator_System_Collections_IEnumerator_get_Current_m418791713
$4e:_UNITY_FT_New_Size
Ewc:__Z42ScriptingGetComponentsOfTypeFromGameObjectRK26ScriptingGetComponentsArgs
I2:__ZN19CloudServiceHandler11FlushEventsEv
hUc:__Z10RecordEmitR27ParticleSystemEmissionStateRK28ParticleSystemSubEmitterDataR24ParticleSystemUpdateDataRK23ParticleSystemParticles21ParticleSystemSubTypeijffff
iWc:__Z9UpdateTplIL27ParticleSystemCurveEvalMode4EEvRK11MinMaxCurveS3_S3_R23ParticleSystemParticlesjjRKN4math8float3x3ERKNS6_7_float4E
Uad:__ZL23GeomMTDCallback_BoxMeshRN5physx6PxVec3ERfRKNS_10PxGeometryERKNS_11PxTransformES5_S8_
c$l:__ZL73ArgumentCache_t2187958399_CustomAttributesCacheGenerator_m_ObjectArgumentP21CustomAttributesCache
Ahj:_Array_swap_TisRaycastResult_t3360306849_TisRaycastResult_t3360306849_m3400922624_gshared
MRj:_AudioListener_ReadExtensionName_m929423100
TGg:_CspParameters__ctor_m2741097571
Clf:__ZN13WheelCollider8TransferI19StreamedBinaryWriteILb0EEEEvRT_
W2c:__ZN35ClampVelocityModulePropertyBindings13SetFloatValueER14ParticleSystemif
dOd:__ZNK5physx7NpCloth22getNbCollisionCapsulesEv
bdb:__ZNSt3__27__sort4IRPFbRKNS_4pairIN9ShaderLab16FastPropertyNameEN18UnityPropertySheet11UnityTexEnvEEES8_EPS6_EEjT0_SD_SD_SD_T_
AVe:_cf2_hintmap_build
m1k:_Texture_get_width_m888163864
J2e:_Line_Up
Cad:__ZL28GeomMTDCallback_SphereSphereRN5physx6PxVec3ERfRKNS_10PxGeometryERKNS_11PxTransformES5_S8_
Qe:_emscripten_glBufferSubData
uii:_String_ReplaceUnchecked_m1381393810
Yyd:__ZN5physx6shdfnd5ArrayIPvNS0_15InlineAllocatorILj256ENS0_19ReflectionAllocatorINS_7NpShapeEEEEEE15growAndPushBackERKS2_
xJa:__ZN6prcoreL12RemapGenericI15TexFormatRGB88817TexFormatARGB8888EEvPKNS_9InnerInfoE
er:__Z17CalculateGlobalRS23TransformAccessReadOnly
hJk:__ZNSt3__210__list_impIPN6il2cpp5utils10MemoryPool6RegionENS_9allocatorIS5_EEE5clearEv
_ia:__ZN33InstancedMeshIntermediateRenderer13StaticDestroyEPv
Jzd:__ZNK5physx14NpArticulation22computeImpulseResponseEPNS_18PxArticulationLinkERNS_6PxVec3ES4_RKNS_24PxArticulationDriveCacheERKS3_S9_
Zqd:__ZN5physx2Sc19ContactReportBuffer23reallocateNotThreadSafeEjRjjj
Dtd:__ZN5physx2Sc5Actor19registerInteractionEPNS0_11InteractionE
yFb:__ZN14SafeBinaryRead21TransferSTLStyleArrayI13dynamic_arrayI9BoundsIntLj4EEEEvRT_17TransferMetaFlags
fxb:__ZN22MemoryCacherReadBlocks14LockCacheBlockEjPPhS1_
Klb:__ZNK9GfxDevice26GetSinglePassStereoEyeMaskEv
QQk:_DebugLogHandler_Internal_Log_m4175774469
u7l:__ZL54EventSystem_t1003666588_CustomAttributesCacheGeneratorP21CustomAttributesCache
pDk:__ZN4utf88internal15increase_safelyIPKcEENS0_9utf_errorERT_S5_
o4e:__ZN20TextRenderingPrivate8FontImpl16CacheFontForTextEPtiifjPK13dynamic_arrayINS_16TextFormatChangeELj4EE
Bfg:_CharEnumerator_get_Current_m525608209
jKe:__ZN13PhysicsModule19CreateNxHeightFieldEPv
FDf:__Z21ArrayElementTypeCheckP11Il2CppArrayPv
bCm:_emscripten_glTexSubImage2D__wrapper
S2h:_StackTrace_init_frames_m641783388
PRh:_PublicKey_DecodeRSA_m1824703659
osm:__ZNSt3__212basic_stringIcNS_11char_traitsIcEENS_9allocatorIcEEE6appendEjc
bRb:__Z13TransferFieldI18StreamedBinaryReadILb0EELb0E16Converter_StringEvRK23StaticTransferFieldInfoR31RuntimeSerializationCommandInfoRT1_
Qcf:__Z42Register_UnityEngine_Canvas_get_rootCanvasv
aCc:__Z27Random_Get_Custom_PropValuev
iwf:__Z48setPxVehicleDriveSimData4W_AckermannGeometryDataPN5physx23PxVehicleDriveSimData4WERKNS_30PxVehicleAckermannGeometryDataE
MDb:__Z14resize_trimmedINSt3__26vectorI8MonoPPtr13stl_allocatorIS2_L18MemLabelIdentifier1ELi16EEEEEvRT_j
yf:_TTF_RenderText_Solid
DIi:_List_1__ctor_m3947764094_gshared
DMj:_GUIClip_INTERNAL_CALL_Internal_Push_m1987478103
WJj:_Parser_IsIgnorePatternWhitespace_m2107132682
$Oh:_HttpRequestCreator_Create_m400548686
hhf:__ZN11UnityEngine7Connect16PersistentValuesC2Ev
trj:_ReadOnlyCollection_1_System_Collections_IList_Insert_m134149130_gshared
gMc:__Z18Transfer_BlittableI9JSONWriteLb0E5RectTIiEEvRK29SerializationCommandArgumentsR31RuntimeSerializationCommandInfo
AHh:_BigInteger_get_Rng_m4216817480
Wli:_Array_InternalArray__ICollection_Remove_TisDateTime_t3738529785_m2250893026_gshared
ANa:__Z15IsIEEE754Format14GraphicsFormat
sHb:__Z19TransferField_ArrayI17RemapPPtrTransfer27Converter_UnityEngineObjectEvRK23StaticTransferFieldInfoR31RuntimeSerializationCommandInfoRT0_
lb:invoke_iifiii
ojg:_KeyNotFoundException__ctor_m541499307
$3b:__ZN19ShaderPropertySheet24SetTextureFromTextureRefERK23FastTexturePropertyNamePK10TextureRef
tni:_SetPropertyUtility_SetStruct_TisSpriteState_t1362986479_m665096788_gshared
q7k:__Z61RuntimeInvoker_Single_t1397266774_RuntimeObject_RuntimeObjectPFvvEPK10MethodInfoPvPS4_
ami:_Array_InternalArray__ICollection_Remove_TisIntPtr_t_m3807208150_gshared
pDe:__ZN14PhysicsManager23VirtualRedirectTransferER17RemapPPtrTransfer
N0g:_InternalEnumerator_1_get_Current_m2316281569_AdjustorThunk
bYh:_DateTime__ctor_m1095105629
hBa:__ZN13GfxDeviceGLES15UploadTexture2DE9TextureID16TextureDimensionPKhiii14GraphicsFormati18TextureUploadFlags16TextureUsageMode
SF:__ZN7mecanim9animation25CreateControllerWorkspaceEPKNS0_18ControllerConstantERNS_6memory9AllocatorE
LLj:_Event_Cleanup_m2477919477
US:__ZN4FMOD6System9createDSPEP20FMOD_DSP_DESCRIPTIONPPNS_3DSPE
TNl:__ZL87Thread_t2300836069_CustomAttributesCacheGenerator_Thread_GetCompressedStack_m2923422412P21CustomAttributesCache
EUg:_SslClientStream_get_ClientCertificates_m998716871
SG:__ZN7mecanim9animation26DestroyControllerWorkspaceEPNS0_19ControllerWorkspaceERNS_6memory9AllocatorE
UO:__ZN4FMOD8ChannelI11EndCallbackEv
_Hc:__ZN8GUIStyle14SetDefaultFontEPN13TextRendering4FontE
R_c:__ZN11ForceModule8TransferI24GenerateTypeTreeTransferEEvRT_
xTh:_X509Chain_GetAuthorityKeyIdentifier_m2237883181
Dhb:__ZN15QualitySettings23VirtualRedirectTransferER24GenerateTypeTreeTransfer
Fqh:_ObjectReader_ReadValue_m3145979203
_je:__ZN5physx2Gu32PCMConvexVsMeshContactGeneration35generateTriangleFullContactManifoldERNS0_9TriangleVEjPKjhRKNS0_13PolygonalDataEPNS0_16SupportLocalImplIS2_EEPNS0_12SupportLocalEPNS0_21MeshPersistentContactERjRKNS_6shdfnd3aos6FloatVERNSI_5Vec3VE
xIj:_AnchorInfo__ctor_m3523994803
rcm:__ZL68Scrollbar_t1494447233_CustomAttributesCacheGenerator_m_NumberOfStepsP21CustomAttributesCache
tt:__ZN14SafeBinaryRead21TransferSTLStyleArrayI22OffsetPtrArrayTransferI9OffsetPtrIN7mecanim12statemachine17ConditionConstantEEEEEvRT_17TransferMetaFlags
R4j:__ZN30dense_hashtable_const_iteratorINSt3__24pairIK10KeyWrapperIPK19Il2CppGenericMethodEPK26Il2CppGenericMethodIndicesEES6_N6il2cpp8metadata23Il2CppGenericMethodHashEN14dense_hash_mapIS6_SA_SE_NS6_14EqualsComparerINSD_26Il2CppGenericMethodCompareEEENS0_9allocatorISB_EEE9SelectKeyESI_SK_EppEv
Q9d:__ZNK16OBBAABBTest_SIMDclERKN5physx2Sq9BucketBoxE
nUe:_UNITY_FT_Request_Metrics
Btk:__ZN6il2cpp6icalls8mscorlib6System10Reflection10MonoMethod29get_IsGenericMethodDefinitionEP22Il2CppReflectionMethod
Tpk:__ZN6il2cpp2vm6Thread21AllocThreadStaticDataEi
KTf:_Default_SelectMethod_m469311730
yTk:_Input_get_mousePosition_m1616496925
Lqc:__Z16PackTextureAtlasP9Texture2DiiPS0_P5RectTIfEiNS_10EInitFlagsE
lCk:__ZN30dense_hashtable_const_iteratorINSt3__24pairIK10KeyWrapperIPK19Il2CppGenericMethodEP10MethodInfoEES6_N6il2cpp8metadata23Il2CppGenericMethodHashEN14dense_hash_mapIS6_S9_SD_NS6_14EqualsComparerINSC_26Il2CppGenericMethodCompareEEENS0_9allocatorISA_EEE9SelectKeyESH_SJ_EppEv
nVi:_UInt32_ToString_m2066897296_AdjustorThunk
UX:__Z13RegisterClassI13AudioListenerEvv
Dxb:__ZN24GenerateTypeTreeTransfer19TransferSTLStyleMapINSt3__23mapI4PPtrI6ShaderEN4core12basic_stringIcNS6_20StringStorageDefaultIcEEEENS1_4lessIS5_EENS1_9allocatorINS1_4pairIKS5_SA_EEEEEEEEvRT_17TransferMetaFlags
Fjg:_Enumerator_Reset_m4274366540
FLc:__Z18Transfer_BlittableI9JSONWriteLb0E8Vector3fEvRK29SerializationCommandArgumentsR31RuntimeSerializationCommandInfo
wg:_emscripten_glUniform4i
r8c:__ZNSt3__227__insertion_sort_incompleteIRN10vector_mapIi22ParticleModulePropertyNS_4lessIiEENS_9allocatorINS_4pairIiS2_EEEEE13value_compareEPS7_EEbT0_SD_T_
xYe:_otv_FeatureList_validate
HRc:__ZN22ParticleSystemRenderer5ResetEv
Yjd:__ZN16RayRTreeCallbackILi0ELb1EED2Ev
Jf:_emscripten_glUniform4f
TVa:__ZN6Object22CheckInstanceIDsLoadedEPii
fk:___unlock
FXe:_otv_validate
ycc:__ZN13sorted_vectorINSt3__24pairIN4core12basic_stringIcNS2_20StringStorageDefaultIcEEEES6_EEN10vector_mapIS6_S6_27compare_tstring_insensitiveIS6_E13stl_allocatorIS7_L18MemLabelIdentifier38ELi16EEE13value_compareESD_E9erase_oneIS6_EEjRKT_
Jwh:_U3CDelayedSetDirtyU3Ec__Iterator0_Reset_m160466733
vdi:_X509Certificate_Equals_m3784196370
M3i:_List_1__ctor_m3376067838_gshared
mV:__ZN20SoundChannelInstance19setReverbPropertiesEP29FMOD_REVERB_CHANNELPROPERTIES
JGi:_Enumerator_MoveNext_m1446151600_gshared
jbi:_SHA1Internal_ProcessFinalBlock_m1403775421
KEc:__Z40Register_UnityEngine_Transform_IsChildOfv
ald:__ZN5physx3Cct17CapsuleController15setClimbingModeENS_21PxCapsuleClimbingMode4EnumE
Rbe:__ZN5physx6shdfnd9atomicAddEPVii
J6g:_InternalEnumerator_1_get_Current_m2356858238_AdjustorThunk
tzc:__Z45Register_UnityEngine_Display_GetSystemExtImplv
PD:__ZN7mecanim14ValueArrayLoopILb1EEEvRKNS_10ValueArrayES3_RKNS_14ValueArrayMaskERS1_f
HLh:_RSAManaged_ImportParameters_m1844641996
B6d:__ZN5physx6shdfnd5ArrayINS_3Scb13MaterialEventENS0_19ReflectionAllocatorIS3_EEE6resizeEjRKS3_
h9g:_Enumerator_System_Collections_IDictionaryEnumerator_get_Value_m3325938730_AdjustorThunk
FD:__ZN7mecanim9animation23TransformValuesFromClipEiiiRKNS_10ValueArrayERKNS0_10ClipOutputERKNS0_12ClipBindingsERS1_RNS_14ValueArrayMaskEb
_5c:__Z19UpdateSingleRow2TplIL27ParticleSystemCurveEvalMode4ELS0_4EEvfRK11MinMaxCurveS3_RK23ParticleSystemParticlesPfbiii
Nhe:__ZNK5physx14SingleAABBTask25updateNumFastMovingShapesEv
Peh:_ValueCollection_System_Collections_ICollection_get_SyncRoot_m1114275063_gshared
h9h:_Guid_Equals_m1866984197
V8e:__ZNSt3__218__insertion_sort_3IRNS_6__lessIN2UI14DepthSortEntryES3_EEPS3_EEvT0_S7_T_
Oye:__ZN5physx17ConvexMeshBuilder16computeGaussMapsEv
uSf:_PlatformNotSupportedException__ctor_m1787918017
sna:__ZN13RuntimeStaticI15DirectorManagerLb0EE16StaticInitializeEPv
zoj:_ReadOnlyCollection_1_System_Collections_ICollection_CopyTo_m2643246984_gshared
Zqb:__ZN11TimeManager6UpdateEv
qWb:__ZN6Shader18LoadDefaultShadersEv
Mzd:__ZNK5physx2Sc16ArticulationCore22computeImpulseResponseERNS0_8BodyCoreERNS_6PxVec3ES5_RKNS_9PxcFsDataERKS4_SA_
ole:__ZN5physx21PxsBodyTransformVaultC2Ev
FJf:_CanvasScaler_get_fallbackScreenDPI_m2811935689
TYh:_DateTimeFormatInfo_ReadOnly_m890935083
jje:__ZL6IsInYZffPPK10VertexInfo
Gwi:_Dictionary_2_set_Item_m258553009_gshared
Ize:__ZN5physx19TriangleMeshBuilderD0Ev
Cqm:_fflush
ida:__ZN17LightProbeContext4InitERK16LightmapSettingsRK14RenderSettings
R5b:__ZN18DeferredRenderLoop14RenderLightingER21ActiveLightingContextP13RenderTexture9TextureIDPS3_iRK8Vector4fRK14LightingLayersR10MinMaxAABBb12ObjectHandleI17RenderSurface_TagP17RenderSurfaceBaseE
i0k:_SceneManager_Internal_ActiveSceneChanged_m3676176255
PMk:__GLOBAL__sub_I_Error_cpp
q3h:_Double_System_IConvertible_ToInt16_m3591921965
Mkb:__ZN9Texture3DD2Ev
Pcj:_Collection_1_set_Item_m4280581817_gshared
Qmg:_Convert_ToChar_m2796006345
nui:_Array_InternalArray__Insert_TisContentType_t1787303396_m3566390691_gshared
bMd:__ZN5physx2CmlsERNS0_12RenderOutputERKNS0_10DebugArrowE
pt:__ZN14SafeBinaryRead21TransferSTLStyleArrayI22OffsetPtrArrayTransferI9OffsetPtrIN7mecanim12statemachine21SelectorStateConstantEEEEEvRT_17TransferMetaFlags
RVc:__Z18MagnitudeUpdateTplIL27ParticleSystemCurveEvalMode2EEvRK11MinMaxCurveR23ParticleSystemParticlesjjRKN4math7_float4E
Sgg:_ArrayListWrapper_GetEnumerator_m2336495952
h8b:__Z34ProcessIndexListIsNodeVisibleStep2RK22SceneCullingParametersPK9SceneNodePK4AABBR9IndexList
qTb:__ZN10MonoScriptD2Ev
xRa:__ZN19ConstantBuffersGLES8UpdateCBE5CbKeyPKvj
Vz:__ZN18StreamedBinaryReadILb0EE8TransferINSt3__26vectorIN13AnimationClip12Vector3CurveE13stl_allocatorIS5_L18MemLabelIdentifier26ELi16EEEEEEvRT_PKc17TransferMetaFlags
qRj:_AudioSource_get_spatializeInternal_m2117549793
IAc:__Z39Input_CUSTOM_INTERNAL_get_mousePositionP8Vector3f
S9f:_SimpleEnumerator__ctor_m353509656
k_e:_tt_cmap13_char_next
z7l:__ZL117EventSystem_t1003666588_CustomAttributesCacheGenerator_EventSystem_t1003666588____lastSelectedGameObject_PropertyInfoP21CustomAttributesCache
gya:__ZN9ShaderLab4Pass16SetupPassOptionsEv
Mh:_JS_Sound_ReleaseInstance
JZ:__Z42Register_UnityEngine_AudioSource_get_pitchv
eAa:__ZN13GfxDeviceGLES19DrawBuffersIndirectEP9GfxBufferPK18VertexStreamSourceiP17VertexDeclaration17ShaderChannelMask16GfxPrimitiveType15ComputeBufferIDj
V8h:_Guid_CheckArray_m921056615
kih:_ConfigHandler_ReadLifetine_m208994800
_ah:_Enumerator_System_Collections_IDictionaryEnumerator_get_Entry_m3417028588_AdjustorThunk
mse:__ZN5physx16PxsCCDBlockArrayINS_13PxsCCDOverlapELi128EE8pushBackEv
lSc:__ZL25CalculateCurveRangesValueRKN4math7_float2ERK17AnimationCurveTplIfE
KZk:_Rect_get_max_m350137314_AdjustorThunk
ln:FUNCTION_TABLE_diddi
eqk:__ZN6il2cpp6icalls8mscorlib6System5Array8FastCopyEP11Il2CppArrayiS5_ii
ICc:__Z26Material_CUSTOM_SetIntImplP12Il2CppObjectii
vAc:__Z42Register_UnityEngine_RectOffset_get_bottomv
dqm:_newlocale
U8d:__ZN5physx14PxsAABBManagerD2Ev
zFb:__ZN9BoundsInt8TransferI14SafeBinaryReadEEvRT_
frc:__Z18QuaternionToMatrixRK11QuaternionfR10Matrix4x4f
$zm:_emscripten_glUniform1f__wrapper
rum:dynCall_di
BRk:_BaseInvokableCall_AllowInvoke_m878393606
E8d:__ZN5physx16PxsIslandManagerD2Ev
Xjl:__Z77RuntimeInvoker_Quaternion_t2301928331_Vector3_t3722313464_Vector3_t3722313464PFvvEPK10MethodInfoPvPS4_
mLc:__Z28RegisterModule_JSONSerializev
fee:__ZN5physx21solveFriction_BStaticERKNS_23PxcSolverConstraintDescERNS_16PxcSolverContextE
Xxb:__ZN2UI13RectTransform8TransferI14SafeBinaryReadEEvRT_
yMc:__Z35Transfer_Blittable_FixedBufferFieldI9JSONWriteaEvRK29SerializationCommandArgumentsR31RuntimeSerializationCommandInfo
b3c:__ZN34ColorBySpeedModulePropertyBindings13GetFloatValueERK14ParticleSystemi
WNk:_Behaviour_get_enabled_m753527255
ztc:__Z20IsHumanControllingUsv
qof:__ZNK5physx35PxVehicleWheelsSimDataGeneratedInfo23visitInstancePropertiesINS_18RepXPropertyFilterINS_2Sn17RepXVisitorReaderINS_22PxVehicleWheelsSimDataEEEEEEEjT_j
Zx:__ZN7mecanim5human9HumanGoal8TransferI14SafeBinaryReadEEvRT_
JEl:__ZL51TextInfo_t3810425522_CustomAttributesCacheGeneratorP21CustomAttributesCache
MWa:__ZN10systeminfo21GetPersistentDataPathEv
Tza:__ZN13GfxDeviceGLES17DestroyGpuProgramEPK10GpuProgram
ffj:_Array_InternalArray__set_Item_TisRaycastResult_t3360306849_m730888808_gshared
VBb:__Z44InitializeTransferFunctionScriptingTraitsForI18StreamedBinaryReadILb0EEEvR31TransferFunctionScriptingTraits
Cdh:_Enumerator_System_Collections_IEnumerator_Reset_m53411943_gshared
l4b:__ZNSt3__218__insertion_sort_3IR23CompareReflectionProbesP31RuntimeReflectionProbeBlendInfoEEvT0_S5_T_
CHb:__ZN12NativeBufferI27Converter_SimpleNativeClassI8GradientEE15SetupForWritingER9ArrayInfo
gIh:_Kernel_RightShift_m2207393597
aqa:__ZNSt3__213__stable_sortIRNS_4lessIN4core12basic_stringIcNS2_20StringStorageDefaultIcEEEEEENS_11__wrap_iterIPS6_EEEEvT0_SC_T_NS_15iterator_traitsISC_E15difference_typeEPNSF_10value_typeEi
wfm:__ZL48Shadow_t773074319_CustomAttributesCacheGeneratorP21CustomAttributesCache
Wha:__ZN12_GLOBAL__N_113StaticDestroyEPv
XGc:__ZNK8GUIStyle4DrawER8GUIStateRK5RectTIfER10GUIContentbbbb
HCm:_glTexParameteriv__wrapper
dFm:_glUnmapBuffer__wrapper
eQc:__ZN8JSONRead21TransferSTLStyleArrayINSt3__26vectorI8Gradient13stl_allocatorIS3_L18MemLabelIdentifier1ELi16EEEEEEvRT_17TransferMetaFlags
urb:__ZNSt3__218__insertion_sort_3IRNS_6__lessINS_4pairIPKN5Unity4TypeE7Hash128EES8_EEPS8_EEvT0_SC_T_
Vsh:_InputField_set_onValueChanged_m3658917578
S6c:__Z9UpdateTplIL22MinMaxGradientEvalMode0EL12GradientMode0ELS1_1EEvRK23ParticleSystemParticlesP11ColorRGBA32RK14MinMaxGradientRK23OptimizedMinMaxGradientRK8Vector2f
kJb:__ZN10RectOffset8TransferI24GenerateTypeTreeTransferEEvRT_
Cug:_BinaryReader__ctor_m2266204403
hPg:__ZN21InterfaceFuncInvoker5IiP22ByteU5BU5D_t4116647657iiS1_iE6InvokeEjP11Il2CppClassP12Il2CppObjectS1_iiS1_i
qFi:_Enumerator_VerifyState_m3047769867_AdjustorThunk
wIb:__Z18Transfer_BlittableI24GenerateTypeTreeTransferLb1E5RectTIiEEvRK29SerializationCommandArgumentsR31RuntimeSerializationCommandInfo
OHc:__ZN16GUIKeyboardStateD2Ev
F8e:__ZN2UI13CanvasManager19RemoveDirtyRendererEPNS_6CanvasEPNS_14CanvasRendererE
sLd:__ZN5physx7NpShape18setQueryFilterDataERKNS_12PxFilterDataE
epm:_isspace
cph:_BinaryFormatter__ctor_m2620705134
E1c:__ZN14MinMaxGradient5ResetE26ParticleSystemGradientMode
VFd:__ZN5physx2Sc8ShapeSim18onRestOffsetChangeEv
$me:__ZN5physx20PxcNpCacheStreamPair5resetEv
P2:__ZN11UnityEngine15CloudWebService17WebFileDownloaderINS0_20WebRequestRestClientENS0_23WebRequestRestHeaderMapEED2Ev
mc:invoke_vi
vfe:__ZN5physx14SapPairManager10RemovePairEjjjj
p7f:_SmallXmlParser_HandleWhitespaces_m549588711
ZRc:__ZN14ParticleSystem17RemoveFromManagerEv
NNc:__ZN9JSONWrite8TransferI13dynamic_arrayI9BoundsIntLj4EEEEvRT_PKc17TransferMetaFlags
kc:invoke_vd
Gb:invoke_vf
LFj:_Regex_get_RightToLeft_m2317867572
Tca:__ZNK10GameObject8IsActiveEv
azc:__Z34Component_Get_Custom_PropTransformP12Il2CppObject
q1c:__ZN21InheritVelocityModule5ResetEv
ZMa:__ZN18GfxFramebufferGLES23SetupDefaultFramebufferEPP17RenderSurfaceBaseS2_N2gl6HandleILNS3_10ObjectTypeE9EEE
ovd:__ZN5physx2Sq16computeWorldAABBERKNS_3Scb5ShapeERKNS1_5ActorE
wMf:_DefaultControls_CreateDropdown_m3286664171
Hib:__ZN13ScreenManager18RequestOrientationE17ScreenOrientation
R1j:__ZN6il2cpp2vm5Class12SetupMethodsEP11Il2CppClass
vhe:__ZN5physx14PxsAABBManager31updateAggregateBPOverlapRecordsEv
Rvc:__Z39DeleteLastPathNameComponentWithAnySlashRKN4core12basic_stringIcNS_20StringStorageDefaultIcEEEE
ZGc:__ZN10GUIManager14InitGUIManagerEv
cUi:_UInt16_Equals_m642257745
w9f:_Array_System_Collections_IList_IndexOf_m3301661616
gTf:_AssemblyFileVersionAttribute__ctor_m3720707642
f4f:_RuntimeResourceSet_CloneDisposableObjectIfPossible_m2725520898
jhc:__Z18GetApplicationInfov
kJc:__Z37Register_UnityEngine_GUIStyle_Cleanupv
Za:invoke_iiifii
rDh:_SliderEvent__ctor_m3149452941
J5f:_DeriveBytes__cctor_m1212925033
LSi:_Type_IsAssignableFrom_m3195021585
ePf:_Graphic_OnDisable_m1097930217
sbk:__ZN6il2cpp6icalls8mscorlib6System8MonoType13IsPointerImplEP20Il2CppReflectionType
NXc:__Z15GetPositionMeshIL20MeshDistributionMode0ELb0E11ColorRGBA32EvRN4math8floatNx3ES4_RNS2_4pix4ERK13dynamic_arrayIS1_Lj4EERK14StrideIteratorI8Vector3fESF_RKSB_IT1_ERKS7_I16MeshTriangleDataLj4EERKS7_I11MeshAreaLUTLj4EERKfRKiST_R5RandNP12SkinMeshInfo
TCe:__ZN9Rigidbody16AddNonConvexMeshER8ListNodeI12MeshColliderE
xj:_emscripten_glFramebufferRenderbuffer
W6b:__ZN19CullingGroupManager17CullAndSendEventsERK22SceneCullingParametersiRK13CullingOutputRK8JobFence
KBf:__ZN13WheelCollider13SetSteerAngleEf
v$a:__ZN9Transform30EnsureTransformHierarchyExistsEv
aSi:_Type_FilterName_impl_m2651733559
i6d:__ZN5physx2Sc14ConstraintCore15getPxConstraintEv
GAe:__ZNK8Collider12GetRigidbodyEv
bp:FUNCTION_TABLE_viiiiiiii
Xxc:__Z46Register_UnityEngine_Application_get_isPlayingv
jh:___cxa_find_matching_catch_4
mcc:__ZNSt3__26vectorINS_4pairIN4core12basic_stringIcNS2_20StringStorageDefaultIcEEEEPK17MessageIdentifierEENS_9allocatorISA_EEE12__move_rangeEPSA_SE_SE_
TRc:__ZThn32_N22ParticleSystemRendererD1Ev
v0b:__ZN14qsort_internal17MedianOfThreeSwapIP17RODataReplacement19ROSorterReplacementEEvT_S4_S4_T0_
xhi:_String_Split_m3646115398
K_k:_RectOffset_ToString_m2007443979
H0j:__ZNK15dense_hashtableINSt3__24pairIK10KeyWrapperIPK22Il2CppGenericParameterEP11Il2CppClassEES6_N6il2cpp5utils11PointerHashIS4_EEN14dense_hash_mapIS6_S9_SE_NS6_14EqualsComparerINS0_8equal_toIS5_EEEENS0_9allocatorISA_EEE9SelectKeyESJ_SL_E3endEv
Mvc:__ZN17TransformInternal36OnScaleChangedCalculateTransformTypeE15TransformAccess
yXa:__ZN17ArchiveFileSystem10ToAbsoluteEPKc
VNj:_GUILayoutGroup_CalcHeight_m1669391299
_ef:__ZN19UnityConnectService15GetPlayerUserIdEv
lqi:_Array_InternalArray__IndexOf_TisSByte_t1669577662_m4156538463_gshared
Bv:__ZN7mecanim6CRCKeyENS_7eStringE
urc:__ZL12SetPrefValueRKN4core12basic_stringIcNS_20StringStorageDefaultIcEEEERK9PrefValue
ulb:__ZN19ShaderPropertySheet20ReservePropertyCountEj
XCk:__ZN6il2cpp5utils11StringUtils6PrintfEPKcz
Nok:__ZNSt3__26vectorIN6il2cpp8metadata18GenericArrayMethodENS_9allocatorIS3_EEE7reserveEj
Mwa:__ZN15NameToObjectMapI6ShaderNSt3__23mapI4PPtrIS0_EN4core12basic_stringIcNS5_20StringStorageDefaultIcEEEENS1_4lessIS4_EENS1_9allocatorINS1_4pairIKS4_S9_EEEEEENS1_8multimapIS9_S4_NSA_IS9_EENSC_INSD_IKS9_S4_EEEEEEE4FindERSK_
teb:__ZN24GenerateTypeTreeTransfer21TransferResourceImageE19ActiveResourceImagePKcR13StreamingInfoPvjiPKN5Unity4TypeE
khj:_Array_Sort_TisVector3_t3722313464_m1030213405_gshared
rTc:__ZN13InitialModule18GenerateProceduralERK27ParticleSystemReadOnlyStateR23ParticleSystemParticlesRK10Matrix4x4fRK8Vector3fRK24ParticleSystemEmitReplayRj
qyk:__ZN6il2cpp2vm6Object5CloneEP12Il2CppObject
E0c:__ZN11ColorModule8TransferI19StreamedBinaryWriteILb0EEEEvRT_
_Ge:__ZN5physx6shdfnd8PoolBaseINS_24NpPtrTableStorageManager8PtrBlockILi16EEENS0_19ReflectionAllocatorIS4_EEED2Ev
GKk:__ZN6il2cpp6icalls8mscorlib6System9Threading5Mutex20CreateMutex_internalEbP12Il2CppStringPb
yEm:_emscripten_glLinkProgram__wrapper
M1j:__ZN6il2cpp2vm5Class12GetFinalizerEP11Il2CppClass
bQk:_Coroutine_Finalize_m1957108547
V7a:__ZNSt3__212__deque_baseI18ReflectionProbeJobNS_9allocatorIS1_EEED2Ev
YH:__ZN11UnityEngine9Animation27DestroyAnimationSetBindingsEPNS0_20AnimationSetBindingsERN7mecanim6memory9AllocatorE
vsa:__ZN15dense_hashtableINSt3__24pairIKiN4core17string_with_labelILi1EEEEEi18SInt32HashFunctionN14dense_hash_mapIiS5_S7_NS0_8equal_toIiEE13stl_allocatorIS6_L18MemLabelIdentifier1ELi16EEE9SelectKeyESA_SD_E13set_empty_keyERKS6_
LFd:__ZN5physx2Sc9ShapeCore23setSimulationFilterDataERKNS_12PxFilterDataE
SPk:_Component_GetComponentInChildren_m388868270
cDi:_GenericEqualityComparer_1_Equals_m1705889345_gshared
XM:__ZN8Animator12CleanupClassEv
cQc:__Z13TransferFieldI8JSONReadLb0E27Converter_SimpleNativeClassI10RectOffsetEEvRK23StaticTransferFieldInfoR31RuntimeSerializationCommandInfoRT1_
XOh:_FtpWebRequest__cctor_m699542155
Svk:__GLOBAL__sub_I_GenericMetadata_cpp
gGe:__ZN5physx7profile12MemoryBufferINS0_21WrapperNamedAllocatorEE5writeIyEEvRKT_
WNh:_NameObjectCollectionBase_GetEnumerator_m3677320185
nGc:__ZNK8GUIStyle4DrawER8GUIStateRK5RectTIfER10GUIContentib
K7b:__Z24CalculateSpotLightBoundsffRK10Matrix4x4fR15SpotLightBounds
ufg:_Char_ToString_m3588025615
Rgh:_Dictionary_2_TryGetValue_m3495031886_gshared
a$:__ZN23CloudWebServicesManager23VirtualRedirectTransferER14SafeBinaryRead
YMh:_PKCS12_AddCertificate_m3857004455
xWc:__ZNK11NoiseModule14CalculateNoiseILi3ELb1ELb0EEEvR23ParticleSystemParticlesRK27ParticleSystemReadOnlyStatejjRKN4math7_float4E
yph:_WellKnownClientTypeEntry_ToString_m1119458503
YSb:__Z19ShouldTransferFieldR32SerializationCommandQueueBuilder17ScriptingClassPtriR18TransferField_InfoRK20CoreScriptingClasses
uBg:_Math_Cos_m1874044299
Nei:_SecurityElement_IsValidText_m1346599242
XRa:__ZN26SinglePassStereoSupportExt21SetStereoMatrixCommonE21MonoOrStereoscopicEye24BuiltinShaderMatrixParamRK10Matrix4x4f
CT:__ZN5audio5mixer22UpdateAudioMixerMemoryERKNS0_18AudioMixerConstantERNS0_16AudioMixerMemoryEfPN4FMOD6SystemEf
cMe:__ZL21InitializeCachedStripPv
Lui:_Dictionary_2_System_Collections_Generic_ICollectionU3CSystem_Collections_Generic_KeyValuePairU3CTKeyU2CTValueU3EU3E_Add_m3652125112_gshared
$qk:__ZN6il2cpp6icalls8mscorlib6System9Threading6Thread23GetCachedCurrentCultureEP12Il2CppThread
b1c:__ZN25IParticleSystemProperties8PropertyI8Vector3fNS_3MinILi0EEEE8TransferI19StreamedBinaryWriteILb0EEEEvRT_PKc
K5:__ZNK6Camera22GetWorldToCameraMatrixEv
vtm:runPostSets
Gyk:__ZN6il2cpp2vm12GenericClass11IsValueTypeEP18Il2CppGenericClass
TRb:__ZN13MonoBehaviour7SetNameEPKc
vBg:_Math_Acos_m2076003797
Tfc:__ZN13TrailRenderer18PrepareRenderNodesILb0EEEvR35RenderNodeQueuePrepareThreadContext
Gmh:_MethodDictionary_IsOverridenKey_m946843558
c9d:__ZN5physx6shdfnd8PoolBaseINS_2Sc26ActorPairContactReportDataENS0_19ReflectionAllocatorIS3_EEE15disposeElementsEv
qzj:_U3CStartU3Ec__Iterator0_MoveNext_m4270440387_gshared
bpa:__ZN13RuntimeStaticI12FlareManagerLb0EE13StaticDestroyEPv
l6j:__ZN10KeyWrapperIN6il2cpp5utils13dynamic_arrayIPK10Il2CppTypeLj4EEEEC2ERKS7_
OWb:__ZN17InstancingBatcher22FindCBUpperBoundKonstsEv
Iha:__GLOBAL__sub_I_runtime_shaders_shaderimpl_0_cpp
Sub:__ZN18AwakeFromLoadQueue5ClearEv
mxg:_FileStream_SetLength_m99749826
aue:__ZN5physx6shdfnd5ArrayIfNS0_19ReflectionAllocatorIfEEE8recreateEj
l6b:__ZNSt3__27__sort5IR15ReflProbeSorterPP15ReflectionProbeEEjT0_S6_S6_S6_S6_T_
foa:__ZN8Playable10DisconnectEPS_i
cl:_glGenTransformFeedbacks
mWa:__ZN13LoadOperationD2Ev
Jde:__ZN5physx20PxsSolverCoreGeneral6createEv
$3c:__ZN29TriggerModulePropertyBindings13AddPropertiesER10vector_mapIi22ParticleModulePropertyNSt3__24lessIiEENS2_9allocatorINS2_4pairIiS1_EEEEE
TSi:_Type_GetProperty_m4206634422
ord:__ZL29GeomOverlapCallback_SphereBoxRKN5physx10PxGeometryERKNS_11PxTransformES2_S5_PNS_2Gu12TriggerCacheE
p6h:_NumberFormatInfo_get_InvariantInfo_m349577018
rji:_ASCIIEncoding_GetBytes_m2264249800
cdb:__ZNSt3__27__sort5IRPFbRKNS_4pairIN9ShaderLab16FastPropertyNameEN18UnityPropertySheet11UnityTexEnvEEES8_EPS6_EEjT0_SD_SD_SD_SD_T_
kFa:__ZNK7ApiGLES18GetExtensionStringEv
T3i:_List_1_System_Collections_IList_IndexOf_m2444653486_gshared
gNj:_GUIClip_Internal_Push_m2522557466
aAm:_emscripten_glVertexAttrib1f__wrapper
Yyb:__ZNK12HandlerChain4SizeERK13FileEntryData
lq:FUNCTION_TABLE_iiiiiiiii
zNd:__ZN5physx7NpCloth15setInertiaScaleEf
Yoj:_ReadOnlyCollection_1_System_Collections_Generic_ICollectionU3CTU3E_Remove_m4177779688_gshared
gfg:_Char_IsLetter_m3996985877
i5i:_Queue_1_Peek_m2302800625_gshared
wAl:__ZL51Delegate_t1188392813_CustomAttributesCacheGeneratorP21CustomAttributesCache
nxe:__ZN5physx6shdfnd4sortIPvNS0_4LessIS2_EENS0_19ReflectionAllocatorIN17PxcPoolMallocData10PoolData16EEEEEvPT_jRKT0_RKT1_j
sed:__Z19sweepBox_SphereGeomRKN5physx10PxGeometryERKNS_11PxTransformERKNS_2Gu3BoxERKNS_6PxVec3EfRNS_10PxSweepHitENS_7PxFlagsINS_9PxHitFlag4EnumEtEEf
HFk:_GC_allochblk
avb:__Z15UnloadGameScenev
_si:_Array_InternalArray__ICollection_CopyTo_TisKeyframe_t4206410242_m2132255743_gshared
_Em:_glCheckFramebufferStatus__wrapper
gve:__ZNK5physx13GuMeshFactory15getHeightFieldsEPPNS_13PxHeightFieldEjj
Ytb:__ZNSt3__26vectorIN30RuntimeInitializeOnLoadManager15ClassMethodInfoE13stl_allocatorIS2_L18MemLabelIdentifier13ELi16EEE7reserveEj
y_c:__ZN11ShapeModule18MultiModeParameterIN25IParticleSystemProperties8PropertyIfNS1_5ClampILi0ELi360EEEEEE8TransferI14SafeBinaryReadEEvRT_
Ifh:_Dictionary_2_System_Collections_ICollection_CopyTo_m3143696177_gshared
qCe:__ZN15CapsuleCollider9SetRadiusEf
p9k:__Z103RuntimeInvoker_Void_t1185182177_Int32_t2950945753_Int32_t2950945753_Int32_t2950945753_SByte_t1669577662PFvvEPK10MethodInfoPvPS4_
t_d:__ZN5physx2Cm20visualizeJointFramesERNS0_12RenderOutputEfRKNS_11PxTransformES5_
Tie:__ZN5physx22PxcContactPlaneCapsuleERKNS_2Gu13GeometryUnionES3_RKNS_11PxTransformES6_RKfRNS_10PxcNpCacheERNS0_13ContactBufferE
mFc:__Z36Renderer_Get_Custom_PropSortingOrderP12Il2CppObject
rgk:__ZNK15dense_hashtableINSt3__24pairIK10KeyWrapperIPK10Il2CppTypeEjEES6_N6il2cpp8metadata14Il2CppTypeHashEN14dense_hash_mapIS6_jSB_NS6_14EqualsComparerINSA_26Il2CppTypeEqualityComparerEEENS0_9allocatorIS8_EEE9SelectKeyESF_SH_E13find_positionERS7_
zlb:__ZN8Material10SetTextureEN9ShaderLab16FastPropertyNameEP7Texture
pHg:_DESTransform_BSwap_m2723001589
YHb:__Z18Transfer_BlittableI24GenerateTypeTreeTransferLb0E8Vector2fEvRK29SerializationCommandArgumentsR31RuntimeSerializationCommandInfo
Cjh:_Context_get_HasDynamicSinks_m3952434387
YLi:_Latin1Encoding_GetByteCount_m1145650505
NHb:__Z18Transfer_BlittableI24GenerateTypeTreeTransferLb1EhEvRK29SerializationCommandArgumentsR31RuntimeSerializationCommandInfo
HOb:__Z13TransferFieldI18StreamedBinaryReadILb1EELb0E16Converter_StringEvRK23StaticTransferFieldInfoR31RuntimeSerializationCommandInfoRT1_
Ykd:__ZN5physx3Cct17CapsuleController9setRadiusEf
Hxc:__ZNK16TypeTreeIterator10ByteOffsetEv
Sum:dynCall_iiifii
bna:__ZnwjRKSt9nothrow_t
hL:__ZN8Animator11ClearObjectEv
Fuj:_Nullable_1_GetHashCode_m4232053575_gshared
ZDe:__ZN9Rigidbody17MainThreadCleanupEv
R8f:_ApplicationException__ctor_m2557611022
Xbb:__ZN14SafeBinaryRead19TransferSTLStyleMapINSt3__23mapI39DeprecatedFastPropertyNameSerializationN18UnityPropertySheet11UnityTexEnvENS1_4lessIS3_EENS1_9allocatorINS1_4pairIKS3_S5_EEEEEEEEvRT_17TransferMetaFlags
w1i:_List_1_CheckMatch_m579516778_gshared
edg:_Buffer_ByteLengthInternal_m1388208719
lKd:__ZN5physx9NpPhysics26unregisterDeletionListenerERNS_18PxDeletionListenerE
Cxc:__Z35UnregisterSerializationCacheBuilderPFv17ScriptingClassPtrR23CachedSerializationDataRbE
TGk:_GC_reclaim_uninit
rtg:_Int64_System_IConvertible_ToUInt32_m109903525_AdjustorThunk
Bda:__Z30GetBuiltinVectorParamArraySize24BuiltinShaderVectorParam
gti:_Array_InternalArray__ICollection_CopyTo_TisUICharInfo_t75501106_m4268526610_gshared
U8j:__ZN6il2cpp2vm13MetadataCache28GetMethodDefinitionFromIndexEi
v9a:__ZN13RenderTextureC2E10MemLabelId18ObjectCreationMode
pqg:_Int32_GetFormatException_m519586683
_Ml:__ZL46StringBuilder_t_CustomAttributesCacheGeneratorP21CustomAttributesCache
VEi:_Enumerator_MoveNext_m1131351993_gshared
xSf:_RankException__ctor_m2226473861
ekj:_Array_InternalArray__get_Item_TisVector2_t2156229523_m2502961026_gshared
$fa:__ZN21RendererUpdateManager11AddRendererER8Renderer
$hc:__Z13RegisterClassI15ResourceManagerEvv
PCd:__ZNK5physx18NpArticulationLink15getArticulationEv
ECb:__Z35Transfer_Blittable_FixedBufferFieldI14SafeBinaryReadsEvRK29SerializationCommandArgumentsR31RuntimeSerializationCommandInfo
Cmb:__ZN14SafeBinaryRead21TransferSTLStyleArrayI13dynamic_arrayIfLj4EEEEvRT_17TransferMetaFlags
Umg:_Convert_ToDateTime_m3802186295
YCk:__ZN6il2cpp5utils11StringUtils11Utf16ToUtf8EPKDs
Btb:__ZN18StreamedBinaryReadILb0EE21TransferSTLStyleArrayINSt3__26vectorIN15ResourceManager10DependencyE13stl_allocatorIS5_L18MemLabelIdentifier52ELi16EEEEEEvRT_17TransferMetaFlags
Jof:__ZN5physx2Sn21RepXVisitorReaderBaseINS_22PxVehicleWheelsSimDataEE15complexPropertyINS_22PxRepXPropertyAccessorILj622ES2_RKNS_27PxVehicleTireLoadFilterDataES6_EEKNS_40PxVehicleTireLoadFilterDataGeneratedInfoEEEvPjRKT_RT0_
XVi:_UInt64_CompareTo_m1614517204_AdjustorThunk
Def:__ZN11UnityEngine15PlatformWrapper20IsRootedOrJailbrokenEv
sZb:__ZZ23InitPlayerLoopCallbacksvEN52PreLateUpdateScriptRunBehaviourLateUpdateRegistrator7ForwardEv
Nrc:__ZNSt3__26vectorIj13stl_allocatorIjL18MemLabelIdentifier1ELi16EEE6assignINS_11__wrap_iterIPjEEEENS_9enable_ifIXaasr21__is_forward_iteratorIT_EE5valuesr16is_constructibleIjNS_15iterator_traitsISA_E9referenceEEE5valueEvE4typeESA_SA_
F7b:__Z33IntersectAABBPlaneBoundsOptimizedRK4AABBPKN4math7_float4Ei
$Zh:_DateTimeFormatInfo_FillAllDateTimePatterns_m2683124783
iAa:__ZN9GfxDevice19EndGeometryJobFrameEv
SMj:_GUILayoutUtility_Layout_m1159951704
csh:_InputField_get_shouldActivateOnSelect_m3055465770
HHb:__ZN27Converter_SimpleNativeClassI17AnimationCurveTplIfEE17ScriptingToNativeER18ScriptingObjectPtrPS1_
$Ri:_Type__cctor_m2371893800
qDd:__ZN5physx2Sc15CoreInteraction17isCoreInteractionEPNS0_11InteractionE
rLk:__ZN6il2cpp8metadata24Il2CppGenericInstCompare7CompareERK10KeyWrapperIPK17Il2CppGenericInstES8_
$Fe:__ZThn132_N5physx7profile8ZoneImplINS_28PxProfileNameProviderForwardEED0Ev
E9c:__ZN5physx3Cct13BoxController17setHalfSideExtentEf
O4j:__ZNK15dense_hashtableINSt3__24pairIK10KeyWrapperIPK19Il2CppGenericMethodEPK26Il2CppGenericMethodIndicesEES6_N6il2cpp8metadata23Il2CppGenericMethodHashEN14dense_hash_mapIS6_SA_SE_NS6_14EqualsComparerINSD_26Il2CppGenericMethodCompareEEENS0_9allocatorISB_EEE9SelectKeyESI_SK_E5beginEv
IEf:_ExecuteEvents_Execute_m3049310229
RB:__ZN27AnimationLayerMixerPlayable21UpdateLayerParametersEv
Wnm:_WheelEffects_set_PlayingAudio_m2425046410
Jjk:__ZN6il2cpp2gc19AppendOnlyGCHashMapINSt3__24pairIPK14Il2CppAssemblyP11Il2CppClassEEP24Il2CppReflectionAssembly17ReflectionMapHashIS9_ENS2_8equal_toIS9_EEEC2Ev
vE:__ZN7mecanim9animation16CopyMotionOutputEPKNS0_18AnimationNodeStateEPS1_bbRKNS_6bitsetILj83EEE
iZc:__ZN21InheritVelocityModule8TransferI14SafeBinaryReadEEvRT_
ifc:__ZNK17AnimationCurveTplIfE8EvaluateEfPNS0_5CacheE
wYb:__Z31ManagerContextInitializeClassesv
fpj:_ReadOnlyCollection_1_System_Collections_IList_Contains_m2650112051_gshared
wki:_Array_get_swapper_TisVector3_t3722313464_m1221246401_gshared
O$e:_UNITY_FT_List_Finalize
y1b:__Z20LightAttenuateApproxRKfS0_
$ga:__ZN9Scripting30SetCachedPtrOnScriptingWrapperE18ScriptingObjectPtrP6Object
ZVk:_Mesh_GetIndices_m2873123901
_3h:_Double_ToString_m1229922074_AdjustorThunk
wWh:_RepeatContext_get_IsMinimum_m3640286252
B0d:__ZNK5physx7NpScene8getFlagsEv
prh:_ObjectRecord_ChainFixup_m1889316362
lv:__ZN7mecanim9animation21BlendTreeNodeConstant8TransferI19StreamedBinaryWriteILb0EEEEvRT_
d3a:__ZN18BlockRangeInternal16PopLastNodeIndexEP10BlockRangeji
$Nd:__ZN5physx7NpCloth19setCollisionSpheresEPKNS_22PxClothCollisionSphereEj
XHf:_TouchInputModule_UpdateModule_m2582897964
Ylb:__ZN4MeshD0Ev
eCf:__ZL42RequestRecreateEyeTexturesBeforeNextUpdatev
ftf:__ZN5physx2Sn21RepXVisitorWriterBaseINS_22PxVehicleWheelsSimDataEE23extendedIndexedPropertyINS_3Pvd36PxPvdExtendedIndexedPropertyAccessorILj614ES2_KjNS_18PxVehicleWheelDataEEEKNS_31PxVehicleWheelDataGeneratedInfoEEEvPjRKT_RT0_
QOa:__ZNK6Camera20IsCurrentlyRenderingEv
ED:__ZN21AnimationClipPlayable23ProcessRootMotionNoClipEPK35AnimationPlayableEvaluationConstantPK32AnimationPlayableEvaluationInputP33AnimationPlayableEvaluationOutput
sbf:__Z36CanvasRenderer_CUSTOM_SetPopMaterialP12Il2CppObjectS0_i
FMc:__Z18Transfer_BlittableI9JSONWriteLb0EdEvRK29SerializationCommandArgumentsR31RuntimeSerializationCommandInfo
oYe:_otv_u_O_O_u_O_O
U0a:__ZN6Camera8TransferI19StreamedBinaryWriteILb0EEEEvRT_
I$h:_DBNull_System_IConvertible_ToSByte_m3533624679
hu:__ZN15SerializeTraitsI9OffsetPtrIN7mecanim9animation17BlendTreeConstantEEE8TransferI24GenerateTypeTreeTransferEEvRS4_RT_
zpm:_wctomb
Yeg:_Char_CompareTo_m42489266
sul:__Z67RuntimeInvoker_Void_t1185182177_Int32_t2950945753_Double_t594665363PFvvEPK10MethodInfoPvPS4_
Iyc:__Z27Camera_CUSTOM_GetAllCamerasP11Il2CppArray
Y$c:__ZN11ForceModule8TransferI18StreamedBinaryReadILb0EEEEvRT_
Bd:___cxa_rethrow
bwe:__ZN5physx20InternalTriangleMesh17allocateFaceRemapEv
F2f:_ParameterInfo_GetCustomAttributes_m2376494592
iOc:__Z18Transfer_BlittableI8JSONReadLb1EhEvRK29SerializationCommandArgumentsR31RuntimeSerializationCommandInfo
YOf:_Graphic_get_canvasRenderer_m315509948
EBc:__Z51Register_UnityEngine_Quaternion_INTERNAL_CALL_Slerpv
$kl:__Z90RuntimeInvoker_Void_t1185182177_Int64_t3736567304_Int32_t2950945753_RuntimeObject_IntPtr_tPFvvEPK10MethodInfoPvPS4_
gAm:_glBindRenderbuffer__wrapper
jij:_Dictionary_2_Do_CopyTo_TisInt32_t2950945753_TisInt32_t2950945753_m3384108308_gshared
lSe:__ZN20SpeedTreeWindManager18FillWindPropertiesER19ShaderPropertySheetbPK13SpeedTreeWindRK18SpeedTreeWindTimes
z7h:_CultureInfo_construct_internal_locale_from_name_m3254739477
hUg:_RSASslSignatureDeformatter_VerifySignature_m1061897602
zac:__ZN13MonoBehaviour8SetClassE17ScriptingClassPtr18ScriptingObjectPtr
I1d:__ZNK5physx7NpScene26getBounceThresholdVelocityEv
g8d:__ZN5physx6shdfnd8PoolBaseINS_2Sc12SimStateDataENS0_19ReflectionAllocatorIS3_EEE15disposeElementsEv
Nti:_Array_InternalArray__Insert_TisLabelFixup_t858502054_m171542753_gshared
b6g:_InternalEnumerator_1_System_Collections_IEnumerator_get_Current_m3539708496_AdjustorThunk
Mzb:__ZN20LocalFileSystemPosix4ReadER13FileEntryDatayyPvPy
W4b:__ZNSt3__211__sift_downIRN23ForwardShaderRenderLoop18RenderObjectSorterILb0EEEP21ForwardRenderPassDataEEvT0_S7_T_NS_15iterator_traitsIS7_E15difference_typeES7_
ydi:_SecurityPermission__ctor_m1462427327
Gwm:dynCall_iiiiiiffiiiiiiiiiffffiiii
zSe:__ZN4Tree23VirtualRedirectTransferER24GenerateTypeTreeTransfer
hSb:__ZN13MonoBehaviour5DoGUIENS_13GUILayoutTypeEii
ghh:_ChannelData_get_ClientProviders_m594662942
aHj:_QuickSearch_GetChar_m1297698557
cVa:__ZNK12TLSAllocatorI14StackAllocatorE8ContainsEPKv
$qb:__ZN11TimeManager8TransferI18StreamedBinaryReadILb0EEEEvRT_
Uve:__ZNK5physx13GuMeshFactory19getNbTriangleMeshesEv
f_h:_DateTime__ParseEnum_m253019513
Zog:_Convert_ToUInt32_m2194577773
jmb:__ZN14BlendShapeData8TransferI14SafeBinaryReadEEvRT_
Ted:__ZN5physx2Gu15getPolygonIndexERKNS0_13PolygonalDataEPNS0_12SupportLocalERKNS_6shdfnd3aos5Vec3VE
qga:__ZN15dense_hashtableINSt3__24pairIKyP17VertexDeclarationEEy14GfxGenericHashIyEN14GfxDoubleCacheIyS4_S7_NS0_8equal_toIyEEN31GfxDoubleCacheConcurrencyPolicy11LocklessGetE42GfxDoubleCacheDefaultEmptyDeletedGeneratorIyEE9SelectKeyESA_13stl_allocatorIS5_L18MemLabelIdentifier24ELi16EEE12resize_deltaEjj
Zjg:_Hashtable_Remove_m4032631466
_Jh:_DSAManaged_GenerateKeyPair_m2236915969
$oe:__ZN5physx36normalizePartitionsWithArticulationsERNS_6shdfnd5ArrayIjNS0_19ReflectionAllocatorIjEEEEPNS_23PxcSolverConstraintDescEPKNS_13PxcSolverBodyEjjS5_Pjj
feb:__ZN7Texture25ReloadFromStorageIfNeededEPvb
Hpi:_Array_InternalArray__IndexOf_TisBoolean_t97287965_m1161209222_gshared
t7:__ZN8TypeTreeaSERKS_
zOe:__ZN12TreeDatabase8TransferI17RemapPPtrTransferEEvRT_
yCd:__ZN5physx18NpArticulationLink17setLinearVelocityERKNS_6PxVec3Eb
b5d:__ZN5physx2Sq17SceneQueryManager17processSimUpdatesEv
$vf:__Z34getPxVehicleDriveSimData_GearsDataPKN5physx21PxVehicleDriveSimDataE
Ehg:_SynchronizedArrayListWrapper_Clear_m2191301493
Q0e:_Update_Max
nqk:__ZN6il2cpp6icalls8mscorlib6SystemL15ThrowNoWideningEv
gSe:__ZN14TerrainManager23AfterCullingOutputReadyEPK9IndexListPK16RendererCullData
Kyd:__ZN5physx6shdfnd5ArrayIPvNS0_19ReflectionAllocatorINS_13NpRigidStaticEEEE15growAndPushBackERKS2_
zfc:__ZNK23TransformChangeDispatch24GetChangeMaskForInterestENS_12InterestTypeE
$Wc:__Z14UpdateSpeedTplIL27ParticleSystemCurveEvalMode4EEvRK11MinMaxCurveR23ParticleSystemParticlesjj
jEc:__Z45Transform_CUSTOM_INTERNAL_CALL_TransformPointP12Il2CppObjectRK8Vector3fRS1_
i4d:__ZN5physx10PxsContext25setVisualizationParameterENS_24PxVisualizationParameter4EnumEf
YXf:_GenericTypeParameterBuilder_InvokeMember_m1647304778
Gtf:__ZN5physx2Sn17readAllPropertiesINS_23PxVehicleDriveSimData4WEEEbNS_23PxRepXInstantiationArgsERNS_9XmlReaderEPT_RNS_18XmlMemoryAllocatorERNS_12PxCollectionE
mcb:__ZNSt3__26__treeINS_12__value_typeI39DeprecatedFastPropertyNameSerializationfEENS_19__map_value_compareIS2_S3_NS_4lessIS2_EELb1EEENS_9allocatorIS3_EEE7destroyEPNS_11__tree_nodeIS3_PvEE
Ked:__ZN24ConvexVsHeightfieldSweepC2ERN5physx2Gu15HeightFieldUtilERKNS1_14ConvexHullDataERKNS0_11PxMeshScaleERKNS0_11PxTransformESC_RKNS0_6PxVec3EfNS0_7PxFlagsINS0_9PxHitFlag4EnumEtEEfbb
K_e:_tt_cmap4_char_index
EIf:_AspectRatioFitter_GetParentSize_m3159144324
Ifi:_SecurityFrame_get_Assembly_m2874566710
Vc:invoke_viffffffffffffiiii
J4i:_Enumerator_System_Collections_IEnumerator_Reset_m1487823313_gshared
gzb:__ZNK12HandlerChain8IsHiddenERK13FileEntryData
XGb:__ZL26Transfer_SimpleNativeClassI17RemapPPtrTransfer10RectOffsetLb0EEvRK29SerializationCommandArgumentsR31RuntimeSerializationCommandInfo
fnc:__ZN16GraphicsSettings12CleanupClassEv
kz:__ZNSt3__26vectorIN13AnimationClip15QuaternionCurveE13stl_allocatorIS2_L18MemLabelIdentifier26ELi16EEE6assignINS_11__wrap_iterIPS2_EEEENS_9enable_ifIXaasr21__is_forward_iteratorIT_EE5valuesr16is_constructibleIS2_NS_15iterator_traitsISC_E9referenceEEE5valueEvE4typeESC_SC_
Qsg:_Int32_ToString_m2507389746_AdjustorThunk
R1h:_Decimal_op_Explicit_m438967917
i_j:_AnimatorControllerPlayable_SetHandle_m2260644454_AdjustorThunk
Mgb:__ZN21EnlightenSceneMapping16BuildRemapTablesEv
Pta:__ZNSt3__26vectorIN9ShaderLab20SerializedSubProgram13BufferBindingENS_9allocatorIS3_EEEC2ERKS6_
Psh:_InputField_set_selectionColor_m2084640295
xda:__ZNK9ShaderLab20ShaderBlendStateDesc15ToGfxBlendStateEPK19ShaderPropertySheetS3_R13GfxBlendState
CH:__ZN11UnityEngine9AnimationL22GenericBindingCallbackEPvS1_i
nae:__ZN5physx2Sq8AABBTree11shiftOriginERKNS_6PxVec3E
oya:__ZN9ShaderLab9IntShaderC2Ev
zbk:__ZN6il2cpp6icalls8mscorlib6SystemL9IsPrivateEPK9EventInfo
bKk:__ZN6il2cpp6icalls8mscorlib6System10Reflection4Emit11TypeBuilder20setup_internal_classEP27Il2CppReflectionTypeBuilderS7_
dye:__ZN5physx11AdjacenciesD2Ev
K_d:__ZN5physx6shdfnd8PoolBaseINS_2Sc24ElementInteractionMarkerENS0_19ReflectionAllocatorIS3_EEE12allocateSlabEv
I9d:__ZN5physx2Sq16BucketPrunerCore11shiftOriginERKNS_6PxVec3E
Nfc:__ZN13TrailRenderer26RendererCullingOutputReadyEPP12BaseRendererjRK27ScriptableCullingParametersRK10Matrix4x4f
eqi:_Array_InternalArray__IndexOf_TisILTokenInfo_t2325775114_m2602704009_gshared
Hnf:__ZNK5physx26PxSerializerDefaultAdapterINS_16PxVehicleDrive4WEE12getClassSizeEv
NMi:_StringBuilder_AppendFormat_m3255666490
G_c:__ZN27ParticleSystemReadOnlyState8TransferI24GenerateTypeTreeTransferEEvRT_
HKc:__ZN5Unity9rapidjson6WriterI16TempBufferWriterNS0_4UTF8IcEES4_13JSONAllocatorE11WriteUint64Ey
NTf:_Default_GetBetterMethod_m3232777160
N_f:_TypeBuilder_GetGenericArguments_m2872156836
EYl:__ZL85Object_t631007953_CustomAttributesCacheGenerator_Object_FindObjectsOfType_m2295101757P21CustomAttributesCache
w4d:__ZN5physx6shdfnd5ArrayIPNS_3Scb5ShapeENS0_19ReflectionAllocatorIS4_EEE6resizeEjRKS4_
Wld:__ZN5physx3Cct15ObstacleContextD2Ev
r0j:__ZN13Il2CppHashMapIPK22Il2CppGenericParameterP11Il2CppClassN6il2cpp5utils11PointerHashIS1_EENSt3__28equal_toIS2_EENS9_9allocatorINS9_4pairIK10KeyWrapperIS2_ES4_EEEEEC2EjRKS8_RKSB_
APc:__ZN8JSONRead21TransferSTLStyleArrayI31ArrayOfManagedObjectsTransfererEEvRT_17TransferMetaFlags
OWa:__Z15CreateDirectoryRKN4core12basic_stringIcNS_20StringStorageDefaultIcEEEE
K8a:__Z21CalculateGlobalMatrix23TransformAccessReadOnly
O_f:_TypeBuilder_GetGenericTypeDefinition_m1632720438
Xqi:_MonoProperty_StaticGetterAdapterFrame_TisRuntimeObject_m4131530968_gshared
Lki:_Array_InternalArray__ICollection_Contains_TisLink_t544317964_m163190451_gshared
Y_h:_DateTimeOffset_System_IComparable_CompareTo_m176229495_AdjustorThunk
jUk:_ManagedStreamHelpers_ValidateLoadFromStream_m580138133
erb:__ZNK13BuildSettings22GetTypeVirtualInternalEv
Tae:__ZN5physx2Cm10FanoutTaskC2EPKc
y2i:_List_1_CheckIndex_m2250397830_gshared
q7d:__ZNK5physx2Sc5Scene17prefetchForRemoveERKNS0_8BodyCoreE
Zhc:__Z13RegisterClassI14RenderSettingsEvv
hwd:__ZN5physx2Sc8RigidSimD2Ev
f_f:_PropertyBuilder_GetSetMethod_m128670376
VWh:_Interval_get_Empty_m3617514670
USf:_Assembly_GetName_m981771927
TF:__ZN7mecanim12statemachine24CreateStateMachineOutputEPKNS0_20StateMachineConstantEjRNS_6memory9AllocatorE
D2c:__ZN15CollisionModuleD0Ev
K3d:__ZNK5physx13NpVolumeCache7raycastERKNS_6PxVec3ES3_fRNS_13PxHitCallbackINS_12PxRaycastHitEEENS_7PxFlagsINS_9PxHitFlag4EnumEtEERKNS_17PxQueryFilterDataEPNS_21PxQueryFilterCallbackE
JAa:__ZNK9GfxDevice27GetActiveRenderSurfaceWidthEv
n9l:__ZL114StandaloneInputModule_t2760469101_CustomAttributesCacheGenerator_StandaloneInputModule_ForceAutoSelect_m2837047882P21CustomAttributesCache
nle:__ZN5physx16PxsIslandManagerC2EjRNS_19PxcScratchAllocatorEPNS_2Cm13EventProfilerE
oef:__ZN11UnityEngine15PlatformWrapper28GetCleanGraphicsFixedVersionEv
oyh:_MaskableGraphic_RecalculateClipping_m1772937317
aBg:_UnmanagedMemoryStream_SetLength_m3752964620
zek:__ZN6il2cpp2vm4Type7GetTypeEPK10Il2CppType
i3j:_MinMaxCurve_t1067599125_marshal_pinvoke_back
eie:__ZN5physx13ActorAABBTask11runInternalEv
Zxg:_MemoryStream_SetLength_m974389318
$ob:__ZN18ProceduralMaterial17MainThreadCleanupEv
t0g:_InternalEnumerator_1_get_Current_m165106323_AdjustorThunk
gBf:__Z34PxVehicleWheels4SuspensionRaycastsPN5physx12PxBatchQueryERKNS_23PxVehicleWheels4SimDataERNS_23PxVehicleWheels4DynDataEPKNS_17PxQueryFilterDataEPKbjPNS_14PxRigidDynamicE
z3c:__ZN14ParticleSystem18SetSimulationSpeedEf
xNi:_UTF32Encoding_GetByteCount_m3610769032
CKa:__ZN6prcoreL17RemapGenericFloatI18TexFormatRGBAFloat17TexFormatRGBAHalfEEvPKNS_9InnerInfoE
WZb:__Z16FindCameraStacksRKNSt3__24listI4PPtrI6CameraENS_9allocatorIS3_EEEERNS_6vectorI11CameraStackNS4_ISA_EEEE
UFj:_MatchCollection_CopyTo_m3807326147
BRc:__Z43ParticleSystemRenderer_RenderMultipleMeshesIL21SpriteMaskInteraction0EEvRK15RenderNodeQueueRK18RenderMultipleData17ShaderChannelMask
Egb:__ZN10GISettings8TransferI14SafeBinaryReadEEvRT_
qo:FUNCTION_TABLE_vifff
wdm:__ZL54Text_t1901882714_CustomAttributesCacheGenerator_m_TextP21CustomAttributesCache
cJg:_MD5CryptoServiceProvider__ctor_m3271163125
rbc:__ZN19CustomRenderTexture12ClearGPUDataEv
L9a:__ZN13RenderTexture13ApplySettingsEv
pqh:_ObjectReader_RegisterObject_m1853376334
zZf:_ModuleBuilderTokenGenerator_GetToken_m2588853565
qcg:_Boolean_System_IConvertible_ToDecimal_m3176932461_AdjustorThunk
Cf:_JS_Sound_SetListenerPosition
io:FUNCTION_TABLE_fiffi
$Bh:_ScrollRect_OnInitializePotentialDrag_m3139711961
tNd:__ZN5physx7NpCloth21setLinearInertiaScaleENS_6PxVec3E
RBm:_glGetActiveUniform__wrapper
Ezg:_StreamWriter_LowLevelWrite_m1081676583
Ywb:__ZNK8Material16MarkDependenciesER27GarbageCollectorThreadState
yDh:_Slider_set_handleRect_m1101657556
k$h:_DateTimeOffset_ToString_m3985341516_AdjustorThunk
WDe:__ZN5Unity10FastCookerD2Ev
IMc:__ZL17Transfer_GUIStyleI9JSONWriteLb0EEvRK29SerializationCommandArgumentsR31RuntimeSerializationCommandInfo
Qri:_Array_InternalArray__ICollection_Add_TisContactPoint_t3758755253_m4220022016_gshared
q2b:__Z28GetHaloVertexPositionsStereoP8Vector3fRKS_S2_f
JJe:__ZN17TriggerStayStates20executeDeferredEraseEv
rLa:__ZN6prcoreL27StretchGenericFloatBilinearI15TexFormatRGHalfEEvPKNS_9InnerInfoE
Eha:__GLOBAL__sub_I_runtime_misc_0_cpp
H8h:_SortKey_GetHashCode_m3547067087
r$f:_MemberInfoSerializationHolder_Serialize_m2002453739
vMe:__ZN7Terrain23VirtualRedirectTransferER19StreamedBinaryWriteILb0EE
xhe:__ZN5physx14PxsAABBManager22processAggregateSingleERKNS_19AggregateSortedDataERKNS_9AggregateEjPNS_2Cm10BitMapBaseINS_6shdfnd9AllocatorEEE
mPb:__Z18Transfer_BlittableI18StreamedBinaryReadILb0EELb1E9BoundsIntEvRK29SerializationCommandArgumentsR31RuntimeSerializationCommandInfo
sdm:__ZL71SpriteState_t1362986479_CustomAttributesCacheGenerator_m_DisabledSpriteP21CustomAttributesCache
htf:__ZNK5physx31PxVehicleWheelDataGeneratedInfo23visitInstancePropertiesINS_18RepXPropertyFilterINS_2Sn17RepXVisitorWriterINS_18PxVehicleWheelDataEEEEEEEjT_j
jQe:__ZN7Terrain11GetRendererERK16CoreCameraValuesb
QSi:_Type_GetMethod_m1479779718
x_e:_tt_cmap10_char_index
BQi:_WaitHandle__cctor_m4242752477
cBj:_TlsException__ctor_m3242533711
WLg:_BitConverterLE_GetUIntBytes_m795219058
efa:__Z18GetITerrainManagerv
Xkg:_SortedList__ctor_m3676552745
V0j:__ZN15dense_hashtableINSt3__24pairIK10KeyWrapperIPK22Il2CppGenericParameterEP11Il2CppClassEES6_N6il2cpp5utils11PointerHashIS4_EEN14dense_hash_mapIS6_S9_SE_NS6_14EqualsComparerINS0_8equal_toIS5_EEEENS0_9allocatorISA_EEE9SelectKeyESJ_SL_E3endEv
VY:__ZN11AudioSource24ClearExtensionPropertiesE12PropertyName
dfj:_Array_InternalArray__set_Item_TisColor32_t2600501292_m1891325855_gshared
Vva:__ZN9ShaderLab22SerializedBindChannels8TransferI19StreamedBinaryWriteILb0EEEEvRT_
hFb:__ZN15SerializeTraitsI5RectTIiEE8TransferI14SafeBinaryReadEEvRS1_RT_
bIc:__ZN5IMGUI20MoveWindowFromLayoutER8GUIStateiRK5RectTIfE
v3k:_Vector2_Normalize_m1906922873_AdjustorThunk
q7:__ZNK10MonoScript22GetScriptFullClassNameEv
bXe:_UNITY_FT_Stream_ReadUShort
zAc:__Z51Register_UnityEngine_GUILayer_INTERNAL_CALL_HitTestv
_ra:__ZNSt3__26__treeINS_12__value_typeIN4core12basic_stringIcNS2_20StringStorageDefaultIcEEEES6_EENS_19__map_value_compareIS6_S7_NS_4lessIS6_EELb1EEE13stl_allocatorIS7_L18MemLabelIdentifier1ELi16EEE7destroyEPNS_11__tree_nodeIS7_PvEE
HUf:_AssemblyBuilder_get_Location_m384539722
rGa:__Z13IsDepthFormat14GraphicsFormat
rsb:__ZN12AspectRatios8TransferI24GenerateTypeTreeTransferEEvRT_
WCg:_MonoType_GetFields_m4176012508
Fnd:__Z12FormatBufferPciPKcz
Xbd:__ZN37ConvexVsMeshContactGenerationCallback10processHitERKN5physx12PxRaycastHitERKNS0_6PxVec3ES6_S6_RfPKj
ooe:__ZL28removeBrokenEdgesFromIslandsPKjjS0_jS0_RKN5physx11NodeManagerERNS1_11EdgeManagerERNS1_13IslandManagerERNS1_2Cm10BitMapBaseINS1_6shdfnd9AllocatorEEEPSD_
g1j:__ZN6il2cpp2vm5Class13GetArrayClassEP11Il2CppClassj
VVb:__ZN19RuntimeSceneManager18LoadSceneAsyncIntoER10UnitySceneRKN4core12basic_stringIcNS2_20StringStorageDefaultIcEEEENS_11LoadingModeEb
aIg:_HashAlgorithm_ComputeHash_m2044824070
wo:FUNCTION_TABLE_iifff
iIc:__ZN11IMGUIModule12AddGUIScriptER8ListNodeI13MonoBehaviourE
Db:invoke_difi
ZBf:__Z47Register_UnityEngine_WheelCollider_GetWorldPosev
QMj:_GUILayoutUtility_BeginWindow_m2240221150
GAm:_glDeleteSamplers__wrapper
Fma:__ZL50StaticRegisterSceneLoadedCallback_LightmapSettingsPv
jNh:_HybridDictionary_set_Item_m2997363718
iWa:__ZNSt3__26__treeIiNS_4lessIiEE13stl_allocatorIiL18MemLabelIdentifier1ELi16EEE7destroyEPNS_11__tree_nodeIiPvEE
z6g:_InternalEnumerator_1_get_Current_m1477715453_AdjustorThunk
SNd:__ZNK5physx7NpCloth24getSeparationConstraintsEPNS_35PxClothParticleSeparationConstraintE
PVi:_UInt64_System_IConvertible_ToUInt32_m2784653358
YFa:__ZN21GLESGpuProgramApplier11ApplyVectorERKN20GpuProgramParameters14ValueParameterEPK8Vector4ft
kdf:__ZN22BaseUnityConnectClient17SaveSessionValuesEv
xFg:_SByte_System_IConvertible_ToDecimal_m2548745278
bUe:_cff_size_done
A7b:__ZN29ExtractProjectionPlanesHelperILb1EE5ApplyERK10Matrix4x4fP5Plane
Soe:__ZN5physx6shdfnd5ArrayINS_17PxcSolverBodyDataENS0_16AlignedAllocatorILj128ENS0_19ReflectionAllocatorIS2_EEEEE6resizeEjRKS2_
tnc:__ZN13ProduceHelperI7CubemapLb0EE7ProduceE10MemLabelId18ObjectCreationMode
Jbc:__ZN6Camera34UpdatePreviousViewProjectionMatrixEv
Pwa:__ZN9ShaderLab11ShaderState25RemoveUnsupportedProgramsEPK6Shader
hnm:_CarAudio_StopSound_m2960369050
I6e:__Z28Font_Get_Custom_PropMaterialP12Il2CppObject
LUk:_Mathf_Abs_m3281243566
dAg:_SynchronizedWriter_WriteLine_m1552352268
Ruc:__Z26scripting_class_has_parent17ScriptingClassPtrS_
DKe:__ZN13ProduceHelperI9RigidbodyLb0EE7ProduceE10MemLabelId18ObjectCreationMode
Dla:__ZN13RuntimeStaticI21AssetReferenceStorageLb0EE16StaticInitializeEPv
Off:__ZNSt3__26__treeINS_12__value_typeIN4core12basic_stringIcNS2_20StringStorageDefaultIcEEEEN11UnityEngine7Connect19RemoteSettingsValueEEENS_19__map_value_compareIS6_SA_NS_4lessIS6_EELb1EEE13stl_allocatorISA_L18MemLabelIdentifier6ELi16EEE16__construct_nodeERKNS_4pairIKS6_S9_EE
Wrg:_Int32_System_IConvertible_ToByte_m3832391412_AdjustorThunk
$Z:__Z71Register_UnityEngine_AudioSource_INTERNAL_CALL_ClearExtensionPropertiesv
tmf:__ZNK5physx18PxVehicleDriveTank8isKindOfEPKc
EMk:__ZN6il2cpp8metadata25Il2CppGenericClassCompare7CompareEPK18Il2CppGenericClassS4_
TK:__ZNK8Animator20IsInMatchTargetStateEv
f2g:_InternalEnumerator_1_System_Collections_IEnumerator_get_Current_m4088805473_gshared
QIc:__Z36Register_UnityEngine_GUI_set_changedv
Ljh:_Context_GetServerContextSinkChain_m3154465897
GNj:_GUIStyle_get_fixedHeight_m2868324709
xVc:__Z11EvaluateHDRIL12GradientMode1ELS0_1EEN4math8floatNx4ERK14MinMaxGradientRKNS1_7_float4ES8_
aog:_Convert_ToInt64_m2075293963
j6a:__ZN17LightBakingOutput8TransferI24GenerateTypeTreeTransferEEvRT_
lNd:__ZN5physx7NpCloth13setTargetPoseERKNS_11PxTransformE
Mom:__GLOBAL__sub_I_Il2CppCodeRegistration_cpp
oF:__ZN27AnimationLayerMixerPlayable18SetInputConnectionEP8Playablei
ZE:__ZN7mecanim28TransformValueArrayBlendNodeEiiiRKNS_10ValueArrayERKNS_14ValueArrayMaskERS0_RS3_RNS_16ValueArrayWeightEf
_Mf:_Dropdown_set_value_m1048320169
U3a:__ZN20TierGraphicsSettings8TransferI18StreamedBinaryReadILb0EEEEvRT_
tsg:_Int32_System_IConvertible_ToUInt64_m2502338186_AdjustorThunk
kpa:__Z33CleanupCubemapGPUUtilityMaterialsPv
ccb:__ZN14SafeBinaryRead8TransferINSt3__24pairIN9ShaderLab16FastPropertyNameE10ColorRGBAfEEEEvRT_PKc17TransferMetaFlags
G_j:__ZL9rshift128PyS_
Rrg:_Int16_ToString_m2072232391_AdjustorThunk
kGi:_Enumerator_VerifyState_m169680537_AdjustorThunk
ulk:__ZN14dense_hash_mapI10KeyWrapperINSt3__24pairIPK12PropertyInfoP11Il2CppClassEEEj17ReflectionMapHashIS8_ENS9_14EqualsComparerINS1_8equal_toIS8_EEEENS1_9allocatorINS2_IKS9_jEEEEE13set_empty_keyERSH_
uh:_glRenderbufferStorage
Luk:__ZNK15dense_hashtableINSt3__24pairIK10KeyWrapperINS1_IPKcS4_EEEiEES6_24NamespaceAndNamePairHashN14dense_hash_mapIS6_iS9_NS6_14EqualsComparerI26NamespaceAndNamePairEqualsEENS0_9allocatorIS8_EEE9SelectKeyESD_SF_E13find_positionERS7_
kBc:__Z45Register_UnityEngine_Input_get_touchSupportedv
sef:__ZN11UnityEngine15PlatformWrapper28GetTextureFormatSupportFlagsEv
HU:__ZN11AudioSource23VirtualRedirectTransferER19StreamedBinaryWriteILb0EE
_ih:_RemotingConfiguration_RegisterWellKnownClientType_m1237674062
vKj:_Uri_EscapeString_m3864445955
QUe:_cf2_setError
nmb:__ZN14SafeBinaryRead21TransferSTLStyleArrayI13dynamic_arrayI12BoneWeights4Lj16EEEEvRT_17TransferMetaFlags
K9g:_Enumerator_MoveNext_m465222849_AdjustorThunk
TYb:__ZZ23InitPlayerLoopCallbacksvEN35PreUpdateSendMouseEventsRegistrator7ForwardEv
SOa:__ZNK6Camera25GetNormalizedViewportRectEP13RenderTextureb
$Mf:_Dropdown_Awake_m3140021404
Hh:_glDisable
gab:__ZN13RenderTexture8TransferI24GenerateTypeTreeTransferEEvRT_
zyg:_NullStream_Seek_m1914924606
G3k:_Vector2_get_sqrMagnitude_m837837635
dUl:__ZL59WritableAttribute_t812406054_CustomAttributesCacheGeneratorP21CustomAttributesCache
rDk:__ZN6il2cpp5utils11StringUtils15StringDuplicateEPKDsj
$M:__ZZN8Animator15InitializeClassEvEN37FunctorImpl_417kDidModifyOverrideClip4CallEPviR11MessageData
jIj:_Regex_Match_m4145799399
XD:__ZN17AnimationPlayable17ProcessRootMotionEP35AnimationPlayableEvaluationConstantP32AnimationPlayableEvaluationInputP33AnimationPlayableEvaluationOutput
Mmm:_CarController_get_CurrentSpeed_m1180399154
pii:_String_IsNullOrEmpty_m2969720369
jdh:_Enumerator_MoveNext_m2602845255_gshared
cYj:_TextGenerator_GetPreferredHeight_m3514897836
LHh:_BigInteger_LowestSetBit_m3082714978
yti:_Array_InternalArray__Insert_TisKeyValuePair_2_t2530217319_m1769848997_gshared
Kfd:__ZN5physx10getInverseERNS_7PxMat33ERNS_6PxVec3ERKS0_RKS2_
UDm:b118
WDm:b119
plf:__ZN5physx23PxVehicleWheels4SimDataC2Ev
RZb:__ZNK8Material12GetPassCountEv
Cai:_RSAParameters_t1728406613_marshal_pinvoke
cXh:_Interval_IsDisjoint_m1532171337_AdjustorThunk
xCm:b112
ztm:_bitshift64Ashr
EDm:b114
PDm:b115
SDm:b116
TDm:b117
ivm:dynCall_diii
oxh:_LayoutUtility_GetFlexibleWidth_m22831835
$ph:_BinaryFormatter__ctor_m971003555
jXg:_ArrayReadOnlyList_1_ReadOnlyError_m865416608_gshared
Nig:_CollectionBase_System_Collections_IList_get_Item_m3743372945
Myg:_Stream_ReadByte_m4291052673
uei:_Evidence_GetEnumerator_m302914965
RHa:__ZN4crnd12crn_unpacker22decode_alpha_endpointsEv
m$j:_Physics_Raycast_m1896872038
b5i:_Queue_1__ctor_m2068090025_gshared
f8b:__Z23CullDynamicObjectsUmbraPK4AABBPKN5Umbra15OcclusionBufferER9IndexList
L_e:_tt_cmap4_char_next
C7:__ZN4core8hash_mapIi17ThreadedAwakeDataNS_4hashIiEENSt3__28equal_toIiEEE4growEi
kVc:__ZN11ForceModule6UpdateERK27ParticleSystemReadOnlyStateRK19ParticleSystemStateR23ParticleSystemParticlesjjRKN4math7_float4E
s6k:__Z50RuntimeInvoker_Boolean_t97287965_Int16_t2552820387PFvvEPK10MethodInfoPvPS4_
dNe:__ZN7Terrain8TransferI18StreamedBinaryReadILb0EEEEvRT_
ing:_Convert_ToDecimal_m1233667008
uml:__Z44RuntimeInvoker_RuntimeObject_Ray_t3785851493PFvvEPK10MethodInfoPvPS4_
B7:__ZN4core8hash_mapIi17ThreadedAwakeDataNS_4hashIiEENSt3__28equal_toIiEEE4growEv
iha:__GLOBAL__sub_I_runtime_assetbundles_1_cpp
zR:__ZN4FMOD7Channel11setPositionEjj
zi:_glBindSampler
MGk:_GC_reclaim_block
lPg:_ClientContext_get_ClientHelloProtocol_m1654639078
ADd:__ZN5physx2Sc8BodyCore20clearSpatialVelocityEbb
Di:_glGetVertexAttribiv
Adh:_Enumerator_System_Collections_IEnumerator_get_Current_m1975949486_gshared
BGj:_PatternCompiler_EmitSub_m193323684
LFh:_MSCompatUnicodeTable_Category_m1834196420
a8e:__ZN2UI11CanvasGroup23VirtualRedirectTransferER18StreamedBinaryReadILb0EE
Usg:_Int64_System_IConvertible_ToByte_m375085029
ame:__ZN5physx2Sc27ConstraintProjectionManagerC2Ev
NPc:__ZN8JSONRead8TransferIbEEvRT_PKc17TransferMetaFlagsb
$qd:__ZN5physx6shdfnd5ArrayIPvNS0_19ReflectionAllocatorINS_2Sc24ElementInteractionMarkerEEEE4copyINS0_15InlineAllocatorILj256ES6_EEEEvRKNS1_IS2_T_EE
HRi:_TimeSpan_ToString_m1128692466
cLd:__ZNK5physx7NpShape15getGeometryTypeEv
Lkm:_MobileInput_GetButtonDown_m504405365
EPj:_AesManaged_CreateEncryptor_m2294080233
Nkf:__ZN5physx22PxVehicleWheelsDynData22setTireForceShaderDataEjPKv
aMj:_Event_GetHashCode_m3559153592
pFk:_GC_promote_black_lists
Tmg:_Convert_ToChar_m3757390865
BQc:__Z29Transfer_Blittable_ArrayFieldI8JSONRead8Vector4fEvRT_R9ArrayInfoRK23StaticTransferFieldInfo
HTf:_Binder_GetDerivedLevel_m3216810447
wp:FUNCTION_TABLE_vd
yp:FUNCTION_TABLE_vi
Cia:__ZN13RuntimeStaticI37UnityShaderCompilerExtPluginConfigureLb0EE16StaticInitializeEPv
Uuc:__ZN10systeminfo24GetRuntimePlatformStringEv
OMi:_StringBuilder_AppendFormat_m2403596038
QHg:_DSASignatureDeformatter_SetHashAlgorithm_m3186995552
Kmj:_ReadOnlyCollection_1_System_Collections_Generic_ICollectionU3CTU3E_Clear_m2772202961_gshared
Mee:__ZN5physxL25solveContact4_StaticBlockEPKNS_23PxcSolverConstraintDescERNS_16PxcSolverContextE
FN:__ZNK8Animator17HasBoundPlayablesEv
YJc:__ZN5Unity9rapidjson13GenericReaderINS0_4UTF8IcEES3_13JSONAllocatorE10ParseFalseILj0ENS0_19GenericStringStreamIS3_EENS0_15GenericDocumentIS3_S4_S4_EEEEvRT0_RT1_
pPi:_SynchronizationContext_SetSynchronizationContext_m1249070039
Ckd:__ZNK5physx3Cct17CapsuleController15getFootPositionEv
TBf:__Z33WheelCollider_CUSTOM_GetWorldPoseP12Il2CppObjectP8Vector3fP11Quaternionf
l2i:_List_1_AddEnumerable_m1267044261_gshared
Kal:__Z99RuntimeInvoker_Void_t1185182177_RuntimeObject_Int32_t2950945753_SByte_t1669577662_SByte_t1669577662PFvvEPK10MethodInfoPvPS4_
Rbk:__ZN6il2cpp2vm7Runtime9SetConfigEPKc
CKc:__ZN5Unity9rapidjson12PrettyWriterI16TempBufferWriterNS0_4UTF8IcEES4_13JSONAllocatorE10StartArrayEv
z4c:__ZN14qsort_internal30FindAndMovePivotToLastPositionIP22ParticleRibbonSortDataiNSt3__27greaterIS1_EEEEvT_S6_T0_T1_
Aa:invoke_iiifiii
c$k:_RectTransform_INTERNAL_get_pivot_m2970933031
nxj:_UnityAction_1_Invoke_m927447181_gshared
osk:__ZN6il2cpp2vm9Exception11FromNameMsgEPK11Il2CppImagePKcS6_S6_
Vn:FUNCTION_TABLE_fiiifii
Tee:__ZN5physx25solveContact_BStaticBlockEPKNS_23PxcSolverConstraintDescEjRNS_16PxcSolverContextE
Eoa:__Z14GetTimeManagerv
KPk:_Color32_op_Implicit_m213813866
E_k:_RectOffset_set_top_m713260669
Mhf:__ZN19TransportJavaScript7CleanupEv
WZa:__Z12GUIDToStringRK9UnityGUIDPc
Bla:__ZN15FileSystemEntry4LockE12FileLockModeP12FileAccessor
zDm:_emscripten_glDrawArrays__wrapper
Csg:_Int32_Equals_m2976157357
pdd:__ZL4facejjjRN5physx6PxVec3ERKS0_S3_S3_PfRf
I4d:__ZN5physx6shdfnd5ArrayIPNS_2Sc14ConstraintCoreENS0_19ReflectionAllocatorIS4_EEE6resizeEjRKS4_
_Bj:_BasicConstraintsExtension_Encode_m2009213240
YU:__ZN11AudioSource22UnmuteActiveVideoSinksEv
aBj:_TlsException__ctor_m3717683709
oDk:__ZN4utf88internal20is_overlong_sequenceIiEEbjT_
B$a:__Z9SetLocalR15TransformAccessRKN4math7_float4Ey
uXc:__Z11StartCircleILN11ShapeModule14MultiModeValueE1EEvRS0_R23ParticleSystemParticlesRK19ParticleSystemStateRK27ParticleSystemEmissionStateRKN4math8float3x3ERKNSB_8float4x4Ejbj
Jpe:__ZL18getFrictionPatchesRN5physx26PxcFrictionPatchStreamPairERNS_20PxcCorrelationBufferEPKhjRKNS_11PxTransformES8_f
lzc:__Z41Register_UnityEngine_Cursor_get_lockStatev
A3b:__Z14SetupLightmapsRK8Vector4fS1_R17ShaderPassContext
Ujk:__ZN14dense_hash_mapI10KeyWrapperIPK14Il2CppAssemblyEPK22Il2CppMonoAssemblyNameN6il2cpp5utils11PointerHashIS2_EENS4_14EqualsComparerINSt3__28equal_toIS3_EEEENSD_9allocatorINSD_4pairIKS4_S7_EEEEE13set_empty_keyERSJ_
$ab:__ZL20InitializeGUIShadersv
e9h:_Guid_CompareTo_m243656946
Pfc:__Z20DestroyObjectDelayedP6Objectf
a4:__ZN20DynamicHeapAllocatorI17LowLevelAllocatorED0Ev
LJc:__Z45Register_UnityEngine_GUIUtility_set_mouseUsedv
Bml:__Z159RuntimeInvoker_Boolean_t97287965_Vector3U26_t3464235976_Vector3U26_t3464235976_RaycastHitU26_t2429360258_Single_t1397266774_Int32_t2950945753_Int32_t2950945753PFvvEPK10MethodInfoPvPS4_
Bjc:__ZN11TimeManagerC2E10MemLabelId18ObjectCreationMode
nBe:__ZN8Collider16RecreateColliderEPK9Rigidbody
Y0b:__ZN9DepthPassD2Ev
G6c:__Z17UpdateSprites2TplIL27ParticleSystemCurveEvalMode2ELS0_1EEvfRK11MinMaxCurveS3_RK23ParticleSystemParticlesPf
rQ:__ZN11AudioFilter6GetDSPEv
C3k:_Vector2_Equals_m832062989
Bai:_RSACryptoServiceProvider_OnKeyGenerated_m863837376
mId:__ZN5physx2Sc14ConstraintCore9setBodiesEPNS0_9RigidCoreES3_
tAh:_Scrollbar_OnDrag_m4289602768
oka:__ZN19RuntimeSceneManager14CanUnloadSceneEP10UnityScene
_0b:__Z22ExtractRenderNodeQueueRK11CullResults15ExtractionFlagsR15RenderNodeQueue
yYa:__ZN20ArchiveStorageReader31TryToReadDirectoryFromBlockDataEyPKvj
wP:__ZN24AudioScriptBufferManagerC2Ev
u4e:__ZNSt3__26vectorIh13stl_allocatorIhL18MemLabelIdentifier1ELi16EEE8__appendEj
j4g:_InternalEnumerator_1_System_Collections_IEnumerator_get_Current_m3854084659_AdjustorThunk
QJc:__ZN8JSONRead32GetValueForKeyWithNameConversionEPKN5Unity9rapidjson12GenericValueINS1_4UTF8IcEE13JSONAllocatorEEPKc
mWg:_U3CGetEnumeratorU3Ec__Iterator0_System_Collections_IEnumerator_get_Current_m283764921_gshared
w4e:__ZN20TextRenderingPrivate8FontImpl16ResetPackingDataEv
h6h:_CultureInfo_get_IcuName_m2258611679
ALc:__Z18Transfer_BlittableI9JSONWriteLb0EfEvRK29SerializationCommandArgumentsR31RuntimeSerializationCommandInfo
cHa:__Z21GetAsyncUploadManagerv
qk:_emscripten_glDetachShader
e5l:__ZL58FocusType_t718022695_CustomAttributesCacheGenerator_NativeP21CustomAttributesCache
vAd:__ZNK5physx2Sc15ArticulationSim16createDriveCacheEfj
SGa:__ZN17GenericDynamicVBO20ReleaseChunkInternalERK21DynamicVBOChunkHandlejj
H6e:__ZL27CleanupModule_TextRenderingv
_pm:_fmodl
WLh:_SymmetricTransform_OFB_m3842617151
Bod:__ZN5physx6shdfnd5ArrayIPNS_3Scb5ActorENS0_19ReflectionAllocatorIS4_EEE6resizeEjRKS4_
_Vb:__ZN19RuntimeSceneManager11CreateSceneEv
nPk:_Color__ctor_m286683560
iGj:_PatternCompiler_Emit_m1540115729
VYe:_ps_get_standard_strings
b4b:__Z27SetupBakedOcclusionForLightbRK15SharedLightDataR17ShaderPassContext
Cmi:_Array_InternalArray__ICollection_Remove_TisQuaternion_t2301928331_m3013369755_gshared
Gz:__ZN24GenerateTypeTreeTransfer8TransferIN13AnimationClip9PPtrCurveEEEvRT_PKc17TransferMetaFlags
zKi:_EncoderFallbackException__ctor_m1051987327
qJd:__ZN5physx7NpScene14removeMaterialERNS_10NpMaterialE
Lud:__ZN5physx16PxsIslandManager24setEdgeArticulationJointERKNS_20PxsIslandManagerHookIjLj4294967295EEE
o0h:_Decimal_System_IConvertible_ToBoolean_m1123794670
sDd:__ZN5physx2Sc10NPhaseCore25addToDirtyInteractionListEPNS0_15CoreInteractionE
SLe:__ZL18AddSliverTrianglesPjjii
qsl:__Z98RuntimeInvoker_Int32_t2950945753_RaycastResult_t3360306849_RaycastResult_t3360306849_RuntimeObjectPFvvEPK10MethodInfoPvPS4_
h1c:__ZN27ParticleSystemReadOnlyState5ResetEv
zxh:_Mask__ctor_m1269055150
$Nl:__ZL99WaitHandle_t1743403487_CustomAttributesCacheGenerator_WaitHandle_t1743403487____Handle_PropertyInfoP21CustomAttributesCache
PQh:_WebRequest_AddPrefix_m3187775913
u_b:__Z18RenderImageFiltersR10RenderLoopb
obf:__Z43CanvasRenderer_Get_Custom_PropMaterialCountP12Il2CppObject
m4b:__ZNSt3__227__insertion_sort_incompleteIR23CompareReflectionProbesP31RuntimeReflectionProbeBlendInfoEEbT0_S5_T_
N_i:_List_1_Remove_m1457733883_gshared
WQc:__ZN8JSONRead21TransferSTLStyleArrayI13dynamic_arrayI11QuaternionfLj4EEEEvRT_17TransferMetaFlags
Oqe:__ZN5physx2Cm12DelegateTaskINS_2Sc5SceneEXadL_ZNS3_19islandGenSecondPassEPNS_10PxBaseTaskEEEE11runInternalEv
yy:__ZNSt3__26vectorIN13AnimationClip10FloatCurveE13stl_allocatorIS2_L18MemLabelIdentifier26ELi16EEE6assignINS_11__wrap_iterIPS2_EEEENS_9enable_ifIXaasr21__is_forward_iteratorIT_EE5valuesr16is_constructibleIS2_NS_15iterator_traitsISC_E9referenceEEE5valueEvE4typeESC_SC_
MSc:__ZN15CollisionModule9ResetSeedERK27ParticleSystemReadOnlyState
Du:__ZN18StreamedBinaryReadILb0EE21TransferSTLStyleArrayI22OffsetPtrArrayTransferI9OffsetPtrIN7mecanim12statemachine18TransitionConstantEEEEEvRT_17TransferMetaFlags
fvc:__ZN19RuntimeSceneManager32LoadSceneAsyncByNameOrBuildIndexERKN4core12basic_stringIcNS0_20StringStorageDefaultIcEEEEiNS_11LoadingModeEb
KId:__ZN5physx6shdfnd4sortIPvNS0_4LessIS2_EENS0_19ReflectionAllocatorINS_10NpMaterialEEEEEvPT_jRKT0_RKT1_j
SMg:_MD4Managed_Encode_m386285215
Ula:__ZN10InputEventD2Ev
jsc:__ZN24CompressedAnimationCurve18DecompressTimeKeysI11QuaternionfEEvR17AnimationCurveTplIT_E
$x:__ZN7mecanim4hand8HandPoseC2Ev
Tif:__ZN22UnityWebRequestManagerD2Ev
QLj:_Event_get_character_m1666742088
Ild:__ZN5physx3Cct15ObstacleContext13onOriginShiftERKNS_6PxVec3E
Fpm:_isalpha
Pmg:_Convert_ToChar_m1442101407
aVg:_SslClientStream_OnLocalPrivateKeySelection_m1934775249
zrf:__Z43setPxVehicleWheelsSimData_WheelEnabledStatePN5physx22PxVehicleWheelsSimDataEjb
hvd:__ZN5physx6shdfnd5ArrayIPNS_2Sc7BodySimENS0_19ReflectionAllocatorIS4_EEE8recreateEj
m$h:_DateTimeOffset_get_Offset_m2040541042_AdjustorThunk
ilm:_TouchPad_UpdateVirtualAxes_m1567451020
N9j:__ZN6il2cpp2vmL17IsSocketAsyncCallEP14Il2CppDelegate
Akg:_Slot_t3975888750_marshal_pinvoke_back
sUc:__ZNK13TriggerModule6UpdateERK24ParticleSystemUpdateDataR23ParticleSystemParticlesjRKf
OCk:__ZN6il2cpp2vm6String6NewLenEPKcj
$uh:_Selectable_get_image_m1928917691
UTb:__ZN17PersistentManager9AddStreamEv
Il:_time
gLf:_ContentSizeFitter_set_verticalFit_m1831566876
Zci:_TripleDESCryptoServiceProvider_CreateDecryptor_m740960117
zol:__Z122RuntimeInvoker_Void_t1185182177_Color_t2555686324_Single_t1397266774_SByte_t1669577662_SByte_t1669577662_SByte_t1669577662PFvvEPK10MethodInfoPvPS4_
Wpd:__ZNK5physx2Sc8ShapeSim15getPxsRigidCoreEv
oqa:__ZN18SpriteAtlasManagerD2Ev
zUk:_Material_EnableKeyword_m329692301
_qd:__ZN5physx2Sc20ContactStreamManager28fillInContactReportExtraDataEPNS_17PxContactPairPoseEjRKNS0_8RigidSimEb
DVe:_cf2_stack_free
mOd:__ZN5physx7NpCloth23removeCollisionTriangleEj
Vbi:_SHA512Managed_HashCore_m2377807474
JVc:__Z9UpdateTplIL27ParticleSystemCurveEvalMode4EEvRK11MinMaxCurveR23ParticleSystemParticlesPfRKN4math7_float4EjjRK8Vector2f
sQe:__ZN12TreeRenderer16UpdateProbeIndexEii
xL:__ZN8Animator31ClearInternalControllerPlayableEv
cSa:__ZN26SinglePassStereoSupportExt18AfterSetViewMatrixEv
bof:__ZN5physx3Pvd17PvdPropertyFilterINS_2Sn17RepXVisitorReaderINS_22PxVehicleWheelsDynDataEEEE27handleExtendedIndexPropertyILj631ES4_fKjNS_18PxUnknownClassInfoEEEvjRKNS_29PxExtendedIndexedPropertyInfoIXT_ET0_T2_T1_EERKT3_
$Nk:_Bounds__ctor_m1937678907_AdjustorThunk
H0k:_SetupCoroutine_InvokeMember_m2661944898
EDi:_HashSet_1__ctor_m620629637_gshared
qRh:_X509EnhancedKeyUsageExtension_ToString_m350388564
Rce:__ZNK5physx2Gu29EPASupportMapPairRelativeImplINS0_9TriangleVENS0_11ConvexHullVEE9doSupportERKNS_6shdfnd3aos5Vec3VERS7_SA_SA_
Gfk:__ZN15dense_hashtableINSt3__24pairIK10KeyWrapperINS1_IPK9FieldInfoP11Il2CppClassEEEjEES9_17ReflectionMapHashIS8_EN14dense_hash_mapIS9_jSD_NS9_14EqualsComparerINS0_8equal_toIS8_EEEENS0_9allocatorISB_EEE9SelectKeyESI_SK_E4findERSA_
rhg:_SimpleEnumerator_MoveNext_m3113120129
ZVb:__ZN13LoadOperationC2E10MemLabelId
J8a:__ZNK9Transform21GetLocalToWorldMatrixEv
hsh:_InputField_SendOnValueChanged_m2560301445
I9b:__ZN13RenderTexture19SetAutoGenerateMipsEb
yIa:__Z20GetTextureFormatInfo13TextureFormat
emc:__Z40InitializeLightAnimationBindingInterfacev
WNg:_RSAManaged_ToXmlString_m2369501989
wG:__ZN26AnimatorControllerPlayable8GetFloatEiRf
Ylh:_LogicalCallContext__ctor_m1263247987
zYh:_DateTime_System_IConvertible_ToSingle_m2193708681_AdjustorThunk
bXh:_Interval_get_Size_m4163671410_AdjustorThunk
cRf:_Image_get_alphaHitTestMinimumThreshold_m2015654453
Azl:__ZL64String_t_CustomAttributesCacheGenerator_String_Split_m3580120853P21CustomAttributesCache
kJk:__ZN6il2cpp5utils10MemoryPool6MallocEj
QO:__ZN11SoundHandle8InstanceD2Ev
M3f:_ResourceEnumerator_Reset_m3754276504
gpa:__ZN31CanvasBatchIntermediateRenderer13StaticDestroyEPv
N8:__ZNSt3__23mapIiP15MonoScriptCacheNS_4lessIiEE13stl_allocatorINS_4pairIKiS2_EEL18MemLabelIdentifier78ELi16EEEixERS7_
h3d:__ZNK5physx2Sc5Scene20getBroadPhaseRegionsEPNS_22PxBroadPhaseRegionInfoEjj
qRc:__Z35ParticleSystemRenderer_RenderMeshesIL21SpriteMaskInteraction0EEvRK15RenderNodeQueuej17ShaderChannelMaski
dBm:_emscripten_glBindProgramARB__wrapper
d$k:_RectTransform_set_pivot_m909387058
pSj:_AudioSource_get_pitch_m2141937929
izc:__Z41Register_UnityEngine_CullingGroup_Disposev
Snm:_Suspension_Update_m397275684
uFd:__ZN5physx14NpShapeManagerD2Ev
FGj:_PatternCompiler_EmitRepeat_m697083858
Ueb:__ZN7Cubemap23VirtualRedirectTransferER19StreamedBinaryWriteILb0EE
kHk:_GC_split_block
GYa:__ZN25MultiBlocksMemoryFileData5WriteEyyPKv
n3f:_ResourceReader_Read7BitEncodedInt_m3568166465
Ftf:__ZN5physx2Sn17readAllPropertiesINS_22PxVehicleWheelsSimDataEEEbNS_23PxRepXInstantiationArgsERNS_9XmlReaderEPT_RNS_18XmlMemoryAllocatorERNS_12PxCollectionE
l0j:_Rigidbody_INTERNAL_set_centerOfMass_m1285151140
MYj:_CanvasGroup_set_alpha_m4032573
G9f:_Array_get_LongLength_m978104875
gMa:__ZL17ProgramUniform2fvPK7ApiGLESjiihPKv
oBm:b83
JEd:__ZN5physx2Sc5Scene16removeConstraintERNS0_14ConstraintCoreE
q4e:__ZN20TextRenderingPrivate8FontImpl21HasCharacterInTextureEjijfPj
KYk:_Quaternion_Euler_m3049309462
tyb:__ZNSt3__227__insertion_sort_incompleteIRPFbRK23TransformAccessReadOnlyS3_EPS1_EEbT0_S8_T_
R2k:_Transform_SetAsFirstSibling_m253439912
aZh:_DateTime_System_IConvertible_ToUInt16_m4182197229_AdjustorThunk
WWh:_Interval_get_IsDiscontiguous_m3016063288
qVg:_SslStreamBase_get_CheckCertRevocationStatus_m2739906607
arm:_htonl
gEa:__Z20GetBufferManagerGLESv
nBm:b82
dci:_SHA512Managed_Sigma1_m922902398
iQb:__ZN18StreamedBinaryReadILb0EE21TransferSTLStyleArrayI31ArrayOfManagedObjectsTransfererEEvRT_17TransferMetaFlags
z6d:__ZN5physx2Sc18ParticleSystemCore18addDeltaVelocitiesERKNS_2Cm10BitMapBaseINS_6shdfnd9AllocatorEEEPKNS_6PxVec3Ef
KEa:__ZNSt3__26__treeI22DeviceStencilStateGLES14MemoryCompLessI18DeviceStencilStateENS_9allocatorIS1_EEE12__find_equalIS1_EERPNS_16__tree_node_baseIPvEESD_RKT_
LOc:__Z18Transfer_BlittableI8JSONReadLb0EtEvRK29SerializationCommandArgumentsR31RuntimeSerializationCommandInfo
sne:__ZN5physx6shdfnd8PoolBaseINS_2Sc16ActorElementPairENS0_19ReflectionAllocatorIS3_EEE12allocateSlabEv
B2c:__ZN18ColorBySpeedModuleD0Ev
E7h:_CultureInfo_CreateCulture_m1493441763
Rci:_TripleDES_IsWeakKey_m2147489852
UJd:__ZNK5physx9NpPhysics17getNbClothFabricsEv
iH:__ZN34AnimationStateMachineMixerPlayable13EndTransitionEv
hDk:__ZNSt3__212basic_stringIDsNS_11char_traitsIDsEENS_9allocatorIDsEEE9__grow_byEjjjjjj
xvc:__ZN9Transform19SetLocalEulerAnglesERK8Vector3fN4math13RotationOrderE
Llb:__ZNK19ShaderPropertySheet11HasPropertyERKN9ShaderLab16FastPropertyNameE
Cvm:dynCall_viffffii
vK:__ZN15AllocatorTraitsIN8Animator11AnimatorJobELb0EE13CopyConstructEPS1_RKS1_10MemLabelId
lrl:__Z81RuntimeInvoker_Boolean_t97287965_NavigationU26_t1807167253_Navigation_t3049316579PFvvEPK10MethodInfoPvPS4_
qDm:_emscripten_glUniform1fv__wrapper
qQf:_GridLayoutGroup_SetLayoutHorizontal_m2838109254
ag:___setErrNo
rF:__ZN27AnimationLayerMixerPlayable22PrepareAnimationEventsEfR13dynamic_arrayI22AnimationClipEventInfoLj4EE
Ctd:__ZN5physx2Sc16InteractionScene19registerInteractionEPNS0_11InteractionEb
zCb:__Z18Transfer_BlittableI14SafeBinaryReadLb1E4AABBEvRK29SerializationCommandArgumentsR31RuntimeSerializationCommandInfo
pee:__ZN5physx19solveContactCoulombERKNS_23PxcSolverConstraintDescERNS_16PxcSolverContextE
nIk:_GC_set_no_dls
BKf:_ColorBlock_set_normalColor_m254595671_AdjustorThunk
rWi:_UnauthorizedAccessException__ctor_m40101894
c3g:_InternalEnumerator_1_get_Current_m1007906068_gshared
Oqd:__ZNK5physx2Sc9ActorPair23createContactReportDataEv
H3j:__ZN15dense_hashtableINSt3__24pairIK10KeyWrapperIPK11Il2CppClassEPKcEES6_N6il2cpp5utils11PointerHashIS3_EEN14dense_hash_mapIS6_S9_SE_NS6_14EqualsComparerINS0_8equal_toIS5_EEEENS0_9allocatorISA_EEE9SelectKeyESJ_SL_E15set_deleted_keyERKSA_
thg:_SimpleEnumerator_Reset_m1520014659
EP:__ZN9AudioClip7WWWOpenEPKciPjPPvS4_
oQg:_ClientRecordProtocol_createServerHandshakeMessage_m2804371400
ACd:__ZN5physx18NpArticulationLink18setAngularVelocityERKNS_6PxVec3Eb
qCb:__Z18Transfer_BlittableI14SafeBinaryReadLb0E8Vector2fEvRK29SerializationCommandArgumentsR31RuntimeSerializationCommandInfo
mRg:_Context_set_ProtocolNegotiated_m2904861662
Juk:__ZN15dense_hashtableINSt3__24pairIK10KeyWrapperINS1_IPKcS4_EEEiEES6_24NamespaceAndNamePairHashN14dense_hash_mapIS6_iS9_NS6_14EqualsComparerI26NamespaceAndNamePairEqualsEENS0_9allocatorIS8_EEE9SelectKeyESD_SF_E12resize_deltaEjj
woh:_RemotingServices_GetRemoteObject_m2117098022
OBf:__Z35WheelCollider_Get_Custom_PropRadiusP12Il2CppObject
xqi:_Array_InternalArray__IndexOf_TisRaycastResult_t3360306849_m2722567441_gshared
rcj:_Collection_1_System_Collections_IList_IndexOf_m4256072926_gshared
E9k:__Z132RuntimeInvoker_Boolean_t97287965_RuntimeObject_Int32_t2950945753_Int32_t2950945753_RuntimeObject_Int32_t2950945753_Int32_t2950945753PFvvEPK10MethodInfoPvPS4_
eBc:__Z53Register_UnityEngine_Input_INTERNAL_get_mousePositionv
$Da:__ZN7ApiGLES12DrawElementsE16GfxPrimitiveTypePKvjjjj
lLh:_EncryptedPrivateKeyInfo_get_Salt_m3453455261
bsh:_InputField_get_shouldHideMobileInput_m2205078558
h_h:_DateTime__ParseNumber_m1240316250
e9d:__ZN5physx6shdfnd8PoolBaseINS_2Sc19ShapeInstancePairLLENS0_19ReflectionAllocatorIS3_EEE15disposeElementsEv
Rkh:_LeaseManager__ctor_m4015084757
NY:__ZNK11AudioSource8GetPitchEv
s$g:_InternalEnumerator_1_get_Current_m3839250771_gshared
g7h:_CultureInfo_get_TextInfo_m2342840448
Fgd:__ZN5physx2Gu14sweepTriSphereERKNS_10PxTriangleERKNS_6PxVec3ES6_fS6_Rf
tff:__ZThn1044_N18UnityConnectClientD0Ev
Nd:_SDL_GetTicks
fSc:__Z8EvaluateRK11MinMaxCurveRKN4math7_float4ES5_
Chk:__ZN15dense_hashtableINSt3__24pairIK10KeyWrapperINS1_IPK11Il2CppImageP11Il2CppClassEEEjEES9_17ReflectionMapHashIS8_EN14dense_hash_mapIS9_jSD_NS9_14EqualsComparerINS0_8equal_toIS8_EEEENS0_9allocatorISB_EEE9SelectKeyESI_SK_E6insertERKSB_
M7b:__Z21CreateShadowCullerJobP30CreateUmbraShadowCullerJobData
rOd:__ZNK5physx7NpCloth21getNbVirtualParticlesEv
cqe:__ZN5physx17PxcNpMemBlockPool23releaseConstraintBlocksERNS_6shdfnd5ArrayIPNS_13PxcNpMemBlockENS1_19ReflectionAllocatorIS4_EEEE
cqj:_ReadOnlyCollection_1_System_Collections_Generic_ICollectionU3CTU3E_Remove_m4072504734_gshared
_La:__ZL18ProgramUniform2uivPK7ApiGLESjiihPKv
scm:__ZL69Scrollbar_t1494447233_CustomAttributesCacheGenerator_m_OnValueChangedP21CustomAttributesCache
kJf:_U3COnFinishSubmitU3Ec__Iterator0_MoveNext_m2729496168
SCm:_glUniform4iv__wrapper
M4b:__Z33GenerateShadowCasterPartsSortDataRK16ShadowCasterDatajRK15RenderNodeQueueRKNSt3__26vectorI20ShadowCasterPartData13stl_allocatorIS7_L18MemLabelIdentifier2ELi16EEEERK10Matrix4x4fRjP20ShadowCasterSortData
gZb:__ZZ23InitPlayerLoopCallbacksvEN51PostLateUpdateTriggerEndOfFrameCallbacksRegistrator7ForwardEv
kRi:_TimeSpan_Compare_m753151303
xFb:__Z29Transfer_Blittable_ArrayFieldI14SafeBinaryRead9BoundsIntEvRT_R9ArrayInfoRK23StaticTransferFieldInfo
vDd:__ZN5physx2Sq17SceneQueryManager13markForUpdateEPNS0_10ActorShapeE
KUe:_cf2_computeDarkening
PZj:_AnimationLayerMixerPlayable__ctor_m860721801_AdjustorThunk
Q1f:_MonoPropertyInfo_get_property_info_m1599555644
nHg:_DESTransform_CipherFunct_m3527261721
LFk:_GC_expand_hp_inner
ywk:__ZNK15dense_hashtableI10KeyWrapperIP18Il2CppGenericClassES3_N6il2cpp8metadata22Il2CppGenericClassHashEN14dense_hash_setIS3_S6_NS3_14EqualsComparerINS5_25Il2CppGenericClassCompareEEENSt3__29allocatorIS3_EEE8IdentityESA_SD_E12test_deletedEj
fFc:__Z25Screen_Get_Custom_PropDpiv
BHj:_Parser_ParseSpecial_m1961501104
dDk:__ZN4utf812find_invalidIPKcEET_S3_S3_
gx:__ZNK13AnimationClip8IsLegacyEv
buh:_InputField_OnEndDrag_m4127187089
Bsj:_ReadOnlyCollection_1_System_Collections_IList_RemoveAt_m2555465054_gshared
dFk:_GC_err_printf
G2h:_StackFrame__ctor_m343464319
_0:__ZN11UnityEngine15CloudWebService20WebRequestRestClient7PrepareEv
Z0f:_MonoField_CheckGeneric_m453069507
d4e:__ZN20TextRenderingPrivate19NativeTextGenerator23FixLineHorizontalOffsetEiii
wUf:_CustomAttributeNamedArgument_ToString_m1488801416_AdjustorThunk
zhg:_SynchronizedArrayListWrapper_get_IsFixedSize_m3396437476
Dqh:_ObjectReader_ReadArrayOfString_m3550800559
WBg:_MonoCustomAttrs_GetCustomAttributesInternal_m648304078
uI:__ZN7mecanim9animation19DestroyAnimationSetEPNS0_12AnimationSetERNS_6memory9AllocatorE
Oxm:_emscripten_glDepthRange__wrapper
M9:__ZN14SerializedFile7ReleaseEv
AAb:__ZN16MemoryFileSystem4OpenER13FileEntryData14FilePermission16FileAutoBehavior
As:__ZNK18AnimatorController28HasMultiThreadedStateMachineEv
J6h:_CompareInfo_GetSortKey_m1915852346
u1e:_ft_var_load_avar
Xoa:__ZN13RuntimeStaticI13RendererSceneLb0EE13StaticDestroyEPv
U6g:_DefaultComparer_Compare_m1297750557_gshared
LPg:_CipherSuiteCollection_get_Item_m3790183696
EIb:__Z18Transfer_BlittableI24GenerateTypeTreeTransferLb1E12PropertyNameEvRK29SerializationCommandArgumentsR31RuntimeSerializationCommandInfo
fQj:_Toggle_OnEnable_m1421694809
bmc:__ZN5Light15InitializeClassEv
mrb:__ZN14SafeBinaryRead21TransferSTLStyleArrayI10vector_mapIPKN5Unity4TypeE7Hash128NSt3__24lessIS5_EENS7_9allocatorINS7_4pairIS5_S6_EEEEEEEvRT_17TransferMetaFlags
DP:__ZN9AudioClip18GetQueuedAudioDataEPPvj
u6e:__ZN20TextRenderingPrivate21TextMeshGeneratorImpl14GarbageCollectEv
Hrc:__ZNK9Texture2D17CheckHasPixelDataEv
rKb:__Z18Transfer_BlittableI19StreamedBinaryWriteILb0EELb0E9BoundsIntEvRK29SerializationCommandArgumentsR31RuntimeSerializationCommandInfo
pOd:__ZNK5physx7NpCloth16getCollisionDataEPNS_22PxClothCollisionSphereEPjPNS_21PxClothCollisionPlaneES3_PNS_24PxClothCollisionTriangleE
H0b:__Z18SetShadowsKeywordsR17ShaderPassContext9LightType10ShadowType16ShadowProjectionbb
uPf:_Graphic_GetPixelAdjustedRect_m3729397999
tlk:__ZN14dense_hash_mapI10KeyWrapperINSt3__24pairIPK12PropertyInfoP11Il2CppClassEEEj17ReflectionMapHashIS8_ENS9_14EqualsComparerINS1_8equal_toIS8_EEEENS1_9allocatorINS2_IKS9_jEEEEEC2EjRKSB_RKSF_
Tlc:__ZN17CollisionMeshDataC2Ev
egh:_Dictionary_2_ToTValue_m692436965_gshared
J9d:__ZN5physx2Sq11PruningPool11preallocateEj
b5f:_Marshal_Copy_m1222846562
vgb:__ZN16LightmapSettings23VirtualRedirectTransferER19StreamedBinaryWriteILb0EE
jZb:__ZZ23InitPlayerLoopCallbacksvEN47PostLateUpdateMemoryFrameMaintenanceRegistrator7ForwardEv
bEa:__ZN7ApiGLES20SetVertexArrayAttribEjj12VertexFormathjPKv
Cp:FUNCTION_TABLE_viiififii
wGk:_GC_push_next_marked
pog:_Convert_ToSByte_m2653811524
Wvb:__ZN18IDCollectorFunctor18GenerateInstanceIDEi17TransferMetaFlags
AXj:_TextGenerationSettings_Equals_m3618607189_AdjustorThunk
_Nh:_NameObjectCollectionBase_BaseAdd_m3437748750
WDd:__ZN5physx2Sc17ParticleSystemSim15onRbShapeChangeERKNS0_19ParticlePacketShapeERKNS0_8ShapeSimE
DSi:_Type_internal_from_handle_m3156085815
iKf:_CanvasUpdateRegistry_SortLayoutList_m471948466
Uqe:__ZN5physx27updateIslandsSecondPassMainEjRNS_2Cm10BitMapBaseINS_6shdfnd9AllocatorEEEPKjjRNS_11NodeManagerERNS_11EdgeManagerERNS_13IslandManagerERNS_23ArticulationRootManagerERNS_33ProcessSleepingIslandsComputeDataERNS_30IslandManagerUpdateWorkBuffersEPNS0_13EventProfilerE
roj:_ReadOnlyCollection_1_System_Collections_Generic_ICollectionU3CTU3E_Add_m69722965_gshared
SL:__ZN8Animator8TransferI19StreamedBinaryWriteILb0EEEEvRT_
hba:__ZNSt3__27__sort4IRNS_6__lessI14ObjectLoadDataS2_EEPS2_EEjT0_S6_S6_S6_T_
oBh:_ScrollRect_get_rectTransform_m2442061719
$oc:__Z22PlayableValidityChecksRK9HPlayableb
Ssb:__ZN15ResourceManagerD2Ev
Zyc:__Z41Register_UnityEngine_Camera_GetAllCamerasv
IRk:_InvokableCall__ctor_m2158562079
VHj:_Assertion__ctor_m2128950829
igf:__ZN28PerformanceReportingSettings8TransferI14SafeBinaryReadEEvRT_
nxb:__ZN15CacheWriterBase18GetAddressOfMemoryEv
R5f:_Buffer_BlockCopy_m2884209081
TOc:__Z18Transfer_BlittableI8JSONReadLb1E5RectTIiEEvRK29SerializationCommandArgumentsR31RuntimeSerializationCommandInfo
fJd:__ZN5physx10NpMaterial17resolveReferencesERNS_24PxDeserializationContextE
Pqk:__ZN6il2cpp2vm22EmbeddedResourceRecordC2ERKS1_
EWb:__ZL20DrawVBOChunkWithPassP6ShaderPN9ShaderLab4PassER17ShaderPassContextR10DynamicVBORK21DynamicVBOChunkHandle
H8i:_Collection_1__ctor_m825528237_gshared
Peb:__ZN9Texture2D13AwakeFromLoadE17AwakeFromLoadMode
hni:_SetPropertyUtility_SetStruct_TisColorBlock_t2139031574_m1748367426_gshared
uWk:_PlayerConnection_get_instance_m1750121257
vyk:__ZN6il2cpp2vm3RCW14QueryInterfaceILb0EEEP14Il2CppIUnknownP15Il2CppComObjectRK10Il2CppGuid
eKa:__ZN6prcoreL17RemapGenericFloatI15TexFormatRFloat18TexFormatARGBFloatEEvPKNS_9InnerInfoE
gdl:__Z85RuntimeInvoker_Void_t1185182177_Int64_t3736567304_Int32_t2950945753_Int64_t3736567304PFvvEPK10MethodInfoPvPS4_
GOg:_CipherSuite__ctor_m2440635082
Gai:_RSAPKCS1KeyExchangeFormatter_SetRSAKey_m1477802943
EGj:_PatternCompiler_EmitJump_m3915926156
FYc:__ZN12LightsModule20ResetUsedLightsCacheEv
Ixd:__ZN5physx6shdfnd8PoolBaseINS_2Sc19ParticlePacketShapeENS0_19ReflectionAllocatorIS3_EEE15disposeElementsEv
jId:__ZN5physx7NpActor15removeConnectorERNS_7PxActorENS_15NpConnectorType4EnumEPNS_6PxBaseEPKc
$he:__ZN5physx19ActorAABBUpdateTask11runInternalEv
fhf:__ZN11UnityEngine15PlatformWrapper20GetPlayerPrefsUInt64ERKN4core12basic_stringIcNS1_20StringStorageDefaultIcEEEEy
a5f:_Marshal_copy_from_unmanaged_m2834266824
x5c:__Z19UpdateWholeSheetTplIL27ParticleSystemCurveEvalMode1EEvfRK11MinMaxCurveS3_RK23ParticleSystemParticlesPf
q4b:__ZN20ReflectionProbeCacheC2ER13BatchRendererR15RenderLoopStats
Iom:_ResetTrigger_OnTriggerEnter_m804321893
_Zk:_Rect_set_xMax_m1720695099_AdjustorThunk
yzb:__ZNK12HandlerChain6ExistsERK13FileEntryData
ere:__ZN5physx10PxsContext28runModifiableContactManagersEv
a5b:__Z30FindDirectAttenuationFromProbeP18ForwardLightsBlockbiRK10RenderNodeRK23FindForwardLightsParamsf
Jsc:__ZNSt3__26vectorIj13stl_allocatorIjL18MemLabelIdentifier1ELi16EEE6assignIPKjEENS_9enable_ifIXaasr21__is_forward_iteratorIT_EE5valuesr16is_constructibleIjNS_15iterator_traitsIS9_E9referenceEEE5valueEvE4typeES9_S9_
yqb:__ZN12InputManager23VirtualRedirectTransferER24GenerateTypeTreeTransfer
Dyb:__ZN9Transform23VirtualRedirectTransferER24GenerateTypeTreeTransfer
xne:__ZN5physx21PxsBodyTransformVault7addBodyERKNS_11PxsBodyCoreE
fTe:__ZN14TerrainManagerC2Ev
RGc:__ZN12GUIClipState10BeginOnGUIER10InputEvent
Lxa:__ZNSt3__26vectorIN9ShaderLab20SerializedSubProgram12UAVParameterENS_9allocatorIS3_EEE21__push_back_slow_pathIKS3_EEvRT_
C$c:__ZN18ColorBySpeedModule8TransferI17RemapPPtrTransferEEvRT_
Qil:__Z87RuntimeInvoker_RuntimeObject_Byte_t1134296376_RuntimeObject_RuntimeObject_RuntimeObjectPFvvEPK10MethodInfoPvPS4_
pQg:_HandshakeMessage_Process_m810828609
P$e:_UNITY_tt_size_ready_bytecode
P2e:__ZN13TextRendering4FontD2Ev
DYk:_Quaternion_Inverse_m1311579081
w5e:_UNITY_FT_Stream_Open
L_c:__ZN10SizeModule8TransferI24GenerateTypeTreeTransferEEvRT_
GJb:__Z29Transfer_Blittable_ArrayFieldI24GenerateTypeTreeTransfer9BoundsIntEvRT_R9ArrayInfoRK23StaticTransferFieldInfo
jZa:__ZN10MemoryFile4ReadEyyPvPy
HBd:__ZN5physx2Sc21ArticulationJointCore13setParentPoseERKNS_11PxTransformE
E5a:__ZN8keywords18KeywordSetToStringERK16ShaderKeywordSetRN4core12basic_stringIcNS3_20StringStorageDefaultIcEEEE
mYf:_GenericTypeParameterBuilder_GetGenericArguments_m2988765390
NXe:_otv_MATH_validate
fgj:_Array_Resize_TisColor32_t2600501292_m2781660956_gshared
smc:__ZZL23RegisterLightPropertiesR22GenericPropertyBindingEN22Wrapper_LightIntensity13SetFloatValueEPvf
dO:__ZN4FMOD3DSP12setParameterEif
pUb:__ZN13MemoryManager16StaticInitializeEv
i7h:_CultureInfo_Equals_m1360976324
FC:__ZN21AnimationClipPlayable16ProcessHumanPassEPK35AnimationPlayableEvaluationConstantPK32AnimationPlayableEvaluationInputP33AnimationPlayableEvaluationOutput
r$l:__ZL69PersistentCall_t3407714124_CustomAttributesCacheGenerator_m_CallStateP21CustomAttributesCache
hS:__ZN4FMOD22FakeModChannelCallbackEPv
MCf:_BaseInput_get_compositionString_m1887614380
_f:_emscripten_glValidateProgram
q4a:__ZN4Mesh10CreateMeshEv
Lee:__ZN5physx36solveContactPreBlock_WriteBackStaticEPKNS_23PxcSolverConstraintDescEjRNS_16PxcSolverContextEPNS_25PxcThresholdStreamElementEjPi
Wsc:__ZN17CollisionMeshData21GetSharedNxConvexMeshER4Mesh
GZh:_DateTime_CompareTo_m3889078633
lVe:_cf2_stack_clear
ZOh:_RemoteCertificateValidationCallback_Invoke_m727898444
Lum:dynCall_viiiiiiiiiiiiiiiiiiiiiiiiiiiiiiiiii
Sqg:_NumberFormatter_set_CurrentCulture_m1358228087
J9b:__ZN7Texture13SetAnisoLevelEi
m$:__ZNSt3__26__treeINS_12__value_typeIN4core12basic_stringIcNS2_20StringStorageDefaultIcEEEEjEENS_19__map_value_compareIS6_S7_NS_4lessIS6_EELb1EEE13stl_allocatorIS7_L18MemLabelIdentifier88ELi16EEE7destroyEPNS_11__tree_nodeIS7_PvEE
oga:__ZN19EndOfFrameCallbacks7EnqueueEP18EndOfFrameCallbackb
Vbh:_ShimEnumerator_get_Current_m2901126692_gshared
PTk:_Input_set_compositionCursorPos_m1909373301
l5e:_raccess_guess_vfat
fel:__Z78RuntimeInvoker_IntPtr_t_SByte_t1669577662_RuntimeObject_BooleanU26_t4125257963PFvvEPK10MethodInfoPvPS4_
wcf:__Z44Canvas_CUSTOM_GetETC1SupportedCanvasMaterialv
z1h:_Decimal_decimalSetExponent_m3707787243
P$c:__ZN13InitialModule8TransferI18StreamedBinaryReadILb0EEEEvRT_
k1d:__ZN5physx7NpScene26setSimulationEventCallbackEPNS_25PxSimulationEventCallbackEh
Htk:__ZN14dense_hash_mapI10KeyWrapperIP14Il2CppIUnknownEjN6il2cpp5utils11PointerHashIS1_EENS3_14EqualsComparerINSt3__28equal_toIS2_EEEENS9_9allocatorINS9_4pairIKS3_jEEEEE13set_empty_keyERSF_
SFa:__ZN15dense_hashtableINSt3__24pairIK9TextureIDiEES2_14GfxGenericHashIS2_EN14GfxDoubleCacheIS2_iS6_NS0_8equal_toIS2_EEN31GfxDoubleCacheConcurrencyPolicy11LocklessGetE42GfxDoubleCacheDefaultEmptyDeletedGeneratorIS2_EE9SelectKeyES9_13stl_allocatorIS4_L18MemLabelIdentifier24ELi16EEE12resize_deltaEjj
d2a:__Z21DestroyShadowMapCacheP14ShadowMapCache
Orc:__Z21CountTrianglesInStripItEjPKT_j
zjj:_Array_InternalArray__get_Item_TisLabelFixup_t858502054_m3276643490_gshared
Tkk:__ZN15dense_hashtableINSt3__24pairIK10KeyWrapperIPK10Il2CppTypeEjEES6_N6il2cpp8metadata14Il2CppTypeHashEN14dense_hash_mapIS6_jSB_NS6_14EqualsComparerINSA_26Il2CppTypeEqualityComparerEEENS0_9allocatorIS8_EEE9SelectKeyESF_SH_E14squash_deletedEv
Qrk:__ZN6il2cpp2vm13LivenessState5ResetEv
Lpd:__ZN5physx6shdfnd4sortIPvNS0_4LessIS2_EENS0_19ReflectionAllocatorINS_2Sc16ActorElementPairEEEEEvPT_jRKT0_RKT1_j
bLc:__ZN9JSONWrite8TransferI11KeyframeTplIfEEEvRT_PKc17TransferMetaFlags
glg:_SortedList_GetImpl_m3689246167
lye:__ZN5physx2Gu15EdgeListBuilder18ComputeActiveEdgesEjPKjPKtPKNS_6PxVec3Ef
bHa:__ZN24BuiltinShaderParamValuesC2Ev
qLc:__ZL41CreateJSONTransferFunctionScriptingTraitsv
qra:__ZN6Shader23VirtualRedirectTransferER14SafeBinaryRead
E$d:__ZN5physx17PxsContactManagerC2EPNS_10PxsContextEj
Q4k:_WaitForSecondsRealtime_get_keepWaiting_m846832224
rSb:__Z23GetLateBehaviourManagerv
dbl:__Z33RuntimeInvoker_Single_t1397266774PFvvEPK10MethodInfoPvPS4_
Tmd:__ZN5physx6shdfnd5ArrayIPNS_7PxShapeENS0_15InlineAllocatorILj64ENS0_19ReflectionAllocatorIS3_EEEEE6resizeEjRKS3_
v5:__ZN10MemoryPool10DeallocateEPv
iHc:__ZN8GUIState8SetEventERK10InputEvent
HEc:__Z39Register_UnityEngine_Transform_get_rootv
_ll:__Z80RuntimeInvoker_Void_t1185182177_ScriptableRenderContext_t274343796_RuntimeObjectPFvvEPK10MethodInfoPvPS4_
JMc:__ZL17Transfer_GUIStyleI9JSONWriteLb1EEvRK29SerializationCommandArgumentsR31RuntimeSerializationCommandInfo
Xce:__ZN5physx2Gu22gjkRelativePenetrationINS0_9TriangleVENS0_10ShrunkBoxVEEEjRKT_RKT0_RKNS_6shdfnd3aos15PsMatTransformVERKNSB_6FloatVERNSB_5Vec3VESJ_SJ_RSF_PhSL_Rh
svm:dynCall_vif
tvm:dynCall_vid
rog:_Convert_ToSByte_m4075629912
uvm:dynCall_vii
wom:_U3CCountStartU3Ec__Iterator0_Reset_m2532974068
JKh:_KeyPairPersistence_FromXml_m746585742
Dji:_Decoder__ctor_m4046021500
ZPb:__Z18Transfer_BlittableI18StreamedBinaryReadILb0EELb0EdEvRK29SerializationCommandArgumentsR31RuntimeSerializationCommandInfo
kyj:_UnityEvent_1_Invoke_m2734859485_gshared
Gak:__ZN6il2cpp6icalls8mscorlib6System8MonoType18GetFields_internalEP20Il2CppReflectionTypeiS5_
Uba:__ZN5Unity9Component16CheckConsistencyEv
H1f:_MonoMethod_get_ContainsGenericParameters_m3860345224
Jeg:_Char_System_IConvertible_ToInt64_m1630543716_AdjustorThunk
tea:__ZN19ShaderPropertySheet37CreateTextureAuxPropertyUninitializedEN9ShaderLab16FastPropertyNameES1_PKc
VKb:__ZL26Transfer_SimpleNativeClassI19StreamedBinaryWriteILb0EE10RectOffsetLb1EEvRK29SerializationCommandArgumentsR31RuntimeSerializationCommandInfo
Xie:__ZN5physx20PxcContactCapsuleBoxERKNS_2Gu13GeometryUnionES3_RKNS_11PxTransformES6_RKfRNS_10PxcNpCacheERNS0_13ContactBufferE
wFm:b128
mgk:__ZN15dense_hashtableINSt3__24pairIK10KeyWrapperIPK10Il2CppTypeEjEES6_N6il2cpp8metadata14Il2CppTypeHashEN14dense_hash_mapIS6_jSB_NS6_14EqualsComparerINSA_26Il2CppTypeEqualityComparerEEENS0_9allocatorIS8_EEE9SelectKeyESF_SH_E3endEv
qCa:__ZN13GfxDeviceGLES17SetGpuProgramNameEP10GpuProgramPKc
l1:__ZNK11UnityEngine15CloudWebService25WebRequestDownloadHandler11GetProgressEv
wVh:_CategoryUtils_CategoryFromName_m1352081402
zri:_Array_InternalArray__ICollection_Add_TisMonoResource_t4103430009_m2699164149_gshared
tsf:__ZN5physx3Pvd17PvdPropertyFilterINS_2Sn17RepXVisitorWriterINS_22PxVehicleWheelsSimDataEEEE27handleExtendedIndexPropertyILj620ES4_iKjNS_18PxUnknownClassInfoEEEvjRKNS_29PxExtendedIndexedPropertyInfoIXT_ET0_T2_T1_EERKT3_
HBk:__ZN6il2cpp2os20FileErrnoToErrorCodeEi
Zbb:__ZN14SafeBinaryRead19TransferSTLStyleMapINSt3__23mapI39DeprecatedFastPropertyNameSerialization10ColorRGBAfNS1_4lessIS3_EENS1_9allocatorINS1_4pairIKS3_S4_EEEEEEEEvRT_17TransferMetaFlags
b0h:_Decimal_ThrowAtPos_m1170269346
YVl:__ZL98GameObject_t1113636619_CustomAttributesCacheGenerator_GameObject_SendMessage_m3720186693____value1P21CustomAttributesCache
Jh:_atexit
lNe:__ZN11TerrainData21AwakeFromLoadThreadedEv
u3f:_ResourceReader_ReadNonPredefinedValue_m2638853518
_Ch:_Selectable_set_image_m3625164794
w3g:_InternalEnumerator_1_get_Current_m1232221964_gshared
ZZc:__ZN25IParticleSystemProperties8PropertyIiNS_5ClampILi0ELi2EEEE8TransferI14SafeBinaryReadEEvRT_PKc
Lrj:_ReadOnlyCollection_1_System_Collections_Generic_IListU3CTU3E_Insert_m1818924748_gshared
ujk:__ZN6il2cpp2vmL31GetObjectForMissingDefaultValueEj
Ukd:__ZN5physx3Cct17CapsuleController6resizeEf
zIf:_AspectRatioFitter__ctor_m2468506840
uud:__ZN5physx6shdfnd8PoolBaseINS_2Cm5BlockIhLj384EEENS0_19ReflectionAllocatorIS4_EEE12allocateSlabEv
Vbe:__Z13sweepAABBAABBRKN5physx6PxVec3ES2_S2_S2_S2_S2_
Ddf:__ZN11UnityEngine15PlatformWrapper30GetVRPlayAreaBoundaryDimensionEv
BDj:_X509Certificate_get_Hash_m410033711
gua:__ZN9ShaderLab14SerializedPassC2ERKS0_
zLc:__Z35Transfer_Blittable_FixedBufferFieldI9JSONWritehEvRK29SerializationCommandArgumentsR31RuntimeSerializationCommandInfo
$Jd:__ZN5physx9NpPhysics20createParticleSystemEjb
l:STACKTOP
rXe:_cff_get_name_index
Lye:__ZN5physx17ConvexHullBuilder14CreateEdgeListEv
$pc:__ZN17TransformInternal27UpdateDeepChildCountUpwardsER18TransformHierarchyii
Vfi:_Single_System_IConvertible_ToBoolean_m1716619219_AdjustorThunk
LEf:_ExecuteEvents_Execute_m3613826831
Hce:__ZN5physxL24PxcSweepCapsuleTrianglesERKNS_11PxsCCDShapeES2_RKNS_11PxTransformES5_S5_S5_fRNS_6PxVec3ES7_RNS_10PxcNpCacheERNS_18PxcNpThreadContextERKNS_2Cm23FastVertex2ShapeScalingERNS_2Gu9TriangleVEf
nMf:_Image_set_type_m2038193736
A:tempBigIntD
f9b:__ZNK25CameraStackRenderingState25CalculateCameraTargetTypeEv
z:tempBigIntI
y:tempBigIntR
x:tempBigIntS
w:tempBigIntP
no:FUNCTION_TABLE_viffi
V4e:_open_face_PS_from_sfnt_stream
lba:__ZN6Object18RegisterInstanceIDEPS_
jIb:__Z18Transfer_BlittableI24GenerateTypeTreeTransferLb1EsEvRK29SerializationCommandArgumentsR31RuntimeSerializationCommandInfo
Txk:__ZN15dense_hashtableINSt3__24pairIK10KeyWrapperIP12Il2CppObjectEN6il2cpp2gc9CachedCCWEEES5_NS7_5utils11PointerHashIS3_EEN14dense_hash_mapIS5_S9_SD_NS5_14EqualsComparerINS0_8equal_toIS4_EEEENS0_9allocatorISA_EEE9SelectKeyESI_SK_E11set_deletedER30dense_hashtable_const_iteratorISA_S5_SD_SM_SI_SK_E
wza:__ZNK9GfxDevice18GetWorldViewMatrixEv
Hpl:__Z70RuntimeInvoker_Single_t1397266774_Single_t1397266774_Int32_t2950945753PFvvEPK10MethodInfoPvPS4_
pdi:_X509Certificate_GetPublicKey_m4184729161
uee:__ZN5physx34solveContactCoulombPreBlock_StaticEPKNS_23PxcSolverConstraintDescEjRNS_16PxcSolverContextE
Oog:_Convert_ToUInt16_m3902921832
NSf:_Assembly_GetTypes_m1724781913
YFl:__ZL54TypeBuilder_t1073948154_CustomAttributesCacheGeneratorP21CustomAttributesCache
SMe:__ZN14SplatMaterials14UpdateSpecularERK11ColorRGBA32f
bEk:__ZN6il2cpp6icalls8mscorlib6System7Convert17Base64ToByteArrayEPDsib
F8c:__ZN15ParticlesModule18SyncSimulationJobsEv
_ke:__ZN5physx2Gu18pcmContactPlaneBoxERKNS0_13GeometryUnionES3_RKNS_11PxTransformES6_RKfRNS0_5CacheERNS0_13ContactBufferE
aIi:_List_1_AddEnumerable_m376418521_gshared
guc:__Z13EulerToMatrixRK8Vector3fR10Matrix3x3f
$im:_VirtualInput_AxisExists_m20278768
Vil:__Z79RuntimeInvoker_Void_t1185182177_Byte_t1134296376_Byte_t1134296376_RuntimeObjectPFvvEPK10MethodInfoPvPS4_
$5j:__ZNSt3__218__insertion_sort_3IRN6il2cpp5utils11collections13ArrayValueMapIPK10Il2CppType17Il2CppInteropData26InteropDataToTypeConverterNS1_8metadata14Il2CppTypeLessENSA_26Il2CppTypeEqualityComparerEE12SortComparerEPS8_EEvT0_SH_T_
wDd:__ZN5physx6shdfnd5ArrayIPNS_2Sq10ActorShapeENS0_19ReflectionAllocatorIS4_EEE15growAndPushBackERKS4_
Blf:__ZN18WheelFrictionCurve8TransferI18StreamedBinaryReadILb0EEEEvRT_
MZh:_DateTime_SpecifyKind_m3332658812
Aza:__ZNK9GfxDevice25GetDeviceProjectionMatrixEv
ra:invoke_iidiii
f5c:__Z4SortRK10Matrix4x4fS1_R23ParticleSystemParticles22ParticleSystemSortModeR31ParticleSystemParticlesTempData
EY:__ZN12AudioManager33GetCurrentAmbisonicDefinitionNameE31UnityAudioEffectDefinitionFlags
fwc:__ZN11UTF16StringC2EPKc10MemLabelId
Gfd:__ZL13midPhaseQueryRKN5physx22PxTriangleMeshGeometryERKNS_11PxTransformERNS_2Gu3BoxERNS6_9ContainerE
QNc:__ZN9JSONWrite8TransferI13dynamic_arrayI4AABBLj4EEEEvRT_PKc17TransferMetaFlags
j_:__ZN5physx14PxLightCpuTask15removeReferenceEv
bYc:__ZN23ParticleSystemParticles17SetUses3DRotationEv
rzk:__ZN6il2cpp6icalls8mscorlib6System6String22RedirectToCreateStringEv
LFl:__ZL99ILGenerator_t1388622344_CustomAttributesCacheGenerator_ILGenerator_Mono_GetCurrentOffset_m993338688P21CustomAttributesCache
Owh:_LayoutRebuilder_ReapplyDrivenProperties_m2581469389
uWc:__ZNK11NoiseModule14CalculateNoiseILi2ELb0ELb1EEEvR23ParticleSystemParticlesRK27ParticleSystemReadOnlyStatejjRKN4math7_float4E
epe:__ZN5physx6shdfnd5ArrayINS_24PxsConstraintBatchHeaderENS0_19ReflectionAllocatorIS2_EEE8recreateEj
qYk:_PropertyName_op_Implicit_m1633828199
Jea:__ZN9ShaderLab6TexEnvC2ERKNS_25SerializedTexturePropertyE
Cuh:_InputField_Append_m687033660
y$a:__ZN9Transform32SetLocalScaleWithoutNotificationERKN4math7_float3Ey
jbb:__ZN19ShaderPropertySheet38CopyTextureWithAuxiliaryPropertiesFromERKN9ShaderLab16FastPropertyNameERKS_
b4e:__ZN20TextRenderingPrivate19NativeTextGeneratorD2Ev
x9j:__ZN6il2cpp2vm19SocketPollingThread14DequeueRequestEv
TXi:_List_1_CheckIndex_m2109147658_gshared
oBk:__ZL10RevealLinkPv
_Xh:_DateTime__ctor_m12900168_AdjustorThunk
Tqd:__ZN5physx6shdfnd8PoolBaseINS_2Sc26ActorPairContactReportDataENS0_19ReflectionAllocatorIS3_EEE12allocateSlabEv
_Qg:_ClientSessionCache_FromContext_m343076119
nj:___cxa_end_catch
Lci:_ToBase64Transform_TransformBlock_m2497349397
dTe:__ZL24InitializeModule_Terrainv
pOh:_NameValueCollection_Add_m2418530856
Bnh:_ReturnMessage_get_MethodSignature_m399735125
b1d:__ZN5physx7NpScene12createClientEv
Ecf:__Z43Register_UnityEngine_Canvas_set_scaleFactorv
zGh:_SortKeyBuffer_AppendLevel5_m3963841125
cnl:__Z62RuntimeInvoker_Void_t1185182177_Rect_t2360479859_RuntimeObjectPFvvEPK10MethodInfoPvPS4_
bKj:_PositionAssertion_Compile_m2500980346
Ygg:_ArrayListWrapper_ToArray_m3192696690
m5e:_raccess_guess_linux_cap
mZ:__Z36AudioSource_Get_Custom_PropIsPlayingP12Il2CppObject
_3:__ZN20DynamicHeapAllocatorI17LowLevelAllocatorEC2EjjbP15BucketAllocatorPKc
jQb:__Z19TransferField_ArrayI18StreamedBinaryReadILb0EE27Converter_UnityEngineObjectEvRK23StaticTransferFieldInfoR31RuntimeSerializationCommandInfoRT0_
Ykm:_StandaloneInput_SetAxisZero_m1274847735
sbg:_Attribute_GetCustomAttribute_m4034845276
h6a:__ZN5Light8TransferI24GenerateTypeTreeTransferEEvRT_
gdd:__ZN26ContactCapsuleMeshCallback10processHitERKN5physx12PxRaycastHitERKNS0_6PxVec3ES6_S6_RfPKj
Nja:__Z33InitializeBuiltinShaderParamNamesv
$Si:_Type_GetConstructor_m2219014380
bKe:__ZN13PhysicsModule24CapsuleColliderSetHeightER15CapsuleColliderf
Twd:__ZN5physx6shdfnd5ArrayINS_19PxHeightFieldSampleENS0_19ReflectionAllocatorIS2_EEE6resizeEjRKS2_
Ihe:__ZN5physx14PxsAABBManager25removeAggregateSinglePairEjPNS_9AggregateEPNS_2Cm10BitMapBaseINS_6shdfnd9AllocatorEEE
sca:__ZNK16TypeTreeIterator4TypeEv
jYb:__ZN10FileSystem25MountDataFolderFileSystemERKN4core12basic_stringIcNS0_20StringStorageDefaultIcEEEES6_
T5f:_ArgumentOutOfRangeException__ctor_m282481429
XMj:_GUILayoutUtility_Internal_MoveWindow_m3463958180
Yj:_glGetUniformLocation
TAa:__ZN13GfxDeviceGLES32CreateColorRenderSurfacePlatformEP17RenderSurfaceBase19RenderTextureFormat
kP:__ZN12AudioManager24CreateFMODSoundFromMovieEP9AudioClip
c_d:__ZN5physx2Sc10NPhaseCore9visualizeERNS_2Cm12RenderOutputE
Cwe:__ZN5physx2Gu12TriangleMesh15exportExtraDataERNS_22PxSerializationContextE
T7j:__ZN6il2cpp2vm13MetadataCache24GetGenericInstanceMethodEPK10MethodInfoPK20Il2CppGenericContext
a4k:_Vector3_Normalize_m914904454
VFk:_GC_hblk_fl_from_blocks
O0f:_MonoField_GetParentType_m2478933781
Aaa:__Z24ConvertSeparatorsToUnityPc
Mik:__ZN6il2cpp2gc19AppendOnlyGCHashMapINSt3__24pairIPK9EventInfoP11Il2CppClassEEP21Il2CppReflectionEvent17ReflectionMapHashIS9_ENS2_8equal_toIS9_EEE3AddERKS9_SB_
D6i:_Collection_1_System_Collections_ICollection_CopyTo_m46221116_gshared
Apk:__ZN6il2cpp2vm6Thread20FreeThreadStaticDataEP12Il2CppThread
Gpi:_Array_InternalArray__IndexOf_TisClientCertificateType_t1004704908_m3457772631_gshared
c5k:__Z28RuntimeInvoker_RuntimeObjectPFvvEPK10MethodInfoPvPS4_
Q1c:__ZN11ForceModule13AwakeFromLoadEP14ParticleSystemRK27ParticleSystemReadOnlyState
Rvd:__ZN5physx2Sc8BodyCore17setupSimStateDataEPNS_6shdfnd4PoolINS0_12SimStateDataENS2_19ReflectionAllocatorIS4_EEEEbb
sAc:__Z41Register_UnityEngine_RectOffset_set_rightv
CIf:_AspectRatioFitter_UpdateRect_m1081360677
BVe:_cf2_glyphpath_finalize
$Ll:__ZL56SecurityAction_t569814076_CustomAttributesCacheGeneratorP21CustomAttributesCache
F$b:__Z20LookRotationToMatrixRK8Vector3fS1_P10Matrix3x3f
Agg:_ArrayListWrapper_set_Capacity_m2373297383
_Sd:__Z25computePacketSizeMultLog2ff
Xth:_Text_get_cachedTextGenerator_m2506989875
dUh:_X509Chain__ctor_m2674663382
Yvm:dynCall_viififi
QEi:_Enumerator_System_Collections_IEnumerator_Reset_m502339360_AdjustorThunk
HDl:__ZL58DictionaryEntry_t3123975638_CustomAttributesCacheGeneratorP21CustomAttributesCache
NXj:_TextGenerator_GetVerticesInternal_m3222977969
J0i:_List_1_RemoveAt_m4279084788_gshared
Vlm:_AeroplaneController_set_EnginePower_m2489503425
b$e:_UNITY_FT_Stream_Free
Ljf:__ZN13WheelCollider10SmartResetEv
npk:__ZN15dense_hashtableINSt3__24pairIK10KeyWrapperINS1_IP11Il2CppClassjEEES4_EES6_N6il2cpp8metadata14ArrayClassHashEN14dense_hash_mapIS6_S4_SB_NS6_14EqualsComparerINSA_17ArrayClassCompareEEENS0_9allocatorIS8_EEE9SelectKeyESF_SH_E12maybe_shrinkEv
uKc:__ZNK5Unity9rapidjson12GenericValueINS0_4UTF8IcEE13JSONAllocatorE6AcceptINS0_12PrettyWriterI16TempBufferWriterS3_S3_S4_EEEEbRT_
KGg:_CryptoConfig_EncodeLongNumber_m4127306320
Bol:__Z87RuntimeInvoker_Void_t1185182177_Single_t1397266774_Single_t1397266774_SByte_t1669577662PFvvEPK10MethodInfoPvPS4_
dPg:_CipherSuite_createEncryptionCipher_m2533565116
mgd:__ZN5physx2Gu8GJKLocalERKNS0_9TriangleVERKNS0_4BoxVERNS_6shdfnd3aos5Vec3VESA_SA_RNS8_6FloatVE
e$d:__ZN5physx16PxsIslandManager18setEdgeUnconnectedERKNS_20PxsIslandManagerHookIjLj4294967295EEE
u$:__ZN11UnityEngine15CloudWebService14DataDispatcher25OnDataBlockConsumedStaticEPv
H7c:__ZN16CustomDataModuleC2E10MemLabelId
Mad:__ZL27GeomMTDCallback_PlaneConvexRN5physx6PxVec3ERfRKNS_10PxGeometryERKNS_11PxTransformES5_S8_
H$i:_List_1_CheckIndex_m3044940639_gshared
U4k:_GenericStack__ctor_m933681517
Plf:__ZN5physx21PxVehicleDriveSimData14setAutoBoxDataERKNS_20PxVehicleAutoBoxDataE
vOb:__Z29Transfer_Blittable_ArrayFieldI18StreamedBinaryReadILb1EE11QuaternionfEvRT_R9ArrayInfoRK23StaticTransferFieldInfo
pBg:_Math_Max_m482125436
A5f:_ActivatedServiceTypeEntry_ToString_m1591455874
Bnj:_ReadOnlyCollection_1_System_Collections_IList_RemoveAt_m2129436005_gshared
Hei:_SecurityElement_ToXml_m3664345083
Rti:_Array_InternalArray__Insert_TisParameterModifier_t1461694466_m3664994573_gshared
H:Math_pow
JVk:_Mesh_get_tangents_m3279676290
Jsa:__Z14resize_trimmedINSt3__26vectorIN9ShaderLab20SerializedSubProgram16SamplerParameterENS0_9allocatorIS4_EEEEEvRT_j
s$d:__ZN5physx6shdfnd5ArrayIPvNS0_15InlineAllocatorILj256ENS0_19ReflectionAllocatorINS_2Gu30LargePersistentContactManifoldEEEEEE15growAndPushBackERKS2_
KXk:_PlayableHandle_GetPlayableType_Injected_m686992718
w7f:_SmallXmlParser_ReadUntil_m2715581630
tsm:__ZNSt3__212basic_stringIcNS_11char_traitsIcEENS_9allocatorIcEEE6insertEjPKcj
sLc:__Z44InitializeTransferFunctionScriptingTraitsForI8JSONReadEvR31TransferFunctionScriptingTraits
ePd:__ZN5physx2Sc13ClothBulkData15exportExtraDataERNS_22PxSerializationContextE
ZWb:__ZNSt3__27__sort4IRNS_4lessIN22BuiltinResourceManager8ResourceEEEPS3_EEjT0_S7_S7_S7_T_
GNh:_ListDictionary_Add_m3918308031
Ixk:__ZNK15dense_hashtableINSt3__24pairIK10KeyWrapperIP12Il2CppObjectEN6il2cpp2gc9CachedCCWEEES5_NS7_5utils11PointerHashIS3_EEN14dense_hash_mapIS5_S9_SD_NS5_14EqualsComparerINS0_8equal_toIS4_EEEENS0_9allocatorISA_EEE9SelectKeyESI_SK_E23find_position_with_hashERS6_j
SKe:__ZN9Rigidbody7SetDragEf
iPj:_SymmetricTransform_InternalTransformBlock_m1743612142
Eth:_Selectable_OnDisable_m3225138518
tqd:__ZN5physx6shdfnd4sortIPvNS0_4LessIS2_EENS0_19ReflectionAllocatorINS_2Sc19ShapeInstancePairLLEEEEEvPT_jRKT0_RKT1_j
MPj:_AesManaged_CreateEncryptor_m1611897367
Qve:__ZN5physx13GuMeshFactory17createHeightFieldERKNS_17PxHeightFieldDescE
vxg:_DelegatePInvokeWrapper_WriteDelegate_t4270993571
yac:__ZN10GameObject34AddFirstTransformComponentInternalEP9Transform
kzc:__Z31Cursor_Get_Custom_PropLockStatev
gia:__ZNSt3__26__treeINS_12__value_typeINS_4pairIPcS3_EENS_3setIS3_15compare_tstringIPKcENS_9allocatorIS3_EEEEEENS_19__map_value_compareIS4_SD_20smaller_tstring_pairIS8_ELb1EEENSA_ISD_EEE7destroyEPNS_11__tree_nodeISD_PvEE
KV:__ZN12AudioManager29GetCurrentAmbisonicDefinitionE31UnityAudioEffectDefinitionFlags
Lzc:__Z52Register_UnityEngine_GameObject_GetComponentInParentv
xrb:__ZN15SerializeTraitsINSt3__24pairIPKN5Unity4TypeE7Hash128EEE8TransferI14SafeBinaryReadEEvRS7_RT_
qFk:_GC_number_stack_black_listed
D1h:_Decimal_ToString_m4018746482_AdjustorThunk
L7b:__Z37GenerateCombinedDynamicVisibleListJobP11CullResults
Tgh:_Dictionary_2_ToTKey_m2055624458_gshared
zib:__ZNK13ScreenManager21GetCursorInsideWindowEv
rt:__ZN14SafeBinaryRead21TransferSTLStyleArrayI22OffsetPtrArrayTransferI9OffsetPtrIN7mecanim12statemachine26SelectorTransitionConstantEEEEEvRT_17TransferMetaFlags
gUf:_CustomAttributeData_GetCustomAttributes_m1033457578
j5f:_SafeHandle_DangerousAddRef_m614714386
L4b:__Z20IntersectAABBFrustumRK4AABBPK5Planej
KEd:__ZN5physx6shdfnd8PoolBaseINS_2Sc13ConstraintSimENS0_19ReflectionAllocatorIS3_EEE17releaseEmptySlabsEv
cCh:_ScrollRect_OnDrag_m688583138
knc:__ZN13RenderManager15InitializeClassEv
ws:__ZNK18AnimatorController17GetAnimationClipsEv
YEb:__ZN15SerializeTraitsI12PropertyNameE8TransferI14SafeBinaryReadEEvRS0_RT_
MOd:__ZNK5physx7NpCloth16getContactOffsetEv
Qlj:_ReadOnlyCollection_1_System_Collections_IList_IndexOf_m3120991897_gshared
Rlh:_Header__ctor_m1921907550
dFe:__ZN5physx7profile8ZoneImplINS_28PxProfileNameProviderForwardEED0Ev
eEh:_Slider_FindSelectableOnUp_m4062600878
Leg:_Convert_ToSByte_m1350241137
wUk:_Material_SetIntImpl_m724477324
Hvm:dynCall_iiiiiiiiiiffffii
jha:__GLOBAL__sub_I_runtime_baseclasses_2_cpp
rjm:_ButtonHandler_SetAxisNeutralState_m3530688688
zNc:__ZN9JSONWrite8TransferI11ColorRGBA32EEvRT_PKc17TransferMetaFlags
fQc:__Z22TransferField_NonArrayI8JSONRead27Converter_SimpleNativeClassI8GradientEEvRK23StaticTransferFieldInfoR31RuntimeSerializationCommandInfoRT0_
tTb:__ZN10MonoScript13AwakeFromLoadE17AwakeFromLoadMode
TWh:_Interval__ctor_m4022869013
LTf:_Default_ReorderParameters_m2076271671
e_a:__ZN10MemoryFile21CreateFileSystemEntryE10MemLabelId14FilePermissionPvjb
OPa:__ZNK18GfxFramebufferGLES15DiscardContentsER12ObjectHandleI17RenderSurface_TagP17RenderSurfaceBaseE
O8j:__ZN6il2cpp2vm13MetadataCache27GetEventDefinitionFromIndexEi
epg:_Convert_ToUInt64_m92315402
vmf:__ZN5physx21PxVehicleDriveSimData17getBinaryMetaDataERNS_14PxOutputStreamE
GMc:__Z18Transfer_BlittableI9JSONWriteLb1EdEvRK29SerializationCommandArgumentsR31RuntimeSerializationCommandInfo
sAm:_glGetIntegerv__wrapper
hki:_EncoderExceptionFallback__ctor_m3745979420
oId:__ZN5physx2Sc13ConstraintSim15preBodiesChangeEv
V$g:_InternalEnumerator_1_System_Collections_IEnumerator_get_Current_m435848551_gshared
Sca:__ZN10GameObject28FinalizeAddComponentInternalEPN5Unity9ComponentE
bbm:__ZL57Image_t2670269651_CustomAttributesCacheGenerator_m_SpriteP21CustomAttributesCache
Pfb:__ZN9Texture2DD2Ev
bSj:_AudioExtensionManager_GetReadyToPlay_m1557263244
VBc:__Z27PlayerPrefs_CUSTOM_GetFloatP12Il2CppStringf
Bog:_Convert_ToSingle_m164367433
RDe:__ZN14PhysicsManager8TransferI19StreamedBinaryWriteILb0EEEEvRT_
qQd:__ZNK5physx2Sc9ClothCore16getStretchConfigENS_22PxClothFabricPhaseType4EnumE
Ajj:_Array_InternalArray__get_Item_TisILTokenInfo_t2325775114_m3110830457_gshared
hng:_Convert_ToDecimal_m1284410333
D_h:_DateTime_CheckStyle_m1392838900
QTc:__Z19UpdateProceduralTplIL27ParticleSystemCurveEvalMode0EEvRK22DualMinMax3DPolyCurvesS3_R23ParticleSystemParticlesRKN4math8float3x3E
Tc:invoke_iiiifiiiii
b7d:__ZN5physx2Sc5Scene31setClothInterCollisionStiffnessEf
kDh:_Shadow_set_effectColor_m3910676693
ONh:_NameObjectCollectionBase__ctor_m2090733912
KVh:_Group__cctor_m2230627219
Qki:_Array_InternalArray__ICollection_Contains_TisDouble_t594665363_m1696010878_gshared
jKg:_BigInteger__cctor_m102257529
SNg:_RSAManaged_EncryptValue_m4149543654
cs:__ZN13dynamic_arrayIhLj1EE18resize_initializedEjRKh12ResizePolicy
gna:__ZN27IntermediateRendererManagerD2Ev
dwb:__ZN17PersistentManager27GetLoadErrorMessageFromPathERKN4core12basic_stringIcNS0_20StringStorageDefaultIcEEEE
sCj:_NetscapeCertTypeExtension_ToString_m1800688476
Mm:_glGenRenderbuffers
urk:__ZN6il2cpp6icalls8mscorlib6System2IO6MonoIO19GetCurrentDirectoryEPi
Jre:__ZN5physx2Sc13ConstraintSim11projectPoseEPNS0_7BodySimE
H$k:_Renderer_get_sortingOrder_m344607889
XMe:__ZL14FindPropertiesRK19ShaderPropertySheet
y5b:__Z21IntersectSegmentPlaneRK8Vector3fS1_RK5PlanePS_
udl:__Z81RuntimeInvoker_Void_t1185182177_Int64_t3736567304_RuntimeObject_Int32_t2950945753PFvvEPK10MethodInfoPvPS4_
ufm:__ZL50Outline_t2536100125_CustomAttributesCacheGeneratorP21CustomAttributesCache
Zrb:__ZN14PlayerSettings23VirtualRedirectTransferER17RemapPPtrTransfer
fLj:_Uri_get_IsFile_m2450018824
wla:__ZN14CachingManager7DisposeEv
WCj:_X509CertificateEnumerator_MoveNext_m3925432749
Zie:__ZN5physx21PxcContactCapsuleMeshERKNS_2Gu13GeometryUnionES3_RKNS_11PxTransformES6_RKfRNS_10PxcNpCacheERNS0_13ContactBufferE
AV:__ZN12AudioManager31GetCurrentSpatializerDefinitionEv
Tnh:_SoapServices_GetXmlNamespaceForMethodCall_m4199193440
mNh:_HybridDictionary_Add_m912320053
Mnb:__ZN12MeshRenderer16UpdateCachedMeshEv
tKe:__ZN9Rigidbody11SetPositionERK8Vector3f
WOj:_KeyBuilder_IV_m3340234014
EEb:__Z19TransferField_ArrayI14SafeBinaryRead27Converter_SimpleNativeClassI8GradientEEvRK23StaticTransferFieldInfoR31RuntimeSerializationCommandInfoRT0_
YPi:_ThreadPool_QueueUserWorkItem_m1526970260
lxi:_DefaultComparer_Equals_m1163494476_gshared
Mli:_Array_InternalArray__ICollection_Remove_TisDictionaryEntry_t3123975638_m3699186409_gshared
SRf:_Object_Equals_m1397037629
pH:__ZNK27StateMachineBehaviourPlayer25FireStateMachineBehaviourEiiN7mecanim12statemachine19StateMachineMessageE
DNk:_AsyncOperation_t1445031843_marshal_pinvoke_back
Kha:__GLOBAL__sub_I_runtime_utilities_4_cpp
BZk:_Rect_get_center_m138276653
iXe:_UNITY_FT_Stream_GetUShort
Hza:__ZN13GfxDeviceGLES14DisableScissorEv
A8d:__ZN5physx17PxcNpMemBlockPool23releaseConstraintMemoryEv
lOk:_Bounds_get_size_m1178783246_AdjustorThunk
Bal:__Z64RuntimeInvoker_Double_t594665363_RuntimeObject_Int32_t2950945753PFvvEPK10MethodInfoPvPS4_
HVh:_Group__ctor_m2243671333
f1h:_Decimal_decimalMult_m3812462972
uoe:__ZNK5physx10PxsContext25getManagerTouchEventCountEPiS1_S1_
zTg:_RecordProtocol_BeginSendRecord_m615249746
hd:_glVertexAttrib4f
AHi:_Enumerator_System_Collections_IEnumerator_get_Current_m209407522_AdjustorThunk
aRk:_Display_get_systemHeight_m730809466
Lbe:__ZN5physx6shdfnd4sortIPNS_10PxsCCDPairENS_13ToiPtrCompareENS0_19ReflectionAllocatorIS3_EEEEvPT_jRKT0_RKT1_j
LIi:_List_1_System_Collections_IList_Insert_m4074493513_gshared
vTb:__ZNK10MonoScript22GetTypeVirtualInternalEv
o3e:__ZNSt3__26vectorINS_4pairINS1_IttEEfEENS_9allocatorIS3_EEE8__appendEj
SYc:__ZNK14ParticleSystem22GetTypeVirtualInternalEv
bLj:_Uri_GetOpaqueWiseSchemeDelimiter_m1909471550
K0e:_UNITY_tt_face_get_location
UGk:_GC_set_hdr_marks
J4a:__Z17SetupObjectMatrixRK10Matrix4x4fi
$eg:_Char_Equals_m1279957088_AdjustorThunk
jvi:_Dictionary_2_OnDeserialization_m1254782141_gshared
fyd:__ZN5physx6shdfnd8PoolBaseINS_11NpAggregateENS0_19ReflectionAllocatorIS2_EEE17releaseEmptySlabsEv
jia:__ZN13RuntimeStaticINSt3__23mapINS0_4pairIPcS3_EEPFbPvR14SafeBinaryReadE20smaller_tstring_pairIPKcENS0_9allocatorINS2_IKS4_S9_EEEEEELb0EE13StaticDestroyES5_
Ewg:_FileStream_FlushBufferIfDirty_m4249802951
Qmf:__ZNK5physx16PxVehicleNoDrive14getBrakeTorqueEj
y9g:_Enumerator_System_Collections_IEnumerator_Reset_m2020903703_gshared
s7g:_DefaultComparer_Compare_m1916473435_gshared
U4e:_open_face
elc:__ZZL31RegisterOtherRendererPropertiesR22GenericPropertyBindingEN30Wrapper_RendererReceiveShadows13SetFloatValueEPvf
Xaf:__Z17RegisterModule_UIv
Vse:__ZN5physx2Sc17ParticleSystemSim19unlinkParticleShapeEPNS0_19ParticlePacketShapeE
YGk:_GC_printf
$Bg:_MonoCustomAttrs_GetCustomAttributes_m1347331976
ssf:__ZN5physx3Pvd17PvdPropertyFilterINS_2Sn17RepXVisitorWriterINS_22PxVehicleWheelsSimDataEEEE27handleExtendedIndexPropertyILj619ES4_NS_6PxVec3EKjNS_18PxUnknownClassInfoEEEvjRKNS_29PxExtendedIndexedPropertyInfoIXT_ET0_T2_T1_EERKT3_
dWk:_Mesh_Clear_m2630385472
Val:__Z46RuntimeInvoker_RuntimeObject_Int16_t2552820387PFvvEPK10MethodInfoPvPS4_
yAa:__ZN9GfxDevice24CreateRenderDepthSurfaceE9TextureIDiiii16TextureDimension17DepthBufferFormat18SurfaceCreateFlags
vkh:_SynchronizationAttribute_set_Locked_m2760363037
jFc:__Z27Renderer_CUSTOM_GetMaterialP12Il2CppObject
ANg:_PrivateKeyInfo_Decode_m986145117
D_k:_RectOffset_get_top_m2855347295
cP:__ZN4FMOD5Sound11setUserDataEPv
gA:__ZN7mecanim9animation9DenseClip8TransferI18StreamedBinaryReadILb0EEEEvRT_
Mra:__ZN14SafeBinaryRead21TransferSTLStyleArrayINSt3__26vectorIN9ShaderLab19SerializedSubShaderENS1_9allocatorIS4_EEEEEEvRT_17TransferMetaFlags
ZEf:_ExecuteEvents_Execute_m533210008
U9k:__Z137RuntimeInvoker_Void_t1185182177_Int32_t2950945753_RuntimeObject_RuntimeObject_RuntimeObject_RuntimeObject_RuntimeObject_SByte_t1669577662PFvvEPK10MethodInfoPvPS4_
Zud:__ZN5physx10PxsContext19destroyArticulationERNS_15PxsArticulationE
jF:__ZN27AnimationLayerMixerPlayable13SetInputCountEi
AZa:__ZNK25SingleBlockMemoryFileData4SizeEv
$ae:__ZN5physx6shdfnd9SListImpl7getSizeEv
xJ:__ZN9BlobWrite8TransferIN7mecanim12statemachine18StateMachineMemoryEEEvRT_PKc17TransferMetaFlags
Gbe:__ZN5physx2Cm12DelegateTaskINS_13PxsCCDContextEXadL_ZNS2_12postCCDSweepEPNS_10PxBaseTaskEEEE11runInternalEv
kUd:__ZN5physx23NpParticleFluidReadData18setDataAccessFlagsENS_7PxFlagsINS_16PxDataAccessFlag4EnumEhEE
aT:__ZL50UnityAudioEffect_InternalSetFloatParameterCallbackP14FMOD_DSP_STATEif
pxk:__ZNK15dense_hashtableINSt3__24pairIK10KeyWrapperIP12Il2CppObjectEN6il2cpp2gc9CachedCCWEEES5_NS7_5utils11PointerHashIS3_EEN14dense_hash_mapIS5_S9_SD_NS5_14EqualsComparerINS0_8equal_toIS4_EEEENS0_9allocatorISA_EEE9SelectKeyESI_SK_E3endEv
bZh:_DateTime_System_IConvertible_ToUInt32_m3781235049
vyl:__Z77RuntimeInvoker_RuntimeObject_UIVertex_t4057497605_RuntimeObject_RuntimeObjectPFvvEPK10MethodInfoPvPS4_
xFe:__ZN5physx7profile8ZoneImplINS_28PxProfileNameProviderForwardEE10eventValueEtyx
k7c:__ZN14qsort_internal30FindAndMovePivotToLastPositionIP16ParticleSortDataiNSt3__24lessIS1_EEEEvT_S6_T0_T1_
C0j:__ZN15dense_hashtableINSt3__24pairIK10KeyWrapperIPK22Il2CppGenericParameterEP11Il2CppClassEES6_N6il2cpp5utils11PointerHashIS4_EEN14dense_hash_mapIS6_S9_SE_NS6_14EqualsComparerINS0_8equal_toIS5_EEEENS0_9allocatorISA_EEE9SelectKeyESJ_SL_E9copy_fromERKSO_j
mtg:_Int64_System_IConvertible_ToType_m3223988955
F6b:__ZN14qsort_internal5QSortIP16RenderObjectDatai25RenderPrePassObjectSorterEEvT_S4_T0_T1_
nci:_SymmetricAlgorithm_Dispose_m1120980942
nla:__ZL19StaticCleanupPlayerPv
aCg:_MonoCustomAttrs_RetrieveAttributeUsage_m2717094301
rvg:_DirectoryInfo_Initialize_m1389772934
kee:__ZN5physx24writeBackContactCoulomb4EPKNS_23PxcSolverConstraintDescERNS_16PxcSolverContextEPPKNS_17PxcSolverBodyDataES8_
aNk:_AnimationCurve_Init_m425927913
ZT:__ZN12AudioManager37RebindAudioSourcesAndSubMixersToMixerEP10AudioMixer
aUa:__ZN9Behaviour10DeactivateE19DeactivateOperation
twh:_LayoutGroup_DelayedSetDirty_m2562435574
oeb:__ZN13StreamingInfo8TransferI14SafeBinaryReadEEvRT_
Ckf:__ZN13WheelCollider14FinalizeCreateEPK9Rigidbody
qli:_Array_InternalArray__ICollection_Contains_TisContactPoint_t3758755253_m1890115071_gshared
nsa:__ZN15dense_hashtableINSt3__24pairIKiN4core17string_with_labelILi1EEEEEi18SInt32HashFunctionN14dense_hash_mapIiS5_S7_NS0_8equal_toIiEE13stl_allocatorIS6_L18MemLabelIdentifier1ELi16EEE9SelectKeyESA_SD_E15insert_noresizeERKS6_
a7c:__Z22EvaluateRandomGradientIL12GradientMode0ELS0_0EEN4math4pix4ERK23OptimizedMinMaxGradientRKNS1_7_float4ES8_
XAk:__ZN6il2cpp2vmL22RaiseOverflowExceptionEv
cr:__Z23CalculateGlobalRotation23TransformAccessReadOnly
Swa:__ZNK9ShaderLab7Program11IsSupportedEPK6Shader
o9:__ZNK4core8hash_mapIPKcPK4RTTIN11TypeManager23ConstCharPtrHashFunctorENS6_19ConstCharPtrEqualToEE6lookupERKS2_
R7d:__ZN5physx2Cm10FanoutTaskD0Ev
z_f:_TypeBuilder_GetMethodImpl_m3583143647
eDd:__ZN5physx14NpShapeManager26markAllSceneQueryForUpdateERNS_2Sq17SceneQueryManagerE
yem:__ZL54LayoutGroup_t2436138090_CustomAttributesCacheGeneratorP21CustomAttributesCache
Drm:_strcat
itd:__ZN5physx2Sc21ConstraintInteractionD2Ev
blc:__Z43InitializeRendererAnimationBindingInterfacev
Eka:__ZL26DestroyGameObjectRecursiveR10GameObjectR11BatchDelete
jHk:_GC_allochblk_nth
XCf:_BaseInput_get_touchSupported_m2634027966
fzf:__ZN5physx23PxVehicleRepXSerializerINS_18PxVehicleDriveTankEE12fileToObjectERNS_9XmlReaderERNS_18XmlMemoryAllocatorERNS_23PxRepXInstantiationArgsEPNS_12PxCollectionE
Wxe:__ZNK5physx2Gu9Container8ContainsEjPj
N8h:_TextInfo_Equals_m3029092201
pkc:__Z7HaloTexP9Texture2DPhiiii
Qwm:dynCall_i
pFb:__ZN14SafeBinaryRead21TransferSTLStyleArrayI13dynamic_arrayIxLj8EEEEvRT_17TransferMetaFlags
Vvm:dynCall_f
n7d:__ZN5physx6shdfnd5ArrayIPNS_11PxAggregateENS0_19ReflectionAllocatorIS3_EEE15growAndPushBackERKS3_
DNh:_ListDictionary_GetEnumerator_m3395631195
WXe:_otv_JstfPriority_validate
tVc:__Z17UpdateGradientTplIL12GradientMode0ELS0_0EEvRK14MinMaxGradientR23ParticleSystemParticlesiRKN4math5_int4E
QIb:__Z35Transfer_Blittable_FixedBufferFieldI24GenerateTypeTreeTransferjEvRK29SerializationCommandArgumentsR31RuntimeSerializationCommandInfo
T8a:__ZN8Playable13SetInputCountEi
$vm:dynCall_v
vnf:__ZNK5physx26PxSerializerDefaultAdapterINS_18PxVehicleDriveTankEE18registerReferencesERNS_6PxBaseERNS_22PxSerializationContextE
ZNa:__ZN7ApiGLES14TextureSamplerEjjRK24GfxTextureSamplingParams17TextureColorSpace
Zkg:_SortedList_System_Collections_IEnumerable_GetEnumerator_m2738760439
Spk:__ZN6il2cpp2vm6Thread8SetStateEP12Il2CppThreadNS0_11ThreadStateE
E0a:__ZN6Camera23VirtualRedirectTransferER14SafeBinaryRead
cYk:_PlayerPrefs_SetFloat_m3161432420
ALk:__ZNSt3__26vectorINS_12basic_stringIDsNS_11char_traitsIDsEENS_9allocatorIDsEEEENS4_IS6_EEE8__appendEj
dff:__ZN11UnityEngine7Connect13ConnectConfig11ConfigValueD2Ev
WOa:__ZNSt3__26__treeINS_12__value_typeIjP14DataBufferGLESEENS_19__map_value_compareIjS4_NS_4lessIjEELb1EEENS_9allocatorIS4_EEE7destroyEPNS_11__tree_nodeIS4_PvEE
MOe:__ZN11DetailPatch8TransferI19StreamedBinaryWriteILb0EEEEvRT_
ANk:_AssetBundleRequest_t699759206_marshal_pinvoke_back
czd:__ZN5physx14NpArticulationD0Ev
upc:__ZN13PlayableGraph15SetPrepareStageE13DirectorStage
Rb:invoke_viiiiiiii
Mpg:_Int16_System_IConvertible_ToDateTime_m3080274979_AdjustorThunk
$Oa:__ZN18GfxFramebufferGLES24UpdateDefaultFramebufferEP17RenderSurfaceBaseS1_N2gl6HandleILNS2_10ObjectTypeE9EEE
Agl:__Z74RuntimeInvoker_RuntimeObject_RuntimeObject_Double_t594665363_RuntimeObjectPFvvEPK10MethodInfoPvPS4_
Sjg:_Hashtable_CopyTo_m2905447224
q_j:_Animator_ResetTrigger_m2321267720
zsb:__ZN18StreamedBinaryReadILb0EE21TransferSTLStyleArrayI13dynamic_arrayIiLj4EEEEvRT_17TransferMetaFlags
tgb:__ZN16LightmapSettings5ResetEv
$Wa:__ZN12FileAccessor4ReadEyPvPy
q0c:__ZN25IParticleSystemProperties8PropertyI8Vector3fNS_5ClampILi0ELi1EEEE8TransferI18StreamedBinaryReadILb0EEEEvRT_PKc
t9l:__ZL132TouchInputModule_t4248229598_CustomAttributesCacheGenerator_TouchInputModule_t4248229598____allowActivationOnStandalone_PropertyInfoP21CustomAttributesCache
J6k:__Z67RuntimeInvoker_Void_t1185182177_Int16_t2552820387_Int32_t2950945753PFvvEPK10MethodInfoPvPS4_
JIc:__Z42Register_UnityEngine_Event_get_commandNamev
fcj:_Collection_1_IsValidItem_m714924194_gshared
vKc:__ZN5Unity9rapidjson12PrettyWriterI16TempBufferWriterNS0_4UTF8IcEES4_13JSONAllocatorE12PrettyPrefixENS0_4TypeE
cNi:_UnicodeEncoding_GetString_m332467280
Ixc:__ZN8TypeTreeC2E10MemLabelId
gba:__ZNK15FileSystemEntry6ExistsEv
OPe:__ZNK14TerrainManager16GetActiveTerrainEv
l2k:_Transform_INTERNAL_get_rotation_m2413441996
YHf:_TouchInputModule_IsModuleSupported_m384818291
vue:__ZN5physx2Gu10ConvexMesh4loadERNS_13PxInputStreamE
qEd:__ZN5physx2Sc5Scene11removeShapeERNS0_8ShapeSimEb
G_h:_DateTime_ToString_m884486936
OMg:_MD4Managed_HashCore_m3384203071
fQ:__ZN13AudioListener23VirtualRedirectTransferER19StreamedBinaryWriteILb0EE
hQg:_ClientRecordProtocol_createClientHandshakeMessage_m3325677558
mxe:__ZN5physx6shdfnd5ArrayIPvNS0_19ReflectionAllocatorIN17PxcPoolMallocData10PoolData16EEEE15growAndPushBackERKS2_
pBa:__ZN13GfxDeviceGLES11CopyTextureE9TextureIDS0_
llg:_SortedList_get_Capacity_m919184864
Rwi:_Dictionary_2_ContainsKey_m2278349286_gshared
Dzm:_emscripten_glViewport__wrapper
TA:__ZN6Motion17MainThreadCleanupEv
mqb:__ZN14SafeBinaryRead21TransferSTLStyleArrayINSt3__26vectorIhNS1_9allocatorIhEEEEEEvRT_17TransferMetaFlags
w1:__ZN11UnityEngine15CloudWebService23WebRequestUploadHandler13GetUploadDataERj
MPk:_Color32_ToString_m403383053_AdjustorThunk
ryf:__ZN5physx3Pvd17PvdPropertyFilterINS_2Sn17RepXVisitorWriterINS_20PxVehicleAutoBoxDataEEEE15indexedPropertyILj538ES4_NS_18PxVehicleGearsData4EnumEfEEvjRKNS_21PxIndexedPropertyInfoIXT_ET0_T1_T2_EEPKNS_11PxU32ToNameERKNS_18PxUnknownClassInfoE
L9h:_RIPEMD160Managed_GG_m3020389474
uYj:_Canvas_get_sortingOrder_m1860900812
lih:_ConfigHandler_ReadChannel_m781299361
HZk:_Rect_get_max_m350137314
Vim:_CrossPlatformInputManager_AxisExists_m365322552
Chl:__Z99RuntimeInvoker_Void_t1185182177_Int32_t2950945753_Int32_t2950945753_SByte_t1669577662_RuntimeObjectPFvvEPK10MethodInfoPvPS4_
I$e:_tt_size_select
Dy:__ZNSt3__214__split_bufferIN13AnimationClip10FloatCurveER13stl_allocatorIS2_L18MemLabelIdentifier26ELi16EEED2Ev
Dih:_InternalRemotingServices_GetCachedSoapAttribute_m1042302982
M$:__ZN11UnityEngine15CloudWebService17SessionEventQueue15RestoreFromFileER12FileAccessorPvy
qVf:_ConstructorBuilder_GetILGenerator_m1421260830
hsk:__ZN6il2cpp2vm9Exception25RaiseOutOfMemoryExceptionEv
Qrb:__ZN14PlayerSettingsD2Ev
eyh:_RectMask2D_RemoveClippable_m773604960
w5c:__Z19UpdateWholeSheetTplIL27ParticleSystemCurveEvalMode2EEvfRK11MinMaxCurveS3_RK23ParticleSystemParticlesPf
Nyl:__ZL51Attribute_t861562559_CustomAttributesCacheGeneratorP21CustomAttributesCache
mBg:_Math_Ceiling_m625148210
ZFk:_GC_reclaim_all
$na:__ZN13PlayableGraph14DestroyOutputsEv
z5i:_Enumerator_System_Collections_IEnumerator_get_Current_m3895111131_gshared
Tf:___syscall122
dhd:__ZN16RayRTreeCallbackILi1ELb1EED0Ev
dje:__ZL18PxcContactHullHullRKN5physx2Gu13PolygonalDataES3_RKNS_9PxBounds3ES6_RKNS_11PxTransformES9_fRNS0_13ContactBufferERKNS_2Cm23FastVertex2ShapeScalingESF_bb
lng:_Convert_ToDecimal_m2858622624
fSf:_OperatingSystem__ctor_m1545635730
LOd:__ZN5physx7NpCloth16setContactOffsetEf
nrf:__Z46getPxVehicleWheelsSimData_SceneQueryFilterDataPKN5physx22PxVehicleWheelsSimDataEj
O_i:_List_1_RemoveAll_m2406195485_gshared
FEh:_Text_get_resizeTextForBestFit_m1689289413
pad:__ZN5physx3Cct26CharacterControllerManager21resetObstaclesBuffersEv
rse:__ZN5physx6shdfnd5ArrayIPNS_10PxsCCDBodyENS0_19ReflectionAllocatorIS3_EEE8recreateEj
AX:__ZN9AudioClip16EnableLegacyModeEv
Xjh:_Context_DoCallBack_m749197451
b5j:__ZNK10KeyWrapperIPK17Il2CppGenericInstE14EqualsComparerIN6il2cpp8metadata24Il2CppGenericInstCompareEEclERKS3_SA_
_Yj:_CanvasRenderer_set_materialCount_m4286588063
_yc:__Z52Register_UnityEngine_Camera_INTERNAL_CALL_RaycastTryv
jrm:_mkdir
SQj:_VerticalLayoutGroup_SetLayoutHorizontal_m84550911
zvi:_Dictionary_2_System_Collections_IDictionary_Remove_m1899540215_gshared
yne:__ZN5physx6shdfnd8PoolBaseINS_21PxsBodyTransformVault13PxsBody2WorldENS0_19ReflectionAllocatorIS3_EEE12allocateSlabEv
WGi:_Enumerator_MoveNext_m29052175_AdjustorThunk
s0k:_SendMouseEvents_SetMouseMoved_m2822596724
OVc:__Z25MagnitudeUpdatePerAxisTplIL27ParticleSystemCurveEvalMode4EEvRK11MinMaxCurveS3_S3_RK27ParticleSystemReadOnlyStateRK19ParticleSystemStateR23ParticleSystemParticlesjjRKN4math7_float4Eb
jxc:__ZN18ScriptingArguments13CopyFromOtherERKS_
DMh:_PKCS12_ReadSafeBag_m1585166574
R1e:_ps_hints_close
ync:__Z16CreateRenderLoopR6Camera
Gde:__ZN5physx20PxcNpCacheStreamPairC2ERNS_17PxcNpMemBlockPoolE
DSb:__ZN32SerializationCommandQueueBuilder3AddERK20SerializationCommand
w4:_tlsf_create
iqj:_ReadOnlyCollection_1_System_Collections_IEnumerable_GetEnumerator_m2505713430_gshared
Apm:_frexpl
btb:__ZN14SafeBinaryRead21TransferSTLStyleArrayINSt3__26vectorIN15ResourceManager10DependencyE13stl_allocatorIS4_L18MemLabelIdentifier52ELi16EEEEEEvRT_17TransferMetaFlags
WRb:__ZN13MonoBehaviour23VirtualRedirectTransferER18StreamedBinaryReadILb0EE
Mta:__ZN9ShaderLab20SerializedSubProgramC2ERKS0_
wEm:_emscripten_glCompileShader__wrapper
flb:__ZN9Texture3D17UploadToGfxDeviceEv
gjj:_Array_InternalArray__get_Item_TisKeyValuePair_2_t71524366_m252172060_gshared
ltm:__ZNK10__cxxabiv121__vmi_class_type_info27has_unambiguous_public_baseEPNS_19__dynamic_cast_infoEPvi
IDg:_MulticastDelegate_CombineImpl_m2857239134
B9e:__ZN2UI14CanvasRenderer23UpdateChangedTransformsEv
Inl:__Z171RuntimeInvoker_Void_t1185182177_RuntimeObject_RuntimeObject_RuntimeObject_RuntimeObject_RuntimeObject_RuntimeObject_RuntimeObject_RuntimeObject_RuntimeObject_RuntimeObjectPFvvEPK10MethodInfoPvPS4_
Jcg:_Boolean_System_IConvertible_ToUInt16_m3465173538
_Wi:_Version_op_Inequality_m1696193441
d5f:_Marshal_ReadByte_m1960935664
iod:__ZNK5physx11PxAggregate8isKindOfEPKc
Ahb:__ZN15QualitySettings23VirtualRedirectTransferER19StreamedBinaryWriteILb0EE
L4c:__ZL24GenerateParticleGeometryIL24ParticleSystemRenderMode3ELb1ELb0EL25ParticleSystemRenderSpace0EEvPfRK22ParticleSystemTempDataRK26ParticleSystemRendererDataRK21ParticleSystemModulesRK23ParticleSystemParticlesRK31ParticleSystemParticlesTempData
Qgg:_ArrayListWrapper_CopyTo_m3756520478
txe:__ZN5physx7Cooking16platformMismatchEv
P5a:__ZN5Light17MainThreadCleanupEv
B5:__ZNK6Camera15IsValidToRenderEv
pDm:_emscripten_glUniform4iv__wrapper
jpe:__ZN5physx28solveParallelCouloumFrictionERNS_18PxsDynamicsContextEjjPNS_13PxcSolverBodyEPNS_17PxcSolverBodyDataEjjPNS_25PxcArticulationSolverDescEjPNS_23PxcSolverConstraintDescEjS9_jPiSA_SA_SA_SA_SA_PNS_25PxcThresholdStreamElementEjSA_PNS_2Cm13SpatialVectorEPKPNS_11PxsBodyCoreERNSD_10BitMapBaseINS_6shdfnd9AllocatorEEEPKPNS_15PxsArticulationEjPViRNSL_5ArrayINS_24PxsConstraintBatchHeaderENSL_19ReflectionAllocatorISW_EEEES10_RNSV_IjNSX_IjEEEES13_PPNS_12PxsRigidBodyEj
Wlc:__ZN8Material12CleanupClassEv
olc:__ZN8Material8GetFloatEN9ShaderLab16FastPropertyNameE
Vce:__ZN5physx2Gu18gjkRelativeRayCastINS0_9TriangleVENS0_4BoxVES2_NS0_10ShrunkBoxVEEEbRT_RT0_RKNS_6shdfnd3aos15PsMatTransformVERKNSA_6FloatVERKNSA_5Vec3VESJ_RSE_RSH_SL_fb
rSj:_AudioSource_set_time_m3951137143
NGc:__Z11GetGUIStatev
Tg:_glGetActiveUniform
Spi:_Array_InternalArray__IndexOf_TisSlot_t3975888750_m4250446283_gshared
xFd:__ZN5physx2Sc8BodyCoreD2Ev
rJj:_CharacterClass_AddCharacter_m2370152363
Kga:__ZN15SerializeTraitsI10ColorRGBAfE8TransferI14SafeBinaryReadEEvRS0_RT_
xlj:_Collection_1_IsValidItem_m2333176545_gshared
kla:__ZN22BuiltinResourceManager13StaticDestroyEPv
wka:__ZN10GameObject17GetComponentIndexEPN5Unity9ComponentE
MNd:__ZN5physx7NpCloth20setMotionConstraintsEPKNS_31PxClothParticleMotionConstraintE
ejb:__ZN14SafeBinaryRead21TransferSTLStyleArrayI13dynamic_arrayI7SubMeshLj4EEEEvRT_17TransferMetaFlags
Oej:_Array_InternalArray__set_Item_TisILTokenInfo_t2325775114_m309595583_gshared
OS:__ZN29AudioEffectInternalDefinition9CreateDSPEPN4FMOD6SystemEPvPfP23UnityAudioAmbisonicDataPP25UnityAudioSpatializerData
f6c:__Z19UpdateSingleRow2TplIL27ParticleSystemCurveEvalMode2ELS0_3EEvfRK11MinMaxCurveS3_RK23ParticleSystemParticlesPfbiii
x1e:_UNITY_tt_face_vary_cvt
Imf:__ZN5physx16PxVehicleDrive4W12createObjectERPhRNS_24PxDeserializationContextE
mvb:__ZN13RenderManager18UpdateAllRenderersEv
OLj:_Event_Internal_GetMousePosition_m1101229675
EBj:_TlsStream_ReadInt24_m3096782201
jue:__ZNK5physx2Sc15ClothFabricCore9getPhasesEPNS_18PxClothFabricPhaseEj
$bc:__ZN35RegisterRuntimeInitializeAndCleanup22ExecuteInitializationsEv
A8c:__ZN11MinMaxCurve14ResetMinCurvesEv
NKj:_UriParser_GetParser_m544052729
yuh:_Text_get_font_m2857203289
OBm:b100
CVa:__ZN23PreloadManagerOperation14SetFinalTimingEffff
i:DYNAMICTOP_PTR
YYf:_MethodBuilder_fixup_m1765890582
N_b:__Z11CopyTextureP7TextureiiS0_ii
Arb:__ZN13BuildSettings8TransferI18StreamedBinaryReadILb0EEEEvRT_
HBg:_MissingFieldException__ctor_m4282575076
$0h:_Decimal_Equals_m2592017260
pnc:__ZN10GameObject15InitializeClassEv
B5d:__ZN5physx3Scb17ArticulationJoint9syncStateEv
Bce:__ZNK5physx2Gu29EPASupportMapPairRelativeImplINS0_8CapsuleVENS0_4BoxVEE18doWarmStartSupportEiiRNS_6shdfnd3aos5Vec3VES8_S8_
Xih:_RemotingConfiguration_RegisterTypes_m2378540395
lFc:__Z38Renderer_Get_Custom_PropSortingLayerIDP12Il2CppObject
ure:__ZN5physx17PxsThresholdTable5buildERKNS_18PxsThresholdStreamE
D1g:_InternalEnumerator_1_System_Collections_IEnumerator_get_Current_m767948013_gshared
cQk:_DelegatePInvokeWrapper_CSSMeasureFunc_t1554030124
xnf:__ZNK5physx26PxSerializerDefaultAdapterINS_18PxVehicleDriveTankEE12createObjectERPhRNS_24PxDeserializationContextE
nNk:_UnityAction_Invoke_m893829196
By:__ZN13AnimationClip10FloatCurveC2ERKS0_
ehe:__ZN9BoxPruner12updateObjectERK5IAABBt
Qqd:__ZN5physx2Sc10NPhaseCore32createActorPairContactReportDataEv
ble:__ZN5physx2Gu22pcmContactPlaneCapsuleERKNS0_13GeometryUnionES3_RKNS_11PxTransformES6_RKfRNS0_5CacheERNS0_13ContactBufferE
lWa:__ZN14AsyncOperationD0Ev
yFa:__Z29TextureIdMapGLES_QueryOrAlloc9TextureID
QVc:__Z18MagnitudeUpdateTplIL27ParticleSystemCurveEvalMode3EEvRK11MinMaxCurveR23ParticleSystemParticlesjjRKN4math7_float4E
rPk:_Color_GetHashCode_m1829208463
UGe:__ZN5physx6shdfnd4sortIPvNS0_4LessIS2_EENS0_19ReflectionAllocatorINS_24NpPtrTableStorageManager8PtrBlockILi4EEEEEEEvPT_jRKT0_RKT1_j
Bwc:__Z25scripting_raise_exception21ScriptingExceptionPtr
evh:_Text_get_cachedTextGeneratorForLayout_m116487342
O_j:__ZL11decimalLog2P19il2cpp_decimal_repr
ktb:__ZN15ResourceManager10Dependency8TransferI14SafeBinaryReadEEvRT_
gfe:__ZNK5physx29BroadPhaseBatchUpdateWorkTask7getNameEv
maj:_Collection_1_System_Collections_IList_Remove_m3800279569_gshared
BFk:_GC_extend_size_map
zEh:_Text_FontTextureChanged_m495427969
grg:_NumberFormatter_RoundDecimal_m2957290908
qT:__ZN4FMOD6System9setDriverEi
Z5:__ZNK9Transform11GetRotationEv
JAm:_emscripten_glGetIntegerv__wrapper
xT:__ZN12AudioManager15DidReloadDomainEv
g4d:__ZN5physx2Sc5Scene26setVisualizationCullingBoxERKNS_9PxBounds3E
Hri:_Array_InternalArray__ICollection_Add_TisSingle_t1397266774_m1873979703_gshared
m2e:_pshinter_get_globals_funcs
RIb:__Z18Transfer_BlittableI24GenerateTypeTreeTransferLb0EyEvRK29SerializationCommandArgumentsR31RuntimeSerializationCommandInfo
Ebb:__ZN8Material14CreateMaterialER6ShaderN6Object9HideFlagsEb
ZQi:_TimeSpan_get_Minutes_m4278980001_AdjustorThunk
elf:__ZN5physx15PxVehicleWheels15patchupPointersEPS0_Phjjb
WYc:__ZN14ParticleSystem23VirtualRedirectTransferER24GenerateTypeTreeTransfer
v_e:_tt_cmap12_char_map_binary
dMj:_GUI__cctor_m3051457990
UIe:__Z27GetMeshAssetPathDescriptivePK4Mesh
rnm:_CarController_set_Revs_m3708846203
$Df:_EventSystem_IsPointerOverGameObject_m1911785875
Nea:__Z25GetBuiltinResourceManagerv
T9d:__ZN5physx2Sq16BucketPrunerCore20allocateSortedMemoryEj
hx:__ZN6Motion21AddSelfToDependenciesER8UserList
Owk:__ZN6il2cpp2gc8GCHandle15GetTargetHandleEP12Il2CppObjectii
Vrg:_Int32_System_IConvertible_ToByte_m3832391412
vlm:_AeroplaneController_AutoLevel_m820258496
qi:_llvm_trap
Tja:__ZNSt3__27__sort5IRNS_6__lessIN12_GLOBAL__N_114ParamNameIndexES3_EEPS3_EEjT0_S7_S7_S7_S7_T_
qPe:__ZNSt3__26vectorI11ColorRGBA32NS_9allocatorIS1_EEE8__appendEj
TDj:_X509Certificate_VerifySignature_m3988463526
V_k:_RectTransform_get_anchoredPosition_m1813443094
YFk:_get_index
Kx:__ZN11UnityEngine9Animation14GenericBinding8TransferI14SafeBinaryReadEEvRT_
pie:__ZNK5physx14SingleAABBTask7getNameEv
tpg:_GuidParser_AtEnd_m3409982497
ylf:__ZN13WheelCollider8TransferI24GenerateTypeTreeTransferEEvRT_
Yye:__ZN5physx11HullLibrary11calchullgenEPNS_6float3Eiif
oKh:_KeyBuilder_Key_m876696100
q1a:__Z26scripting_method_get_class18ScriptingMethodPtr
lfk:__ZN15dense_hashtableINSt3__24pairIK10KeyWrapperINS1_IPK14Il2CppAssemblyP11Il2CppClassEEEjEES9_17ReflectionMapHashIS8_EN14dense_hash_mapIS9_jSD_NS9_14EqualsComparerINS0_8equal_toIS8_EEEENS0_9allocatorISB_EEE9SelectKeyESI_SK_EC2ERKSN_j
Bjk:__ZN6il2cpp2vm10Reflection7IsFieldEP12Il2CppObject
uof:__ZN5physx3Pvd17PvdPropertyFilterINS_2Sn17RepXVisitorReaderINS_22PxVehicleWheelsSimDataEEEE27handleExtendedIndexPropertyILj616ES4_NS_6PxVec3EKjNS_18PxUnknownClassInfoEEEvjRKNS_29PxExtendedIndexedPropertyInfoIXT_ET0_T2_T1_EERKT3_
p5a:__ZN17CollisionMeshData20VertexDataHasChangedEv
J9j:__ZN6il2cpp2vm21ThreadPoolCompartment12DetachThreadEP12Il2CppThread
CFg:_SByte_System_IConvertible_ToInt16_m885121451_AdjustorThunk
a0h:_Decimal_stripStyles_m1823381019
OAa:__ZN13GfxDeviceGLES30SetBackBufferColorDepthSurfaceEP17RenderSurfaceBaseS1_
GJc:__Z52Register_UnityEngine_GUIUtility_get_systemCopyBufferv
Pij:_LayoutGroup_SetProperty_TisBoolean_t97287965_m3903959758_gshared
Gpc:__ZN16StreamedResource8TransferI18StreamedBinaryReadILb0EEEEvRT_
lBc:__Z49Register_UnityEngine_Input_get_imeCompositionModev
y3d:__ZN5physx6shdfnd5ArrayINS_12PxActorShapeENS0_19ReflectionAllocatorIS2_EEE8recreateEj
msa:__ZN15dense_hashtableINSt3__24pairIKiN4core17string_with_labelILi1EEEEEi18SInt32HashFunctionN14dense_hash_mapIiS5_S7_NS0_8equal_toIiEE13stl_allocatorIS6_L18MemLabelIdentifier1ELi16EEE9SelectKeyESA_SD_E12resize_deltaEjj
gPk:_Camera_INTERNAL_CALL_RaycastTry2D_m3172975827
_8b:__ZNK20OcclusionCullingData22GetStaticRendererCountEv
uBj:_TlsStream_get_EOF_m953226442
pRc:__GLOBAL__sub_I_runtime_particlesystem_modules_5_cpp
$o:FUNCTION_TABLE_iiiiifi
IEm:_emscripten_glDisableVertexAttribArray__wrapper
apm:_strtox_545
NCg:_MonoType_GetAttributeFlagsImpl_m167182975
lOg:_EncryptedData_get_EncryptedContent_m3205649670
Onb:__ZN12MeshRenderer18CalculateLocalAABBER4AABBRKS_RK4Mesh
AQd:__ZN5physx2Sc9ClothCore20setMotionConstraintsEPKNS_31PxClothParticleMotionConstraintE
Itc:__Z18SetITerrainManagerP15ITerrainManager
p3:__ZN21UnityDefaultAllocatorI17LowLevelAllocatorE8AllocateEji
HF:__ZN7mecanim5human14HumanPoseClearERNS0_9HumanPoseERKNS_6bitsetILj83EEE
